(lp0
(iutil.request_logging
SimpleRequest
p1
(dp2
S'REQUEST'
p3
ccopy_reg
_reconstructor
p4
(cdjango.utils.datastructures
MergeDict
p5
c__builtin__
object
p6
Ntp7
Rp8
(dp9
S'dicts'
p10
(g4
(cdjango.http.request
QueryDict
p11
c__builtin__
dict
p12
(dp13
Vtid
p14
(lp15
V0
p16
asVtest
p17
(lp18
VTrue
p19
asVhasnum
p20
(lp21
V0
p22
astp23
Rp24
(dp25
S'_encoding'
p26
S'utf-8'
p27
sS'_data'
p28
(dp29
g14
g15
sg17
g18
sg20
g21
ssS'_mutable'
p30
I01
sbg4
(g11
g12
(dp31
tp32
Rp33
(dp34
S'_encoding'
p35
g27
sg28
(dp36
sg30
I00
sbtp37
sbsS'user'
p38
(dp39
S'screen_name'
p40
VSample user
p41
sS'money'
p42
I50
sS'last_login'
p43
S'2014-01-09T04:56:18.899521+00:00'
p44
sS'exp'
p45
I0
sS'gmail'
p46
Vexample@gmail.com
p47
sS'id'
p48
I1
sS'date_joined'
p49
S'2014-01-09T04:53:26.775143+00:00'
p50
ssba(iutil.request_logging
SimpleRequest
p51
(dp52
g3
g4
(g5
g6
Ntp53
Rp54
(dp55
g10
(g4
(g11
g12
(dp56
Vtid
p57
(lp58
V0
p59
asVtest
p60
(lp61
VTrue
p62
asVhasnum
p63
(lp64
V1000
p65
astp66
Rp67
(dp68
g26
S'utf-8'
p69
sg28
(dp70
g57
g58
sg60
g61
sg63
g64
ssS'_mutable'
p71
I01
sbg4
(g11
g12
(dp72
tp73
Rp74
(dp75
S'_encoding'
p76
g69
sg28
(dp77
sg71
I00
sbtp78
sbsg38
(dp79
S'screen_name'
p80
VSample user
p81
sS'money'
p82
I50
sS'last_login'
p83
S'2014-01-09T04:56:18.899521+00:00'
p84
sS'exp'
p85
I0
sS'date_joined'
p86
S'2014-01-09T04:53:26.775143+00:00'
p87
sS'id'
p88
I1
sS'gmail'
p89
Vexample@gmail.com
p90
ssba(iutil.request_logging
SimpleRequest
p91
(dp92
g3
g4
(g5
g6
Ntp93
Rp94
(dp95
g10
(g4
(g11
g12
(dp96
Vtid
p97
(lp98
V0
p99
asVtest
p100
(lp101
VTrue
p102
asVhasnum
p103
(lp104
V2000
p105
astp106
Rp107
(dp108
g26
S'utf-8'
p109
sg28
(dp110
g97
g98
sg100
g101
sg103
g104
ssS'_mutable'
p111
I01
sbg4
(g11
g12
(dp112
tp113
Rp114
(dp115
S'_encoding'
p116
g109
sg28
(dp117
sg111
I00
sbtp118
sbsg38
(dp119
S'screen_name'
p120
VSample user
p121
sS'money'
p122
I50
sS'last_login'
p123
S'2014-01-09T04:56:18.899521+00:00'
p124
sS'exp'
p125
I0
sS'gmail'
p126
Vexample@gmail.com
p127
sS'id'
p128
I1
sS'date_joined'
p129
S'2014-01-09T04:53:26.775143+00:00'
p130
ssba(iutil.request_logging
SimpleRequest
p131
(dp132
g3
g4
(g5
g6
Ntp133
Rp134
(dp135
g10
(g4
(g11
g12
(dp136
Vtid
p137
(lp138
V0
p139
asVtest
p140
(lp141
VTrue
p142
asVhasnum
p143
(lp144
V3000
p145
astp146
Rp147
(dp148
g26
S'utf-8'
p149
sg28
(dp150
g137
g138
sg140
g141
sg143
g144
ssS'_mutable'
p151
I01
sbg4
(g11
g12
(dp152
tp153
Rp154
(dp155
S'_encoding'
p156
g149
sg28
(dp157
sg151
I00
sbtp158
sbsg38
(dp159
S'screen_name'
p160
VSample user
p161
sS'money'
p162
I50
sS'last_login'
p163
S'2014-01-09T04:56:18.899521+00:00'
p164
sS'exp'
p165
I0
sS'date_joined'
p166
S'2014-01-09T04:53:26.775143+00:00'
p167
sS'id'
p168
I1
sS'gmail'
p169
Vexample@gmail.com
p170
ssba(iutil.request_logging
SimpleRequest
p171
(dp172
g3
g4
(g5
g6
Ntp173
Rp174
(dp175
g10
(g4
(g11
g12
(dp176
Vtid
p177
(lp178
V0
p179
asVtest
p180
(lp181
VTrue
p182
asVhasnum
p183
(lp184
V4000
p185
astp186
Rp187
(dp188
g26
S'utf-8'
p189
sg28
(dp190
g177
g178
sg180
g181
sg183
g184
ssS'_mutable'
p191
I01
sbg4
(g11
g12
(dp192
tp193
Rp194
(dp195
S'_encoding'
p196
g189
sg28
(dp197
sg191
I00
sbtp198
sbsg38
(dp199
S'screen_name'
p200
VSample user
p201
sS'money'
p202
I50
sS'last_login'
p203
S'2014-01-09T04:56:18.899521+00:00'
p204
sS'exp'
p205
I0
sS'gmail'
p206
Vexample@gmail.com
p207
sS'id'
p208
I1
sS'date_joined'
p209
S'2014-01-09T04:53:26.775143+00:00'
p210
ssba(iutil.request_logging
SimpleRequest
p211
(dp212
g3
g4
(g5
g6
Ntp213
Rp214
(dp215
g10
(g4
(g11
g12
(dp216
Vtid
p217
(lp218
V7
p219
asVtest
p220
(lp221
VTrue
p222
asVhasnum
p223
(lp224
V0
p225
astp226
Rp227
(dp228
g26
S'utf-8'
p229
sg28
(dp230
g217
g218
sg220
g221
sg223
g224
ssS'_mutable'
p231
I01
sbg4
(g11
g12
(dp232
tp233
Rp234
(dp235
S'_encoding'
p236
g229
sg28
(dp237
sg231
I00
sbtp238
sbsg38
(dp239
S'screen_name'
p240
VSample user
p241
sS'money'
p242
I50
sS'last_login'
p243
S'2014-01-09T04:56:18.899521+00:00'
p244
sS'exp'
p245
I0
sS'date_joined'
p246
S'2014-01-09T04:53:26.775143+00:00'
p247
sS'id'
p248
I1
sS'gmail'
p249
Vexample@gmail.com
p250
ssba(iutil.request_logging
SimpleRequest
p251
(dp252
g3
g4
(g5
g6
Ntp253
Rp254
(dp255
g10
(g4
(g11
g12
(dp256
Vtid
p257
(lp258
V7
p259
asVtest
p260
(lp261
VTrue
p262
asVhasnum
p263
(lp264
V1000
p265
astp266
Rp267
(dp268
g26
S'utf-8'
p269
sg28
(dp270
g257
g258
sg260
g261
sg263
g264
ssS'_mutable'
p271
I01
sbg4
(g11
g12
(dp272
tp273
Rp274
(dp275
S'_encoding'
p276
g269
sg28
(dp277
sg271
I00
sbtp278
sbsg38
(dp279
S'screen_name'
p280
VSample user
p281
sS'money'
p282
I50
sS'last_login'
p283
S'2014-01-09T04:56:18.899521+00:00'
p284
sS'exp'
p285
I0
sS'gmail'
p286
Vexample@gmail.com
p287
sS'id'
p288
I1
sS'date_joined'
p289
S'2014-01-09T04:53:26.775143+00:00'
p290
ssba(iutil.request_logging
SimpleRequest
p291
(dp292
g3
g4
(g5
g6
Ntp293
Rp294
(dp295
g10
(g4
(g11
g12
(dp296
Vtid
p297
(lp298
V7
p299
asVtest
p300
(lp301
VTrue
p302
asVhasnum
p303
(lp304
V2000
p305
astp306
Rp307
(dp308
g26
S'utf-8'
p309
sg28
(dp310
g297
g298
sg300
g301
sg303
g304
ssS'_mutable'
p311
I01
sbg4
(g11
g12
(dp312
tp313
Rp314
(dp315
S'_encoding'
p316
g309
sg28
(dp317
sg311
I00
sbtp318
sbsg38
(dp319
S'screen_name'
p320
VSample user
p321
sS'money'
p322
I50
sS'last_login'
p323
S'2014-01-09T04:56:18.899521+00:00'
p324
sS'exp'
p325
I0
sS'date_joined'
p326
S'2014-01-09T04:53:26.775143+00:00'
p327
sS'id'
p328
I1
sS'gmail'
p329
Vexample@gmail.com
p330
ssba(iutil.request_logging
SimpleRequest
p331
(dp332
g3
g4
(g5
g6
Ntp333
Rp334
(dp335
g10
(g4
(g11
g12
(dp336
Vtid
p337
(lp338
V7
p339
asVtest
p340
(lp341
VTrue
p342
asVhasnum
p343
(lp344
V3000
p345
astp346
Rp347
(dp348
g26
S'utf-8'
p349
sg28
(dp350
g337
g338
sg340
g341
sg343
g344
ssS'_mutable'
p351
I01
sbg4
(g11
g12
(dp352
tp353
Rp354
(dp355
S'_encoding'
p356
g349
sg28
(dp357
sg351
I00
sbtp358
sbsg38
(dp359
S'screen_name'
p360
VSample user
p361
sS'money'
p362
I50
sS'last_login'
p363
S'2014-01-09T04:56:18.899521+00:00'
p364
sS'exp'
p365
I0
sS'gmail'
p366
Vexample@gmail.com
p367
sS'id'
p368
I1
sS'date_joined'
p369
S'2014-01-09T04:53:26.775143+00:00'
p370
ssba(iutil.request_logging
SimpleRequest
p371
(dp372
g3
g4
(g5
g6
Ntp373
Rp374
(dp375
g10
(g4
(g11
g12
(dp376
Vtid
p377
(lp378
V7
p379
asVtest
p380
(lp381
VTrue
p382
asVhasnum
p383
(lp384
V4000
p385
astp386
Rp387
(dp388
g26
S'utf-8'
p389
sg28
(dp390
g377
g378
sg380
g381
sg383
g384
ssS'_mutable'
p391
I01
sbg4
(g11
g12
(dp392
tp393
Rp394
(dp395
S'_encoding'
p396
g389
sg28
(dp397
sg391
I00
sbtp398
sbsg38
(dp399
S'screen_name'
p400
VSample user
p401
sS'money'
p402
I50
sS'last_login'
p403
S'2014-01-09T04:56:18.899521+00:00'
p404
sS'exp'
p405
I0
sS'date_joined'
p406
S'2014-01-09T04:53:26.775143+00:00'
p407
sS'id'
p408
I1
sS'gmail'
p409
Vexample@gmail.com
p410
ssba(iutil.request_logging
SimpleRequest
p411
(dp412
g3
g4
(g5
g6
Ntp413
Rp414
(dp415
g10
(g4
(g11
g12
(dp416
Vtid
p417
(lp418
V14
p419
asVtest
p420
(lp421
VTrue
p422
asVhasnum
p423
(lp424
V0
p425
astp426
Rp427
(dp428
g26
S'utf-8'
p429
sg28
(dp430
g417
g418
sg420
g421
sg423
g424
ssS'_mutable'
p431
I01
sbg4
(g11
g12
(dp432
tp433
Rp434
(dp435
S'_encoding'
p436
g429
sg28
(dp437
sg431
I00
sbtp438
sbsg38
(dp439
S'screen_name'
p440
VSample user
p441
sS'money'
p442
I50
sS'last_login'
p443
S'2014-01-09T04:56:18.899521+00:00'
p444
sS'exp'
p445
I0
sS'gmail'
p446
Vexample@gmail.com
p447
sS'id'
p448
I1
sS'date_joined'
p449
S'2014-01-09T04:53:26.775143+00:00'
p450
ssba(iutil.request_logging
SimpleRequest
p451
(dp452
g3
g4
(g5
g6
Ntp453
Rp454
(dp455
g10
(g4
(g11
g12
(dp456
Vtid
p457
(lp458
V14
p459
asVtest
p460
(lp461
VTrue
p462
asVhasnum
p463
(lp464
V1000
p465
astp466
Rp467
(dp468
g26
S'utf-8'
p469
sg28
(dp470
g457
g458
sg460
g461
sg463
g464
ssS'_mutable'
p471
I01
sbg4
(g11
g12
(dp472
tp473
Rp474
(dp475
S'_encoding'
p476
g469
sg28
(dp477
sg471
I00
sbtp478
sbsg38
(dp479
S'screen_name'
p480
VSample user
p481
sS'money'
p482
I50
sS'last_login'
p483
S'2014-01-09T04:56:18.899521+00:00'
p484
sS'exp'
p485
I0
sS'date_joined'
p486
S'2014-01-09T04:53:26.775143+00:00'
p487
sS'id'
p488
I1
sS'gmail'
p489
Vexample@gmail.com
p490
ssba(iutil.request_logging
SimpleRequest
p491
(dp492
g3
g4
(g5
g6
Ntp493
Rp494
(dp495
g10
(g4
(g11
g12
(dp496
Vtid
p497
(lp498
V14
p499
asVtest
p500
(lp501
VTrue
p502
asVhasnum
p503
(lp504
V2000
p505
astp506
Rp507
(dp508
g26
S'utf-8'
p509
sg28
(dp510
g497
g498
sg500
g501
sg503
g504
ssS'_mutable'
p511
I01
sbg4
(g11
g12
(dp512
tp513
Rp514
(dp515
S'_encoding'
p516
g509
sg28
(dp517
sg511
I00
sbtp518
sbsg38
(dp519
S'screen_name'
p520
VSample user
p521
sS'money'
p522
I50
sS'last_login'
p523
S'2014-01-09T04:56:18.899521+00:00'
p524
sS'exp'
p525
I0
sS'gmail'
p526
Vexample@gmail.com
p527
sS'id'
p528
I1
sS'date_joined'
p529
S'2014-01-09T04:53:26.775143+00:00'
p530
ssba(iutil.request_logging
SimpleRequest
p531
(dp532
g3
g4
(g5
g6
Ntp533
Rp534
(dp535
g10
(g4
(g11
g12
(dp536
Vtid
p537
(lp538
V14
p539
asVtest
p540
(lp541
VTrue
p542
asVhasnum
p543
(lp544
V3000
p545
astp546
Rp547
(dp548
g26
S'utf-8'
p549
sg28
(dp550
g537
g538
sg540
g541
sg543
g544
ssS'_mutable'
p551
I01
sbg4
(g11
g12
(dp552
tp553
Rp554
(dp555
S'_encoding'
p556
g549
sg28
(dp557
sg551
I00
sbtp558
sbsg38
(dp559
S'screen_name'
p560
VSample user
p561
sS'money'
p562
I50
sS'last_login'
p563
S'2014-01-09T04:56:18.899521+00:00'
p564
sS'exp'
p565
I0
sS'date_joined'
p566
S'2014-01-09T04:53:26.775143+00:00'
p567
sS'id'
p568
I1
sS'gmail'
p569
Vexample@gmail.com
p570
ssba(iutil.request_logging
SimpleRequest
p571
(dp572
g3
g4
(g5
g6
Ntp573
Rp574
(dp575
g10
(g4
(g11
g12
(dp576
Vtid
p577
(lp578
V14
p579
asVtest
p580
(lp581
VTrue
p582
asVhasnum
p583
(lp584
V4000
p585
astp586
Rp587
(dp588
g26
S'utf-8'
p589
sg28
(dp590
g577
g578
sg580
g581
sg583
g584
ssS'_mutable'
p591
I01
sbg4
(g11
g12
(dp592
tp593
Rp594
(dp595
S'_encoding'
p596
g589
sg28
(dp597
sg591
I00
sbtp598
sbsg38
(dp599
S'screen_name'
p600
VSample user
p601
sS'money'
p602
I50
sS'last_login'
p603
S'2014-01-09T04:56:18.899521+00:00'
p604
sS'exp'
p605
I0
sS'gmail'
p606
Vexample@gmail.com
p607
sS'id'
p608
I1
sS'date_joined'
p609
S'2014-01-09T04:53:26.775143+00:00'
p610
ssba(iutil.request_logging
SimpleRequest
p611
(dp612
g3
g4
(g5
g6
Ntp613
Rp614
(dp615
g10
(g4
(g11
g12
(dp616
Vtid
p617
(lp618
V21
p619
asVtest
p620
(lp621
VTrue
p622
asVhasnum
p623
(lp624
V0
p625
astp626
Rp627
(dp628
g26
S'utf-8'
p629
sg28
(dp630
g617
g618
sg620
g621
sg623
g624
ssS'_mutable'
p631
I01
sbg4
(g11
g12
(dp632
tp633
Rp634
(dp635
S'_encoding'
p636
g629
sg28
(dp637
sg631
I00
sbtp638
sbsg38
(dp639
S'screen_name'
p640
VSample user
p641
sS'money'
p642
I50
sS'last_login'
p643
S'2014-01-09T04:56:18.899521+00:00'
p644
sS'exp'
p645
I0
sS'date_joined'
p646
S'2014-01-09T04:53:26.775143+00:00'
p647
sS'id'
p648
I1
sS'gmail'
p649
Vexample@gmail.com
p650
ssba(iutil.request_logging
SimpleRequest
p651
(dp652
g3
g4
(g5
g6
Ntp653
Rp654
(dp655
g10
(g4
(g11
g12
(dp656
Vtid
p657
(lp658
V21
p659
asVtest
p660
(lp661
VTrue
p662
asVhasnum
p663
(lp664
V1000
p665
astp666
Rp667
(dp668
g26
S'utf-8'
p669
sg28
(dp670
g657
g658
sg660
g661
sg663
g664
ssS'_mutable'
p671
I01
sbg4
(g11
g12
(dp672
tp673
Rp674
(dp675
S'_encoding'
p676
g669
sg28
(dp677
sg671
I00
sbtp678
sbsg38
(dp679
S'screen_name'
p680
VSample user
p681
sS'money'
p682
I50
sS'last_login'
p683
S'2014-01-09T04:56:18.899521+00:00'
p684
sS'exp'
p685
I0
sS'gmail'
p686
Vexample@gmail.com
p687
sS'id'
p688
I1
sS'date_joined'
p689
S'2014-01-09T04:53:26.775143+00:00'
p690
ssba(iutil.request_logging
SimpleRequest
p691
(dp692
g3
g4
(g5
g6
Ntp693
Rp694
(dp695
g10
(g4
(g11
g12
(dp696
Vtid
p697
(lp698
V21
p699
asVtest
p700
(lp701
VTrue
p702
asVhasnum
p703
(lp704
V2000
p705
astp706
Rp707
(dp708
g26
S'utf-8'
p709
sg28
(dp710
g697
g698
sg700
g701
sg703
g704
ssS'_mutable'
p711
I01
sbg4
(g11
g12
(dp712
tp713
Rp714
(dp715
S'_encoding'
p716
g709
sg28
(dp717
sg711
I00
sbtp718
sbsg38
(dp719
S'screen_name'
p720
VSample user
p721
sS'money'
p722
I50
sS'last_login'
p723
S'2014-01-09T04:56:18.899521+00:00'
p724
sS'exp'
p725
I0
sS'date_joined'
p726
S'2014-01-09T04:53:26.775143+00:00'
p727
sS'id'
p728
I1
sS'gmail'
p729
Vexample@gmail.com
p730
ssba(iutil.request_logging
SimpleRequest
p731
(dp732
g3
g4
(g5
g6
Ntp733
Rp734
(dp735
g10
(g4
(g11
g12
(dp736
Vtid
p737
(lp738
V21
p739
asVtest
p740
(lp741
VTrue
p742
asVhasnum
p743
(lp744
V3000
p745
astp746
Rp747
(dp748
g26
S'utf-8'
p749
sg28
(dp750
g737
g738
sg740
g741
sg743
g744
ssS'_mutable'
p751
I01
sbg4
(g11
g12
(dp752
tp753
Rp754
(dp755
S'_encoding'
p756
g749
sg28
(dp757
sg751
I00
sbtp758
sbsg38
(dp759
S'screen_name'
p760
VSample user
p761
sS'money'
p762
I50
sS'last_login'
p763
S'2014-01-09T04:56:18.899521+00:00'
p764
sS'exp'
p765
I0
sS'gmail'
p766
Vexample@gmail.com
p767
sS'id'
p768
I1
sS'date_joined'
p769
S'2014-01-09T04:53:26.775143+00:00'
p770
ssba(iutil.request_logging
SimpleRequest
p771
(dp772
g3
g4
(g5
g6
Ntp773
Rp774
(dp775
g10
(g4
(g11
g12
(dp776
Vtid
p777
(lp778
V21
p779
asVtest
p780
(lp781
VTrue
p782
asVhasnum
p783
(lp784
V4000
p785
astp786
Rp787
(dp788
g26
S'utf-8'
p789
sg28
(dp790
g777
g778
sg780
g781
sg783
g784
ssS'_mutable'
p791
I01
sbg4
(g11
g12
(dp792
tp793
Rp794
(dp795
S'_encoding'
p796
g789
sg28
(dp797
sg791
I00
sbtp798
sbsg38
(dp799
S'screen_name'
p800
VSample user
p801
sS'money'
p802
I50
sS'last_login'
p803
S'2014-01-09T04:56:18.899521+00:00'
p804
sS'exp'
p805
I0
sS'date_joined'
p806
S'2014-01-09T04:53:26.775143+00:00'
p807
sS'id'
p808
I1
sS'gmail'
p809
Vexample@gmail.com
p810
ssba(iutil.request_logging
SimpleRequest
p811
(dp812
g3
g4
(g5
g6
Ntp813
Rp814
(dp815
g10
(g4
(g11
g12
(dp816
Vtid
p817
(lp818
V28
p819
asVtest
p820
(lp821
VTrue
p822
asVhasnum
p823
(lp824
V0
p825
astp826
Rp827
(dp828
g26
S'utf-8'
p829
sg28
(dp830
g817
g818
sg820
g821
sg823
g824
ssS'_mutable'
p831
I01
sbg4
(g11
g12
(dp832
tp833
Rp834
(dp835
S'_encoding'
p836
g829
sg28
(dp837
sg831
I00
sbtp838
sbsg38
(dp839
S'screen_name'
p840
VSample user
p841
sS'money'
p842
I50
sS'last_login'
p843
S'2014-01-09T04:56:18.899521+00:00'
p844
sS'exp'
p845
I0
sS'gmail'
p846
Vexample@gmail.com
p847
sS'id'
p848
I1
sS'date_joined'
p849
S'2014-01-09T04:53:26.775143+00:00'
p850
ssba(iutil.request_logging
SimpleRequest
p851
(dp852
g3
g4
(g5
g6
Ntp853
Rp854
(dp855
g10
(g4
(g11
g12
(dp856
Vtid
p857
(lp858
V28
p859
asVtest
p860
(lp861
VTrue
p862
asVhasnum
p863
(lp864
V1000
p865
astp866
Rp867
(dp868
g26
S'utf-8'
p869
sg28
(dp870
g857
g858
sg860
g861
sg863
g864
ssS'_mutable'
p871
I01
sbg4
(g11
g12
(dp872
tp873
Rp874
(dp875
S'_encoding'
p876
g869
sg28
(dp877
sg871
I00
sbtp878
sbsg38
(dp879
S'screen_name'
p880
VSample user
p881
sS'money'
p882
I50
sS'last_login'
p883
S'2014-01-09T04:56:18.899521+00:00'
p884
sS'exp'
p885
I0
sS'date_joined'
p886
S'2014-01-09T04:53:26.775143+00:00'
p887
sS'id'
p888
I1
sS'gmail'
p889
Vexample@gmail.com
p890
ssba(iutil.request_logging
SimpleRequest
p891
(dp892
g3
g4
(g5
g6
Ntp893
Rp894
(dp895
g10
(g4
(g11
g12
(dp896
Vtid
p897
(lp898
V28
p899
asVtest
p900
(lp901
VTrue
p902
asVhasnum
p903
(lp904
V2000
p905
astp906
Rp907
(dp908
g26
S'utf-8'
p909
sg28
(dp910
g897
g898
sg900
g901
sg903
g904
ssS'_mutable'
p911
I01
sbg4
(g11
g12
(dp912
tp913
Rp914
(dp915
S'_encoding'
p916
g909
sg28
(dp917
sg911
I00
sbtp918
sbsg38
(dp919
S'screen_name'
p920
VSample user
p921
sS'money'
p922
I50
sS'last_login'
p923
S'2014-01-09T04:56:18.899521+00:00'
p924
sS'exp'
p925
I0
sS'gmail'
p926
Vexample@gmail.com
p927
sS'id'
p928
I1
sS'date_joined'
p929
S'2014-01-09T04:53:26.775143+00:00'
p930
ssba(iutil.request_logging
SimpleRequest
p931
(dp932
g3
g4
(g5
g6
Ntp933
Rp934
(dp935
g10
(g4
(g11
g12
(dp936
Vtid
p937
(lp938
V28
p939
asVtest
p940
(lp941
VTrue
p942
asVhasnum
p943
(lp944
V3000
p945
astp946
Rp947
(dp948
g26
S'utf-8'
p949
sg28
(dp950
g937
g938
sg940
g941
sg943
g944
ssS'_mutable'
p951
I01
sbg4
(g11
g12
(dp952
tp953
Rp954
(dp955
S'_encoding'
p956
g949
sg28
(dp957
sg951
I00
sbtp958
sbsg38
(dp959
S'screen_name'
p960
VSample user
p961
sS'money'
p962
I50
sS'last_login'
p963
S'2014-01-09T04:56:18.899521+00:00'
p964
sS'exp'
p965
I0
sS'date_joined'
p966
S'2014-01-09T04:53:26.775143+00:00'
p967
sS'id'
p968
I1
sS'gmail'
p969
Vexample@gmail.com
p970
ssba(iutil.request_logging
SimpleRequest
p971
(dp972
g3
g4
(g5
g6
Ntp973
Rp974
(dp975
g10
(g4
(g11
g12
(dp976
Vtid
p977
(lp978
V28
p979
asVtest
p980
(lp981
VTrue
p982
asVhasnum
p983
(lp984
V4000
p985
astp986
Rp987
(dp988
g26
S'utf-8'
p989
sg28
(dp990
g977
g978
sg980
g981
sg983
g984
ssS'_mutable'
p991
I01
sbg4
(g11
g12
(dp992
tp993
Rp994
(dp995
S'_encoding'
p996
g989
sg28
(dp997
sg991
I00
sbtp998
sbsg38
(dp999
S'screen_name'
p1000
VSample user
p1001
sS'money'
p1002
I50
sS'last_login'
p1003
S'2014-01-09T04:56:18.899521+00:00'
p1004
sS'exp'
p1005
I0
sS'gmail'
p1006
Vexample@gmail.com
p1007
sS'id'
p1008
I1
sS'date_joined'
p1009
S'2014-01-09T04:53:26.775143+00:00'
p1010
ssba(iutil.request_logging
SimpleRequest
p1011
(dp1012
g3
g4
(g5
g6
Ntp1013
Rp1014
(dp1015
g10
(g4
(g11
g12
(dp1016
Vtid
p1017
(lp1018
V35
p1019
asVtest
p1020
(lp1021
VTrue
p1022
asVhasnum
p1023
(lp1024
V0
p1025
astp1026
Rp1027
(dp1028
g26
S'utf-8'
p1029
sg28
(dp1030
g1017
g1018
sg1020
g1021
sg1023
g1024
ssS'_mutable'
p1031
I01
sbg4
(g11
g12
(dp1032
tp1033
Rp1034
(dp1035
S'_encoding'
p1036
g1029
sg28
(dp1037
sg1031
I00
sbtp1038
sbsg38
(dp1039
S'screen_name'
p1040
VSample user
p1041
sS'money'
p1042
I50
sS'last_login'
p1043
S'2014-01-09T04:56:18.899521+00:00'
p1044
sS'exp'
p1045
I0
sS'date_joined'
p1046
S'2014-01-09T04:53:26.775143+00:00'
p1047
sS'id'
p1048
I1
sS'gmail'
p1049
Vexample@gmail.com
p1050
ssba(iutil.request_logging
SimpleRequest
p1051
(dp1052
g3
g4
(g5
g6
Ntp1053
Rp1054
(dp1055
g10
(g4
(g11
g12
(dp1056
Vtid
p1057
(lp1058
V35
p1059
asVtest
p1060
(lp1061
VTrue
p1062
asVhasnum
p1063
(lp1064
V1000
p1065
astp1066
Rp1067
(dp1068
g26
S'utf-8'
p1069
sg28
(dp1070
g1057
g1058
sg1060
g1061
sg1063
g1064
ssS'_mutable'
p1071
I01
sbg4
(g11
g12
(dp1072
tp1073
Rp1074
(dp1075
S'_encoding'
p1076
g1069
sg28
(dp1077
sg1071
I00
sbtp1078
sbsg38
(dp1079
S'screen_name'
p1080
VSample user
p1081
sS'money'
p1082
I50
sS'last_login'
p1083
S'2014-01-09T04:56:18.899521+00:00'
p1084
sS'exp'
p1085
I0
sS'gmail'
p1086
Vexample@gmail.com
p1087
sS'id'
p1088
I1
sS'date_joined'
p1089
S'2014-01-09T04:53:26.775143+00:00'
p1090
ssba(iutil.request_logging
SimpleRequest
p1091
(dp1092
g3
g4
(g5
g6
Ntp1093
Rp1094
(dp1095
g10
(g4
(g11
g12
(dp1096
Vtid
p1097
(lp1098
V35
p1099
asVtest
p1100
(lp1101
VTrue
p1102
asVhasnum
p1103
(lp1104
V2000
p1105
astp1106
Rp1107
(dp1108
g26
S'utf-8'
p1109
sg28
(dp1110
g1097
g1098
sg1100
g1101
sg1103
g1104
ssS'_mutable'
p1111
I01
sbg4
(g11
g12
(dp1112
tp1113
Rp1114
(dp1115
S'_encoding'
p1116
g1109
sg28
(dp1117
sg1111
I00
sbtp1118
sbsg38
(dp1119
S'screen_name'
p1120
VSample user
p1121
sS'money'
p1122
I50
sS'last_login'
p1123
S'2014-01-09T04:56:18.899521+00:00'
p1124
sS'exp'
p1125
I0
sS'date_joined'
p1126
S'2014-01-09T04:53:26.775143+00:00'
p1127
sS'id'
p1128
I1
sS'gmail'
p1129
Vexample@gmail.com
p1130
ssba(iutil.request_logging
SimpleRequest
p1131
(dp1132
g3
g4
(g5
g6
Ntp1133
Rp1134
(dp1135
g10
(g4
(g11
g12
(dp1136
Vtid
p1137
(lp1138
V35
p1139
asVtest
p1140
(lp1141
VTrue
p1142
asVhasnum
p1143
(lp1144
V3000
p1145
astp1146
Rp1147
(dp1148
g26
S'utf-8'
p1149
sg28
(dp1150
g1137
g1138
sg1140
g1141
sg1143
g1144
ssS'_mutable'
p1151
I01
sbg4
(g11
g12
(dp1152
tp1153
Rp1154
(dp1155
S'_encoding'
p1156
g1149
sg28
(dp1157
sg1151
I00
sbtp1158
sbsg38
(dp1159
S'screen_name'
p1160
VSample user
p1161
sS'money'
p1162
I50
sS'last_login'
p1163
S'2014-01-09T04:56:18.899521+00:00'
p1164
sS'exp'
p1165
I0
sS'gmail'
p1166
Vexample@gmail.com
p1167
sS'id'
p1168
I1
sS'date_joined'
p1169
S'2014-01-09T04:53:26.775143+00:00'
p1170
ssba(iutil.request_logging
SimpleRequest
p1171
(dp1172
g3
g4
(g5
g6
Ntp1173
Rp1174
(dp1175
g10
(g4
(g11
g12
(dp1176
Vtid
p1177
(lp1178
V35
p1179
asVtest
p1180
(lp1181
VTrue
p1182
asVhasnum
p1183
(lp1184
V4000
p1185
astp1186
Rp1187
(dp1188
g26
S'utf-8'
p1189
sg28
(dp1190
g1177
g1178
sg1180
g1181
sg1183
g1184
ssS'_mutable'
p1191
I01
sbg4
(g11
g12
(dp1192
tp1193
Rp1194
(dp1195
S'_encoding'
p1196
g1189
sg28
(dp1197
sg1191
I00
sbtp1198
sbsg38
(dp1199
S'screen_name'
p1200
VSample user
p1201
sS'money'
p1202
I50
sS'last_login'
p1203
S'2014-01-09T04:56:18.899521+00:00'
p1204
sS'exp'
p1205
I0
sS'date_joined'
p1206
S'2014-01-09T04:53:26.775143+00:00'
p1207
sS'id'
p1208
I1
sS'gmail'
p1209
Vexample@gmail.com
p1210
ssba(iutil.request_logging
SimpleRequest
p1211
(dp1212
g3
g4
(g5
g6
Ntp1213
Rp1214
(dp1215
g10
(g4
(g11
g12
(dp1216
Vtid
p1217
(lp1218
V42
p1219
asVtest
p1220
(lp1221
VTrue
p1222
asVhasnum
p1223
(lp1224
V0
p1225
astp1226
Rp1227
(dp1228
g26
S'utf-8'
p1229
sg28
(dp1230
g1217
g1218
sg1220
g1221
sg1223
g1224
ssS'_mutable'
p1231
I01
sbg4
(g11
g12
(dp1232
tp1233
Rp1234
(dp1235
S'_encoding'
p1236
g1229
sg28
(dp1237
sg1231
I00
sbtp1238
sbsg38
(dp1239
S'screen_name'
p1240
VSample user
p1241
sS'money'
p1242
I50
sS'last_login'
p1243
S'2014-01-09T04:56:18.899521+00:00'
p1244
sS'exp'
p1245
I0
sS'gmail'
p1246
Vexample@gmail.com
p1247
sS'id'
p1248
I1
sS'date_joined'
p1249
S'2014-01-09T04:53:26.775143+00:00'
p1250
ssba(iutil.request_logging
SimpleRequest
p1251
(dp1252
g3
g4
(g5
g6
Ntp1253
Rp1254
(dp1255
g10
(g4
(g11
g12
(dp1256
Vtid
p1257
(lp1258
V42
p1259
asVtest
p1260
(lp1261
VTrue
p1262
asVhasnum
p1263
(lp1264
V1000
p1265
astp1266
Rp1267
(dp1268
g26
S'utf-8'
p1269
sg28
(dp1270
g1257
g1258
sg1260
g1261
sg1263
g1264
ssS'_mutable'
p1271
I01
sbg4
(g11
g12
(dp1272
tp1273
Rp1274
(dp1275
S'_encoding'
p1276
g1269
sg28
(dp1277
sg1271
I00
sbtp1278
sbsg38
(dp1279
S'screen_name'
p1280
VSample user
p1281
sS'money'
p1282
I50
sS'last_login'
p1283
S'2014-01-09T04:56:18.899521+00:00'
p1284
sS'exp'
p1285
I0
sS'date_joined'
p1286
S'2014-01-09T04:53:26.775143+00:00'
p1287
sS'id'
p1288
I1
sS'gmail'
p1289
Vexample@gmail.com
p1290
ssba(iutil.request_logging
SimpleRequest
p1291
(dp1292
g3
g4
(g5
g6
Ntp1293
Rp1294
(dp1295
g10
(g4
(g11
g12
(dp1296
Vtid
p1297
(lp1298
V42
p1299
asVtest
p1300
(lp1301
VTrue
p1302
asVhasnum
p1303
(lp1304
V2000
p1305
astp1306
Rp1307
(dp1308
g26
S'utf-8'
p1309
sg28
(dp1310
g1297
g1298
sg1300
g1301
sg1303
g1304
ssS'_mutable'
p1311
I01
sbg4
(g11
g12
(dp1312
tp1313
Rp1314
(dp1315
S'_encoding'
p1316
g1309
sg28
(dp1317
sg1311
I00
sbtp1318
sbsg38
(dp1319
S'screen_name'
p1320
VSample user
p1321
sS'money'
p1322
I50
sS'last_login'
p1323
S'2014-01-09T04:56:18.899521+00:00'
p1324
sS'exp'
p1325
I0
sS'gmail'
p1326
Vexample@gmail.com
p1327
sS'id'
p1328
I1
sS'date_joined'
p1329
S'2014-01-09T04:53:26.775143+00:00'
p1330
ssba(iutil.request_logging
SimpleRequest
p1331
(dp1332
g3
g4
(g5
g6
Ntp1333
Rp1334
(dp1335
g10
(g4
(g11
g12
(dp1336
Vtid
p1337
(lp1338
V42
p1339
asVtest
p1340
(lp1341
VTrue
p1342
asVhasnum
p1343
(lp1344
V3000
p1345
astp1346
Rp1347
(dp1348
g26
S'utf-8'
p1349
sg28
(dp1350
g1337
g1338
sg1340
g1341
sg1343
g1344
ssS'_mutable'
p1351
I01
sbg4
(g11
g12
(dp1352
tp1353
Rp1354
(dp1355
S'_encoding'
p1356
g1349
sg28
(dp1357
sg1351
I00
sbtp1358
sbsg38
(dp1359
S'screen_name'
p1360
VSample user
p1361
sS'money'
p1362
I50
sS'last_login'
p1363
S'2014-01-09T04:56:18.899521+00:00'
p1364
sS'exp'
p1365
I0
sS'date_joined'
p1366
S'2014-01-09T04:53:26.775143+00:00'
p1367
sS'id'
p1368
I1
sS'gmail'
p1369
Vexample@gmail.com
p1370
ssba(iutil.request_logging
SimpleRequest
p1371
(dp1372
g3
g4
(g5
g6
Ntp1373
Rp1374
(dp1375
g10
(g4
(g11
g12
(dp1376
Vtid
p1377
(lp1378
V42
p1379
asVtest
p1380
(lp1381
VTrue
p1382
asVhasnum
p1383
(lp1384
V4000
p1385
astp1386
Rp1387
(dp1388
g26
S'utf-8'
p1389
sg28
(dp1390
g1377
g1378
sg1380
g1381
sg1383
g1384
ssS'_mutable'
p1391
I01
sbg4
(g11
g12
(dp1392
tp1393
Rp1394
(dp1395
S'_encoding'
p1396
g1389
sg28
(dp1397
sg1391
I00
sbtp1398
sbsg38
(dp1399
S'screen_name'
p1400
VSample user
p1401
sS'money'
p1402
I50
sS'last_login'
p1403
S'2014-01-09T04:56:18.899521+00:00'
p1404
sS'exp'
p1405
I0
sS'gmail'
p1406
Vexample@gmail.com
p1407
sS'id'
p1408
I1
sS'date_joined'
p1409
S'2014-01-09T04:53:26.775143+00:00'
p1410
ssba(iutil.request_logging
SimpleRequest
p1411
(dp1412
g3
g4
(g5
g6
Ntp1413
Rp1414
(dp1415
g10
(g4
(g11
g12
(dp1416
Vtid
p1417
(lp1418
V49
p1419
asVtest
p1420
(lp1421
VTrue
p1422
asVhasnum
p1423
(lp1424
V0
p1425
astp1426
Rp1427
(dp1428
g26
S'utf-8'
p1429
sg28
(dp1430
g1417
g1418
sg1420
g1421
sg1423
g1424
ssS'_mutable'
p1431
I01
sbg4
(g11
g12
(dp1432
tp1433
Rp1434
(dp1435
S'_encoding'
p1436
g1429
sg28
(dp1437
sg1431
I00
sbtp1438
sbsg38
(dp1439
S'screen_name'
p1440
VSample user
p1441
sS'money'
p1442
I50
sS'last_login'
p1443
S'2014-01-09T04:56:18.899521+00:00'
p1444
sS'exp'
p1445
I0
sS'date_joined'
p1446
S'2014-01-09T04:53:26.775143+00:00'
p1447
sS'id'
p1448
I1
sS'gmail'
p1449
Vexample@gmail.com
p1450
ssba(iutil.request_logging
SimpleRequest
p1451
(dp1452
g3
g4
(g5
g6
Ntp1453
Rp1454
(dp1455
g10
(g4
(g11
g12
(dp1456
Vtid
p1457
(lp1458
V49
p1459
asVtest
p1460
(lp1461
VTrue
p1462
asVhasnum
p1463
(lp1464
V1000
p1465
astp1466
Rp1467
(dp1468
g26
S'utf-8'
p1469
sg28
(dp1470
g1457
g1458
sg1460
g1461
sg1463
g1464
ssS'_mutable'
p1471
I01
sbg4
(g11
g12
(dp1472
tp1473
Rp1474
(dp1475
S'_encoding'
p1476
g1469
sg28
(dp1477
sg1471
I00
sbtp1478
sbsg38
(dp1479
S'screen_name'
p1480
VSample user
p1481
sS'money'
p1482
I50
sS'last_login'
p1483
S'2014-01-09T04:56:18.899521+00:00'
p1484
sS'exp'
p1485
I0
sS'gmail'
p1486
Vexample@gmail.com
p1487
sS'id'
p1488
I1
sS'date_joined'
p1489
S'2014-01-09T04:53:26.775143+00:00'
p1490
ssba(iutil.request_logging
SimpleRequest
p1491
(dp1492
g3
g4
(g5
g6
Ntp1493
Rp1494
(dp1495
g10
(g4
(g11
g12
(dp1496
Vtid
p1497
(lp1498
V49
p1499
asVtest
p1500
(lp1501
VTrue
p1502
asVhasnum
p1503
(lp1504
V2000
p1505
astp1506
Rp1507
(dp1508
g26
S'utf-8'
p1509
sg28
(dp1510
g1497
g1498
sg1500
g1501
sg1503
g1504
ssS'_mutable'
p1511
I01
sbg4
(g11
g12
(dp1512
tp1513
Rp1514
(dp1515
S'_encoding'
p1516
g1509
sg28
(dp1517
sg1511
I00
sbtp1518
sbsg38
(dp1519
S'screen_name'
p1520
VSample user
p1521
sS'money'
p1522
I50
sS'last_login'
p1523
S'2014-01-09T04:56:18.899521+00:00'
p1524
sS'exp'
p1525
I0
sS'date_joined'
p1526
S'2014-01-09T04:53:26.775143+00:00'
p1527
sS'id'
p1528
I1
sS'gmail'
p1529
Vexample@gmail.com
p1530
ssba(iutil.request_logging
SimpleRequest
p1531
(dp1532
g3
g4
(g5
g6
Ntp1533
Rp1534
(dp1535
g10
(g4
(g11
g12
(dp1536
Vtid
p1537
(lp1538
V49
p1539
asVtest
p1540
(lp1541
VTrue
p1542
asVhasnum
p1543
(lp1544
V3000
p1545
astp1546
Rp1547
(dp1548
g26
S'utf-8'
p1549
sg28
(dp1550
g1537
g1538
sg1540
g1541
sg1543
g1544
ssS'_mutable'
p1551
I01
sbg4
(g11
g12
(dp1552
tp1553
Rp1554
(dp1555
S'_encoding'
p1556
g1549
sg28
(dp1557
sg1551
I00
sbtp1558
sbsg38
(dp1559
S'screen_name'
p1560
VSample user
p1561
sS'money'
p1562
I50
sS'last_login'
p1563
S'2014-01-09T04:56:18.899521+00:00'
p1564
sS'exp'
p1565
I0
sS'gmail'
p1566
Vexample@gmail.com
p1567
sS'id'
p1568
I1
sS'date_joined'
p1569
S'2014-01-09T04:53:26.775143+00:00'
p1570
ssba(iutil.request_logging
SimpleRequest
p1571
(dp1572
g3
g4
(g5
g6
Ntp1573
Rp1574
(dp1575
g10
(g4
(g11
g12
(dp1576
Vtid
p1577
(lp1578
V49
p1579
asVtest
p1580
(lp1581
VTrue
p1582
asVhasnum
p1583
(lp1584
V4000
p1585
astp1586
Rp1587
(dp1588
g26
S'utf-8'
p1589
sg28
(dp1590
g1577
g1578
sg1580
g1581
sg1583
g1584
ssS'_mutable'
p1591
I01
sbg4
(g11
g12
(dp1592
tp1593
Rp1594
(dp1595
S'_encoding'
p1596
g1589
sg28
(dp1597
sg1591
I00
sbtp1598
sbsg38
(dp1599
S'screen_name'
p1600
VSample user
p1601
sS'money'
p1602
I50
sS'last_login'
p1603
S'2014-01-09T04:56:18.899521+00:00'
p1604
sS'exp'
p1605
I0
sS'date_joined'
p1606
S'2014-01-09T04:53:26.775143+00:00'
p1607
sS'id'
p1608
I1
sS'gmail'
p1609
Vexample@gmail.com
p1610
ssba(iutil.request_logging
SimpleRequest
p1611
(dp1612
g3
g4
(g5
g6
Ntp1613
Rp1614
(dp1615
g10
(g4
(g11
g12
(dp1616
Vtid
p1617
(lp1618
V56
p1619
asVtest
p1620
(lp1621
VTrue
p1622
asVhasnum
p1623
(lp1624
V0
p1625
astp1626
Rp1627
(dp1628
g26
S'utf-8'
p1629
sg28
(dp1630
g1617
g1618
sg1620
g1621
sg1623
g1624
ssS'_mutable'
p1631
I01
sbg4
(g11
g12
(dp1632
tp1633
Rp1634
(dp1635
S'_encoding'
p1636
g1629
sg28
(dp1637
sg1631
I00
sbtp1638
sbsg38
(dp1639
S'screen_name'
p1640
VSample user
p1641
sS'money'
p1642
I50
sS'last_login'
p1643
S'2014-01-09T04:56:18.899521+00:00'
p1644
sS'exp'
p1645
I0
sS'gmail'
p1646
Vexample@gmail.com
p1647
sS'id'
p1648
I1
sS'date_joined'
p1649
S'2014-01-09T04:53:26.775143+00:00'
p1650
ssba(iutil.request_logging
SimpleRequest
p1651
(dp1652
g3
g4
(g5
g6
Ntp1653
Rp1654
(dp1655
g10
(g4
(g11
g12
(dp1656
Vtid
p1657
(lp1658
V56
p1659
asVtest
p1660
(lp1661
VTrue
p1662
asVhasnum
p1663
(lp1664
V1000
p1665
astp1666
Rp1667
(dp1668
g26
S'utf-8'
p1669
sg28
(dp1670
g1657
g1658
sg1660
g1661
sg1663
g1664
ssS'_mutable'
p1671
I01
sbg4
(g11
g12
(dp1672
tp1673
Rp1674
(dp1675
S'_encoding'
p1676
g1669
sg28
(dp1677
sg1671
I00
sbtp1678
sbsg38
(dp1679
S'screen_name'
p1680
VSample user
p1681
sS'money'
p1682
I50
sS'last_login'
p1683
S'2014-01-09T04:56:18.899521+00:00'
p1684
sS'exp'
p1685
I0
sS'date_joined'
p1686
S'2014-01-09T04:53:26.775143+00:00'
p1687
sS'id'
p1688
I1
sS'gmail'
p1689
Vexample@gmail.com
p1690
ssba(iutil.request_logging
SimpleRequest
p1691
(dp1692
g3
g4
(g5
g6
Ntp1693
Rp1694
(dp1695
g10
(g4
(g11
g12
(dp1696
Vtid
p1697
(lp1698
V56
p1699
asVtest
p1700
(lp1701
VTrue
p1702
asVhasnum
p1703
(lp1704
V2000
p1705
astp1706
Rp1707
(dp1708
g26
S'utf-8'
p1709
sg28
(dp1710
g1697
g1698
sg1700
g1701
sg1703
g1704
ssS'_mutable'
p1711
I01
sbg4
(g11
g12
(dp1712
tp1713
Rp1714
(dp1715
S'_encoding'
p1716
g1709
sg28
(dp1717
sg1711
I00
sbtp1718
sbsg38
(dp1719
S'screen_name'
p1720
VSample user
p1721
sS'money'
p1722
I50
sS'last_login'
p1723
S'2014-01-09T04:56:18.899521+00:00'
p1724
sS'exp'
p1725
I0
sS'gmail'
p1726
Vexample@gmail.com
p1727
sS'id'
p1728
I1
sS'date_joined'
p1729
S'2014-01-09T04:53:26.775143+00:00'
p1730
ssba(iutil.request_logging
SimpleRequest
p1731
(dp1732
g3
g4
(g5
g6
Ntp1733
Rp1734
(dp1735
g10
(g4
(g11
g12
(dp1736
Vtid
p1737
(lp1738
V56
p1739
asVtest
p1740
(lp1741
VTrue
p1742
asVhasnum
p1743
(lp1744
V3000
p1745
astp1746
Rp1747
(dp1748
g26
S'utf-8'
p1749
sg28
(dp1750
g1737
g1738
sg1740
g1741
sg1743
g1744
ssS'_mutable'
p1751
I01
sbg4
(g11
g12
(dp1752
tp1753
Rp1754
(dp1755
S'_encoding'
p1756
g1749
sg28
(dp1757
sg1751
I00
sbtp1758
sbsg38
(dp1759
S'screen_name'
p1760
VSample user
p1761
sS'money'
p1762
I50
sS'last_login'
p1763
S'2014-01-09T04:56:18.899521+00:00'
p1764
sS'exp'
p1765
I0
sS'date_joined'
p1766
S'2014-01-09T04:53:26.775143+00:00'
p1767
sS'id'
p1768
I1
sS'gmail'
p1769
Vexample@gmail.com
p1770
ssba(iutil.request_logging
SimpleRequest
p1771
(dp1772
g3
g4
(g5
g6
Ntp1773
Rp1774
(dp1775
g10
(g4
(g11
g12
(dp1776
Vtid
p1777
(lp1778
V56
p1779
asVtest
p1780
(lp1781
VTrue
p1782
asVhasnum
p1783
(lp1784
V4000
p1785
astp1786
Rp1787
(dp1788
g26
S'utf-8'
p1789
sg28
(dp1790
g1777
g1778
sg1780
g1781
sg1783
g1784
ssS'_mutable'
p1791
I01
sbg4
(g11
g12
(dp1792
tp1793
Rp1794
(dp1795
g26
g1789
sg28
(dp1796
sg1791
I00
sbtp1797
sbsg38
(dp1798
S'last_login'
p1799
S'2014-01-09T04:56:18.899521+00:00'
p1800
sS'screen_name'
p1801
VSample user
p1802
sS'exp'
p1803
I0
sS'money'
p1804
I50
sS'gmail'
p1805
Vexample@gmail.com
p1806
sS'id'
p1807
I1
sS'date_joined'
p1808
S'2014-01-09T04:53:26.775143+00:00'
p1809
ssba.