(lp0
(iutil.request_logging
SimpleRequest
p1
(dp2
S'REQUEST'
p3
ccopy_reg
_reconstructor
p4
(cdjango.utils.datastructures
MergeDict
p5
c__builtin__
object
p6
Ntp7
Rp8
(dp9
S'dicts'
p10
(g4
(cdjango.http.request
QueryDict
p11
c__builtin__
dict
p12
(dp13
Vtid
p14
(lp15
V0
p16
asVtest
p17
(lp18
VTrue
p19
asVhasnum
p20
(lp21
V0
p22
astp23
Rp24
(dp25
S'_encoding'
p26
S'utf-8'
p27
sS'_data'
p28
(dp29
g14
g15
sg17
g18
sg20
g21
ssS'_mutable'
p30
I01
sbg4
(g11
g12
(dp31
tp32
Rp33
(dp34
S'_encoding'
p35
g27
sg28
(dp36
sg30
I00
sbtp37
sbsS'user'
p38
(dp39
S'screen_name'
p40
VSample user
p41
sS'money'
p42
I50
sS'last_login'
p43
S'2014-01-09T04:56:18.899521+00:00'
p44
sS'exp'
p45
I0
sS'date_joined'
p46
S'2014-01-09T04:53:26.775143+00:00'
p47
sS'id'
p48
I1
sS'gmail'
p49
Vexample@gmail.com
p50
ssba(iutil.request_logging
SimpleRequest
p51
(dp52
g3
g4
(g5
g6
Ntp53
Rp54
(dp55
g10
(g4
(g11
g12
(dp56
Vtid
p57
(lp58
V0
p59
asVtest
p60
(lp61
VTrue
p62
asVhasnum
p63
(lp64
V100
p65
astp66
Rp67
(dp68
g26
S'utf-8'
p69
sg28
(dp70
g57
g58
sg60
g61
sg63
g64
ssS'_mutable'
p71
I01
sbg4
(g11
g12
(dp72
tp73
Rp74
(dp75
S'_encoding'
p76
g69
sg28
(dp77
sg71
I00
sbtp78
sbsg38
(dp79
S'screen_name'
p80
VSample user
p81
sS'money'
p82
I50
sS'last_login'
p83
S'2014-01-09T04:56:18.899521+00:00'
p84
sS'exp'
p85
I0
sS'gmail'
p86
Vexample@gmail.com
p87
sS'id'
p88
I1
sS'date_joined'
p89
S'2014-01-09T04:53:26.775143+00:00'
p90
ssba(iutil.request_logging
SimpleRequest
p91
(dp92
g3
g4
(g5
g6
Ntp93
Rp94
(dp95
g10
(g4
(g11
g12
(dp96
Vtid
p97
(lp98
V0
p99
asVtest
p100
(lp101
VTrue
p102
asVhasnum
p103
(lp104
V200
p105
astp106
Rp107
(dp108
g26
S'utf-8'
p109
sg28
(dp110
g97
g98
sg100
g101
sg103
g104
ssS'_mutable'
p111
I01
sbg4
(g11
g12
(dp112
tp113
Rp114
(dp115
S'_encoding'
p116
g109
sg28
(dp117
sg111
I00
sbtp118
sbsg38
(dp119
S'screen_name'
p120
VSample user
p121
sS'money'
p122
I50
sS'last_login'
p123
S'2014-01-09T04:56:18.899521+00:00'
p124
sS'exp'
p125
I0
sS'date_joined'
p126
S'2014-01-09T04:53:26.775143+00:00'
p127
sS'id'
p128
I1
sS'gmail'
p129
Vexample@gmail.com
p130
ssba(iutil.request_logging
SimpleRequest
p131
(dp132
g3
g4
(g5
g6
Ntp133
Rp134
(dp135
g10
(g4
(g11
g12
(dp136
Vtid
p137
(lp138
V0
p139
asVtest
p140
(lp141
VTrue
p142
asVhasnum
p143
(lp144
V300
p145
astp146
Rp147
(dp148
g26
S'utf-8'
p149
sg28
(dp150
g137
g138
sg140
g141
sg143
g144
ssS'_mutable'
p151
I01
sbg4
(g11
g12
(dp152
tp153
Rp154
(dp155
S'_encoding'
p156
g149
sg28
(dp157
sg151
I00
sbtp158
sbsg38
(dp159
S'screen_name'
p160
VSample user
p161
sS'money'
p162
I50
sS'last_login'
p163
S'2014-01-09T04:56:18.899521+00:00'
p164
sS'exp'
p165
I0
sS'gmail'
p166
Vexample@gmail.com
p167
sS'id'
p168
I1
sS'date_joined'
p169
S'2014-01-09T04:53:26.775143+00:00'
p170
ssba(iutil.request_logging
SimpleRequest
p171
(dp172
g3
g4
(g5
g6
Ntp173
Rp174
(dp175
g10
(g4
(g11
g12
(dp176
Vtid
p177
(lp178
V0
p179
asVtest
p180
(lp181
VTrue
p182
asVhasnum
p183
(lp184
V400
p185
astp186
Rp187
(dp188
g26
S'utf-8'
p189
sg28
(dp190
g177
g178
sg180
g181
sg183
g184
ssS'_mutable'
p191
I01
sbg4
(g11
g12
(dp192
tp193
Rp194
(dp195
S'_encoding'
p196
g189
sg28
(dp197
sg191
I00
sbtp198
sbsg38
(dp199
S'screen_name'
p200
VSample user
p201
sS'money'
p202
I50
sS'last_login'
p203
S'2014-01-09T04:56:18.899521+00:00'
p204
sS'exp'
p205
I0
sS'date_joined'
p206
S'2014-01-09T04:53:26.775143+00:00'
p207
sS'id'
p208
I1
sS'gmail'
p209
Vexample@gmail.com
p210
ssba(iutil.request_logging
SimpleRequest
p211
(dp212
g3
g4
(g5
g6
Ntp213
Rp214
(dp215
g10
(g4
(g11
g12
(dp216
Vtid
p217
(lp218
V0
p219
asVtest
p220
(lp221
VTrue
p222
asVhasnum
p223
(lp224
V500
p225
astp226
Rp227
(dp228
g26
S'utf-8'
p229
sg28
(dp230
g217
g218
sg220
g221
sg223
g224
ssS'_mutable'
p231
I01
sbg4
(g11
g12
(dp232
tp233
Rp234
(dp235
S'_encoding'
p236
g229
sg28
(dp237
sg231
I00
sbtp238
sbsg38
(dp239
S'screen_name'
p240
VSample user
p241
sS'money'
p242
I50
sS'last_login'
p243
S'2014-01-09T04:56:18.899521+00:00'
p244
sS'exp'
p245
I0
sS'gmail'
p246
Vexample@gmail.com
p247
sS'id'
p248
I1
sS'date_joined'
p249
S'2014-01-09T04:53:26.775143+00:00'
p250
ssba(iutil.request_logging
SimpleRequest
p251
(dp252
g3
g4
(g5
g6
Ntp253
Rp254
(dp255
g10
(g4
(g11
g12
(dp256
Vtid
p257
(lp258
V0
p259
asVtest
p260
(lp261
VTrue
p262
asVhasnum
p263
(lp264
V600
p265
astp266
Rp267
(dp268
g26
S'utf-8'
p269
sg28
(dp270
g257
g258
sg260
g261
sg263
g264
ssS'_mutable'
p271
I01
sbg4
(g11
g12
(dp272
tp273
Rp274
(dp275
S'_encoding'
p276
g269
sg28
(dp277
sg271
I00
sbtp278
sbsg38
(dp279
S'screen_name'
p280
VSample user
p281
sS'money'
p282
I50
sS'last_login'
p283
S'2014-01-09T04:56:18.899521+00:00'
p284
sS'exp'
p285
I0
sS'date_joined'
p286
S'2014-01-09T04:53:26.775143+00:00'
p287
sS'id'
p288
I1
sS'gmail'
p289
Vexample@gmail.com
p290
ssba(iutil.request_logging
SimpleRequest
p291
(dp292
g3
g4
(g5
g6
Ntp293
Rp294
(dp295
g10
(g4
(g11
g12
(dp296
Vtid
p297
(lp298
V0
p299
asVtest
p300
(lp301
VTrue
p302
asVhasnum
p303
(lp304
V700
p305
astp306
Rp307
(dp308
g26
S'utf-8'
p309
sg28
(dp310
g297
g298
sg300
g301
sg303
g304
ssS'_mutable'
p311
I01
sbg4
(g11
g12
(dp312
tp313
Rp314
(dp315
S'_encoding'
p316
g309
sg28
(dp317
sg311
I00
sbtp318
sbsg38
(dp319
S'screen_name'
p320
VSample user
p321
sS'money'
p322
I50
sS'last_login'
p323
S'2014-01-09T04:56:18.899521+00:00'
p324
sS'exp'
p325
I0
sS'gmail'
p326
Vexample@gmail.com
p327
sS'id'
p328
I1
sS'date_joined'
p329
S'2014-01-09T04:53:26.775143+00:00'
p330
ssba(iutil.request_logging
SimpleRequest
p331
(dp332
g3
g4
(g5
g6
Ntp333
Rp334
(dp335
g10
(g4
(g11
g12
(dp336
Vtid
p337
(lp338
V0
p339
asVtest
p340
(lp341
VTrue
p342
asVhasnum
p343
(lp344
V800
p345
astp346
Rp347
(dp348
g26
S'utf-8'
p349
sg28
(dp350
g337
g338
sg340
g341
sg343
g344
ssS'_mutable'
p351
I01
sbg4
(g11
g12
(dp352
tp353
Rp354
(dp355
S'_encoding'
p356
g349
sg28
(dp357
sg351
I00
sbtp358
sbsg38
(dp359
S'screen_name'
p360
VSample user
p361
sS'money'
p362
I50
sS'last_login'
p363
S'2014-01-09T04:56:18.899521+00:00'
p364
sS'exp'
p365
I0
sS'date_joined'
p366
S'2014-01-09T04:53:26.775143+00:00'
p367
sS'id'
p368
I1
sS'gmail'
p369
Vexample@gmail.com
p370
ssba(iutil.request_logging
SimpleRequest
p371
(dp372
g3
g4
(g5
g6
Ntp373
Rp374
(dp375
g10
(g4
(g11
g12
(dp376
Vtid
p377
(lp378
V0
p379
asVtest
p380
(lp381
VTrue
p382
asVhasnum
p383
(lp384
V900
p385
astp386
Rp387
(dp388
g26
S'utf-8'
p389
sg28
(dp390
g377
g378
sg380
g381
sg383
g384
ssS'_mutable'
p391
I01
sbg4
(g11
g12
(dp392
tp393
Rp394
(dp395
S'_encoding'
p396
g389
sg28
(dp397
sg391
I00
sbtp398
sbsg38
(dp399
S'screen_name'
p400
VSample user
p401
sS'money'
p402
I50
sS'last_login'
p403
S'2014-01-09T04:56:18.899521+00:00'
p404
sS'exp'
p405
I0
sS'gmail'
p406
Vexample@gmail.com
p407
sS'id'
p408
I1
sS'date_joined'
p409
S'2014-01-09T04:53:26.775143+00:00'
p410
ssba(iutil.request_logging
SimpleRequest
p411
(dp412
g3
g4
(g5
g6
Ntp413
Rp414
(dp415
g10
(g4
(g11
g12
(dp416
Vtid
p417
(lp418
V3
p419
asVtest
p420
(lp421
VTrue
p422
asVhasnum
p423
(lp424
V0
p425
astp426
Rp427
(dp428
g26
S'utf-8'
p429
sg28
(dp430
g417
g418
sg420
g421
sg423
g424
ssS'_mutable'
p431
I01
sbg4
(g11
g12
(dp432
tp433
Rp434
(dp435
S'_encoding'
p436
g429
sg28
(dp437
sg431
I00
sbtp438
sbsg38
(dp439
S'screen_name'
p440
VSample user
p441
sS'money'
p442
I50
sS'last_login'
p443
S'2014-01-09T04:56:18.899521+00:00'
p444
sS'exp'
p445
I0
sS'date_joined'
p446
S'2014-01-09T04:53:26.775143+00:00'
p447
sS'id'
p448
I1
sS'gmail'
p449
Vexample@gmail.com
p450
ssba(iutil.request_logging
SimpleRequest
p451
(dp452
g3
g4
(g5
g6
Ntp453
Rp454
(dp455
g10
(g4
(g11
g12
(dp456
Vtid
p457
(lp458
V3
p459
asVtest
p460
(lp461
VTrue
p462
asVhasnum
p463
(lp464
V100
p465
astp466
Rp467
(dp468
g26
S'utf-8'
p469
sg28
(dp470
g457
g458
sg460
g461
sg463
g464
ssS'_mutable'
p471
I01
sbg4
(g11
g12
(dp472
tp473
Rp474
(dp475
S'_encoding'
p476
g469
sg28
(dp477
sg471
I00
sbtp478
sbsg38
(dp479
S'screen_name'
p480
VSample user
p481
sS'money'
p482
I50
sS'last_login'
p483
S'2014-01-09T04:56:18.899521+00:00'
p484
sS'exp'
p485
I0
sS'gmail'
p486
Vexample@gmail.com
p487
sS'id'
p488
I1
sS'date_joined'
p489
S'2014-01-09T04:53:26.775143+00:00'
p490
ssba(iutil.request_logging
SimpleRequest
p491
(dp492
g3
g4
(g5
g6
Ntp493
Rp494
(dp495
g10
(g4
(g11
g12
(dp496
Vtid
p497
(lp498
V3
p499
asVtest
p500
(lp501
VTrue
p502
asVhasnum
p503
(lp504
V200
p505
astp506
Rp507
(dp508
g26
S'utf-8'
p509
sg28
(dp510
g497
g498
sg500
g501
sg503
g504
ssS'_mutable'
p511
I01
sbg4
(g11
g12
(dp512
tp513
Rp514
(dp515
S'_encoding'
p516
g509
sg28
(dp517
sg511
I00
sbtp518
sbsg38
(dp519
S'screen_name'
p520
VSample user
p521
sS'money'
p522
I50
sS'last_login'
p523
S'2014-01-09T04:56:18.899521+00:00'
p524
sS'exp'
p525
I0
sS'date_joined'
p526
S'2014-01-09T04:53:26.775143+00:00'
p527
sS'id'
p528
I1
sS'gmail'
p529
Vexample@gmail.com
p530
ssba(iutil.request_logging
SimpleRequest
p531
(dp532
g3
g4
(g5
g6
Ntp533
Rp534
(dp535
g10
(g4
(g11
g12
(dp536
Vtid
p537
(lp538
V3
p539
asVtest
p540
(lp541
VTrue
p542
asVhasnum
p543
(lp544
V300
p545
astp546
Rp547
(dp548
g26
S'utf-8'
p549
sg28
(dp550
g537
g538
sg540
g541
sg543
g544
ssS'_mutable'
p551
I01
sbg4
(g11
g12
(dp552
tp553
Rp554
(dp555
S'_encoding'
p556
g549
sg28
(dp557
sg551
I00
sbtp558
sbsg38
(dp559
S'screen_name'
p560
VSample user
p561
sS'money'
p562
I50
sS'last_login'
p563
S'2014-01-09T04:56:18.899521+00:00'
p564
sS'exp'
p565
I0
sS'gmail'
p566
Vexample@gmail.com
p567
sS'id'
p568
I1
sS'date_joined'
p569
S'2014-01-09T04:53:26.775143+00:00'
p570
ssba(iutil.request_logging
SimpleRequest
p571
(dp572
g3
g4
(g5
g6
Ntp573
Rp574
(dp575
g10
(g4
(g11
g12
(dp576
Vtid
p577
(lp578
V3
p579
asVtest
p580
(lp581
VTrue
p582
asVhasnum
p583
(lp584
V400
p585
astp586
Rp587
(dp588
g26
S'utf-8'
p589
sg28
(dp590
g577
g578
sg580
g581
sg583
g584
ssS'_mutable'
p591
I01
sbg4
(g11
g12
(dp592
tp593
Rp594
(dp595
S'_encoding'
p596
g589
sg28
(dp597
sg591
I00
sbtp598
sbsg38
(dp599
S'screen_name'
p600
VSample user
p601
sS'money'
p602
I50
sS'last_login'
p603
S'2014-01-09T04:56:18.899521+00:00'
p604
sS'exp'
p605
I0
sS'date_joined'
p606
S'2014-01-09T04:53:26.775143+00:00'
p607
sS'id'
p608
I1
sS'gmail'
p609
Vexample@gmail.com
p610
ssba(iutil.request_logging
SimpleRequest
p611
(dp612
g3
g4
(g5
g6
Ntp613
Rp614
(dp615
g10
(g4
(g11
g12
(dp616
Vtid
p617
(lp618
V3
p619
asVtest
p620
(lp621
VTrue
p622
asVhasnum
p623
(lp624
V500
p625
astp626
Rp627
(dp628
g26
S'utf-8'
p629
sg28
(dp630
g617
g618
sg620
g621
sg623
g624
ssS'_mutable'
p631
I01
sbg4
(g11
g12
(dp632
tp633
Rp634
(dp635
S'_encoding'
p636
g629
sg28
(dp637
sg631
I00
sbtp638
sbsg38
(dp639
S'screen_name'
p640
VSample user
p641
sS'money'
p642
I50
sS'last_login'
p643
S'2014-01-09T04:56:18.899521+00:00'
p644
sS'exp'
p645
I0
sS'gmail'
p646
Vexample@gmail.com
p647
sS'id'
p648
I1
sS'date_joined'
p649
S'2014-01-09T04:53:26.775143+00:00'
p650
ssba(iutil.request_logging
SimpleRequest
p651
(dp652
g3
g4
(g5
g6
Ntp653
Rp654
(dp655
g10
(g4
(g11
g12
(dp656
Vtid
p657
(lp658
V3
p659
asVtest
p660
(lp661
VTrue
p662
asVhasnum
p663
(lp664
V600
p665
astp666
Rp667
(dp668
g26
S'utf-8'
p669
sg28
(dp670
g657
g658
sg660
g661
sg663
g664
ssS'_mutable'
p671
I01
sbg4
(g11
g12
(dp672
tp673
Rp674
(dp675
S'_encoding'
p676
g669
sg28
(dp677
sg671
I00
sbtp678
sbsg38
(dp679
S'screen_name'
p680
VSample user
p681
sS'money'
p682
I50
sS'last_login'
p683
S'2014-01-09T04:56:18.899521+00:00'
p684
sS'exp'
p685
I0
sS'date_joined'
p686
S'2014-01-09T04:53:26.775143+00:00'
p687
sS'id'
p688
I1
sS'gmail'
p689
Vexample@gmail.com
p690
ssba(iutil.request_logging
SimpleRequest
p691
(dp692
g3
g4
(g5
g6
Ntp693
Rp694
(dp695
g10
(g4
(g11
g12
(dp696
Vtid
p697
(lp698
V3
p699
asVtest
p700
(lp701
VTrue
p702
asVhasnum
p703
(lp704
V700
p705
astp706
Rp707
(dp708
g26
S'utf-8'
p709
sg28
(dp710
g697
g698
sg700
g701
sg703
g704
ssS'_mutable'
p711
I01
sbg4
(g11
g12
(dp712
tp713
Rp714
(dp715
S'_encoding'
p716
g709
sg28
(dp717
sg711
I00
sbtp718
sbsg38
(dp719
S'screen_name'
p720
VSample user
p721
sS'money'
p722
I50
sS'last_login'
p723
S'2014-01-09T04:56:18.899521+00:00'
p724
sS'exp'
p725
I0
sS'gmail'
p726
Vexample@gmail.com
p727
sS'id'
p728
I1
sS'date_joined'
p729
S'2014-01-09T04:53:26.775143+00:00'
p730
ssba(iutil.request_logging
SimpleRequest
p731
(dp732
g3
g4
(g5
g6
Ntp733
Rp734
(dp735
g10
(g4
(g11
g12
(dp736
Vtid
p737
(lp738
V3
p739
asVtest
p740
(lp741
VTrue
p742
asVhasnum
p743
(lp744
V800
p745
astp746
Rp747
(dp748
g26
S'utf-8'
p749
sg28
(dp750
g737
g738
sg740
g741
sg743
g744
ssS'_mutable'
p751
I01
sbg4
(g11
g12
(dp752
tp753
Rp754
(dp755
S'_encoding'
p756
g749
sg28
(dp757
sg751
I00
sbtp758
sbsg38
(dp759
S'screen_name'
p760
VSample user
p761
sS'money'
p762
I50
sS'last_login'
p763
S'2014-01-09T04:56:18.899521+00:00'
p764
sS'exp'
p765
I0
sS'date_joined'
p766
S'2014-01-09T04:53:26.775143+00:00'
p767
sS'id'
p768
I1
sS'gmail'
p769
Vexample@gmail.com
p770
ssba(iutil.request_logging
SimpleRequest
p771
(dp772
g3
g4
(g5
g6
Ntp773
Rp774
(dp775
g10
(g4
(g11
g12
(dp776
Vtid
p777
(lp778
V3
p779
asVtest
p780
(lp781
VTrue
p782
asVhasnum
p783
(lp784
V900
p785
astp786
Rp787
(dp788
g26
S'utf-8'
p789
sg28
(dp790
g777
g778
sg780
g781
sg783
g784
ssS'_mutable'
p791
I01
sbg4
(g11
g12
(dp792
tp793
Rp794
(dp795
S'_encoding'
p796
g789
sg28
(dp797
sg791
I00
sbtp798
sbsg38
(dp799
S'screen_name'
p800
VSample user
p801
sS'money'
p802
I50
sS'last_login'
p803
S'2014-01-09T04:56:18.899521+00:00'
p804
sS'exp'
p805
I0
sS'gmail'
p806
Vexample@gmail.com
p807
sS'id'
p808
I1
sS'date_joined'
p809
S'2014-01-09T04:53:26.775143+00:00'
p810
ssba(iutil.request_logging
SimpleRequest
p811
(dp812
g3
g4
(g5
g6
Ntp813
Rp814
(dp815
g10
(g4
(g11
g12
(dp816
Vtid
p817
(lp818
V6
p819
asVtest
p820
(lp821
VTrue
p822
asVhasnum
p823
(lp824
V0
p825
astp826
Rp827
(dp828
g26
S'utf-8'
p829
sg28
(dp830
g817
g818
sg820
g821
sg823
g824
ssS'_mutable'
p831
I01
sbg4
(g11
g12
(dp832
tp833
Rp834
(dp835
S'_encoding'
p836
g829
sg28
(dp837
sg831
I00
sbtp838
sbsg38
(dp839
S'screen_name'
p840
VSample user
p841
sS'money'
p842
I50
sS'last_login'
p843
S'2014-01-09T04:56:18.899521+00:00'
p844
sS'exp'
p845
I0
sS'date_joined'
p846
S'2014-01-09T04:53:26.775143+00:00'
p847
sS'id'
p848
I1
sS'gmail'
p849
Vexample@gmail.com
p850
ssba(iutil.request_logging
SimpleRequest
p851
(dp852
g3
g4
(g5
g6
Ntp853
Rp854
(dp855
g10
(g4
(g11
g12
(dp856
Vtid
p857
(lp858
V6
p859
asVtest
p860
(lp861
VTrue
p862
asVhasnum
p863
(lp864
V100
p865
astp866
Rp867
(dp868
g26
S'utf-8'
p869
sg28
(dp870
g857
g858
sg860
g861
sg863
g864
ssS'_mutable'
p871
I01
sbg4
(g11
g12
(dp872
tp873
Rp874
(dp875
S'_encoding'
p876
g869
sg28
(dp877
sg871
I00
sbtp878
sbsg38
(dp879
S'screen_name'
p880
VSample user
p881
sS'money'
p882
I50
sS'last_login'
p883
S'2014-01-09T04:56:18.899521+00:00'
p884
sS'exp'
p885
I0
sS'gmail'
p886
Vexample@gmail.com
p887
sS'id'
p888
I1
sS'date_joined'
p889
S'2014-01-09T04:53:26.775143+00:00'
p890
ssba(iutil.request_logging
SimpleRequest
p891
(dp892
g3
g4
(g5
g6
Ntp893
Rp894
(dp895
g10
(g4
(g11
g12
(dp896
Vtid
p897
(lp898
V6
p899
asVtest
p900
(lp901
VTrue
p902
asVhasnum
p903
(lp904
V200
p905
astp906
Rp907
(dp908
g26
S'utf-8'
p909
sg28
(dp910
g897
g898
sg900
g901
sg903
g904
ssS'_mutable'
p911
I01
sbg4
(g11
g12
(dp912
tp913
Rp914
(dp915
S'_encoding'
p916
g909
sg28
(dp917
sg911
I00
sbtp918
sbsg38
(dp919
S'screen_name'
p920
VSample user
p921
sS'money'
p922
I50
sS'last_login'
p923
S'2014-01-09T04:56:18.899521+00:00'
p924
sS'exp'
p925
I0
sS'date_joined'
p926
S'2014-01-09T04:53:26.775143+00:00'
p927
sS'id'
p928
I1
sS'gmail'
p929
Vexample@gmail.com
p930
ssba(iutil.request_logging
SimpleRequest
p931
(dp932
g3
g4
(g5
g6
Ntp933
Rp934
(dp935
g10
(g4
(g11
g12
(dp936
Vtid
p937
(lp938
V6
p939
asVtest
p940
(lp941
VTrue
p942
asVhasnum
p943
(lp944
V300
p945
astp946
Rp947
(dp948
g26
S'utf-8'
p949
sg28
(dp950
g937
g938
sg940
g941
sg943
g944
ssS'_mutable'
p951
I01
sbg4
(g11
g12
(dp952
tp953
Rp954
(dp955
S'_encoding'
p956
g949
sg28
(dp957
sg951
I00
sbtp958
sbsg38
(dp959
S'screen_name'
p960
VSample user
p961
sS'money'
p962
I50
sS'last_login'
p963
S'2014-01-09T04:56:18.899521+00:00'
p964
sS'exp'
p965
I0
sS'gmail'
p966
Vexample@gmail.com
p967
sS'id'
p968
I1
sS'date_joined'
p969
S'2014-01-09T04:53:26.775143+00:00'
p970
ssba(iutil.request_logging
SimpleRequest
p971
(dp972
g3
g4
(g5
g6
Ntp973
Rp974
(dp975
g10
(g4
(g11
g12
(dp976
Vtid
p977
(lp978
V6
p979
asVtest
p980
(lp981
VTrue
p982
asVhasnum
p983
(lp984
V400
p985
astp986
Rp987
(dp988
g26
S'utf-8'
p989
sg28
(dp990
g977
g978
sg980
g981
sg983
g984
ssS'_mutable'
p991
I01
sbg4
(g11
g12
(dp992
tp993
Rp994
(dp995
S'_encoding'
p996
g989
sg28
(dp997
sg991
I00
sbtp998
sbsg38
(dp999
S'screen_name'
p1000
VSample user
p1001
sS'money'
p1002
I50
sS'last_login'
p1003
S'2014-01-09T04:56:18.899521+00:00'
p1004
sS'exp'
p1005
I0
sS'date_joined'
p1006
S'2014-01-09T04:53:26.775143+00:00'
p1007
sS'id'
p1008
I1
sS'gmail'
p1009
Vexample@gmail.com
p1010
ssba(iutil.request_logging
SimpleRequest
p1011
(dp1012
g3
g4
(g5
g6
Ntp1013
Rp1014
(dp1015
g10
(g4
(g11
g12
(dp1016
Vtid
p1017
(lp1018
V6
p1019
asVtest
p1020
(lp1021
VTrue
p1022
asVhasnum
p1023
(lp1024
V500
p1025
astp1026
Rp1027
(dp1028
g26
S'utf-8'
p1029
sg28
(dp1030
g1017
g1018
sg1020
g1021
sg1023
g1024
ssS'_mutable'
p1031
I01
sbg4
(g11
g12
(dp1032
tp1033
Rp1034
(dp1035
S'_encoding'
p1036
g1029
sg28
(dp1037
sg1031
I00
sbtp1038
sbsg38
(dp1039
S'screen_name'
p1040
VSample user
p1041
sS'money'
p1042
I50
sS'last_login'
p1043
S'2014-01-09T04:56:18.899521+00:00'
p1044
sS'exp'
p1045
I0
sS'gmail'
p1046
Vexample@gmail.com
p1047
sS'id'
p1048
I1
sS'date_joined'
p1049
S'2014-01-09T04:53:26.775143+00:00'
p1050
ssba(iutil.request_logging
SimpleRequest
p1051
(dp1052
g3
g4
(g5
g6
Ntp1053
Rp1054
(dp1055
g10
(g4
(g11
g12
(dp1056
Vtid
p1057
(lp1058
V6
p1059
asVtest
p1060
(lp1061
VTrue
p1062
asVhasnum
p1063
(lp1064
V600
p1065
astp1066
Rp1067
(dp1068
g26
S'utf-8'
p1069
sg28
(dp1070
g1057
g1058
sg1060
g1061
sg1063
g1064
ssS'_mutable'
p1071
I01
sbg4
(g11
g12
(dp1072
tp1073
Rp1074
(dp1075
S'_encoding'
p1076
g1069
sg28
(dp1077
sg1071
I00
sbtp1078
sbsg38
(dp1079
S'screen_name'
p1080
VSample user
p1081
sS'money'
p1082
I50
sS'last_login'
p1083
S'2014-01-09T04:56:18.899521+00:00'
p1084
sS'exp'
p1085
I0
sS'date_joined'
p1086
S'2014-01-09T04:53:26.775143+00:00'
p1087
sS'id'
p1088
I1
sS'gmail'
p1089
Vexample@gmail.com
p1090
ssba(iutil.request_logging
SimpleRequest
p1091
(dp1092
g3
g4
(g5
g6
Ntp1093
Rp1094
(dp1095
g10
(g4
(g11
g12
(dp1096
Vtid
p1097
(lp1098
V6
p1099
asVtest
p1100
(lp1101
VTrue
p1102
asVhasnum
p1103
(lp1104
V700
p1105
astp1106
Rp1107
(dp1108
g26
S'utf-8'
p1109
sg28
(dp1110
g1097
g1098
sg1100
g1101
sg1103
g1104
ssS'_mutable'
p1111
I01
sbg4
(g11
g12
(dp1112
tp1113
Rp1114
(dp1115
S'_encoding'
p1116
g1109
sg28
(dp1117
sg1111
I00
sbtp1118
sbsg38
(dp1119
S'screen_name'
p1120
VSample user
p1121
sS'money'
p1122
I50
sS'last_login'
p1123
S'2014-01-09T04:56:18.899521+00:00'
p1124
sS'exp'
p1125
I0
sS'gmail'
p1126
Vexample@gmail.com
p1127
sS'id'
p1128
I1
sS'date_joined'
p1129
S'2014-01-09T04:53:26.775143+00:00'
p1130
ssba(iutil.request_logging
SimpleRequest
p1131
(dp1132
g3
g4
(g5
g6
Ntp1133
Rp1134
(dp1135
g10
(g4
(g11
g12
(dp1136
Vtid
p1137
(lp1138
V6
p1139
asVtest
p1140
(lp1141
VTrue
p1142
asVhasnum
p1143
(lp1144
V800
p1145
astp1146
Rp1147
(dp1148
g26
S'utf-8'
p1149
sg28
(dp1150
g1137
g1138
sg1140
g1141
sg1143
g1144
ssS'_mutable'
p1151
I01
sbg4
(g11
g12
(dp1152
tp1153
Rp1154
(dp1155
S'_encoding'
p1156
g1149
sg28
(dp1157
sg1151
I00
sbtp1158
sbsg38
(dp1159
S'screen_name'
p1160
VSample user
p1161
sS'money'
p1162
I50
sS'last_login'
p1163
S'2014-01-09T04:56:18.899521+00:00'
p1164
sS'exp'
p1165
I0
sS'date_joined'
p1166
S'2014-01-09T04:53:26.775143+00:00'
p1167
sS'id'
p1168
I1
sS'gmail'
p1169
Vexample@gmail.com
p1170
ssba(iutil.request_logging
SimpleRequest
p1171
(dp1172
g3
g4
(g5
g6
Ntp1173
Rp1174
(dp1175
g10
(g4
(g11
g12
(dp1176
Vtid
p1177
(lp1178
V6
p1179
asVtest
p1180
(lp1181
VTrue
p1182
asVhasnum
p1183
(lp1184
V900
p1185
astp1186
Rp1187
(dp1188
g26
S'utf-8'
p1189
sg28
(dp1190
g1177
g1178
sg1180
g1181
sg1183
g1184
ssS'_mutable'
p1191
I01
sbg4
(g11
g12
(dp1192
tp1193
Rp1194
(dp1195
S'_encoding'
p1196
g1189
sg28
(dp1197
sg1191
I00
sbtp1198
sbsg38
(dp1199
S'screen_name'
p1200
VSample user
p1201
sS'money'
p1202
I50
sS'last_login'
p1203
S'2014-01-09T04:56:18.899521+00:00'
p1204
sS'exp'
p1205
I0
sS'gmail'
p1206
Vexample@gmail.com
p1207
sS'id'
p1208
I1
sS'date_joined'
p1209
S'2014-01-09T04:53:26.775143+00:00'
p1210
ssba(iutil.request_logging
SimpleRequest
p1211
(dp1212
g3
g4
(g5
g6
Ntp1213
Rp1214
(dp1215
g10
(g4
(g11
g12
(dp1216
Vtid
p1217
(lp1218
V9
p1219
asVtest
p1220
(lp1221
VTrue
p1222
asVhasnum
p1223
(lp1224
V0
p1225
astp1226
Rp1227
(dp1228
g26
S'utf-8'
p1229
sg28
(dp1230
g1217
g1218
sg1220
g1221
sg1223
g1224
ssS'_mutable'
p1231
I01
sbg4
(g11
g12
(dp1232
tp1233
Rp1234
(dp1235
S'_encoding'
p1236
g1229
sg28
(dp1237
sg1231
I00
sbtp1238
sbsg38
(dp1239
S'screen_name'
p1240
VSample user
p1241
sS'money'
p1242
I50
sS'last_login'
p1243
S'2014-01-09T04:56:18.899521+00:00'
p1244
sS'exp'
p1245
I0
sS'date_joined'
p1246
S'2014-01-09T04:53:26.775143+00:00'
p1247
sS'id'
p1248
I1
sS'gmail'
p1249
Vexample@gmail.com
p1250
ssba(iutil.request_logging
SimpleRequest
p1251
(dp1252
g3
g4
(g5
g6
Ntp1253
Rp1254
(dp1255
g10
(g4
(g11
g12
(dp1256
Vtid
p1257
(lp1258
V9
p1259
asVtest
p1260
(lp1261
VTrue
p1262
asVhasnum
p1263
(lp1264
V100
p1265
astp1266
Rp1267
(dp1268
g26
S'utf-8'
p1269
sg28
(dp1270
g1257
g1258
sg1260
g1261
sg1263
g1264
ssS'_mutable'
p1271
I01
sbg4
(g11
g12
(dp1272
tp1273
Rp1274
(dp1275
S'_encoding'
p1276
g1269
sg28
(dp1277
sg1271
I00
sbtp1278
sbsg38
(dp1279
S'screen_name'
p1280
VSample user
p1281
sS'money'
p1282
I50
sS'last_login'
p1283
S'2014-01-09T04:56:18.899521+00:00'
p1284
sS'exp'
p1285
I0
sS'gmail'
p1286
Vexample@gmail.com
p1287
sS'id'
p1288
I1
sS'date_joined'
p1289
S'2014-01-09T04:53:26.775143+00:00'
p1290
ssba(iutil.request_logging
SimpleRequest
p1291
(dp1292
g3
g4
(g5
g6
Ntp1293
Rp1294
(dp1295
g10
(g4
(g11
g12
(dp1296
Vtid
p1297
(lp1298
V9
p1299
asVtest
p1300
(lp1301
VTrue
p1302
asVhasnum
p1303
(lp1304
V200
p1305
astp1306
Rp1307
(dp1308
g26
S'utf-8'
p1309
sg28
(dp1310
g1297
g1298
sg1300
g1301
sg1303
g1304
ssS'_mutable'
p1311
I01
sbg4
(g11
g12
(dp1312
tp1313
Rp1314
(dp1315
S'_encoding'
p1316
g1309
sg28
(dp1317
sg1311
I00
sbtp1318
sbsg38
(dp1319
S'screen_name'
p1320
VSample user
p1321
sS'money'
p1322
I50
sS'last_login'
p1323
S'2014-01-09T04:56:18.899521+00:00'
p1324
sS'exp'
p1325
I0
sS'date_joined'
p1326
S'2014-01-09T04:53:26.775143+00:00'
p1327
sS'id'
p1328
I1
sS'gmail'
p1329
Vexample@gmail.com
p1330
ssba(iutil.request_logging
SimpleRequest
p1331
(dp1332
g3
g4
(g5
g6
Ntp1333
Rp1334
(dp1335
g10
(g4
(g11
g12
(dp1336
Vtid
p1337
(lp1338
V9
p1339
asVtest
p1340
(lp1341
VTrue
p1342
asVhasnum
p1343
(lp1344
V300
p1345
astp1346
Rp1347
(dp1348
g26
S'utf-8'
p1349
sg28
(dp1350
g1337
g1338
sg1340
g1341
sg1343
g1344
ssS'_mutable'
p1351
I01
sbg4
(g11
g12
(dp1352
tp1353
Rp1354
(dp1355
S'_encoding'
p1356
g1349
sg28
(dp1357
sg1351
I00
sbtp1358
sbsg38
(dp1359
S'screen_name'
p1360
VSample user
p1361
sS'money'
p1362
I50
sS'last_login'
p1363
S'2014-01-09T04:56:18.899521+00:00'
p1364
sS'exp'
p1365
I0
sS'gmail'
p1366
Vexample@gmail.com
p1367
sS'id'
p1368
I1
sS'date_joined'
p1369
S'2014-01-09T04:53:26.775143+00:00'
p1370
ssba(iutil.request_logging
SimpleRequest
p1371
(dp1372
g3
g4
(g5
g6
Ntp1373
Rp1374
(dp1375
g10
(g4
(g11
g12
(dp1376
Vtid
p1377
(lp1378
V9
p1379
asVtest
p1380
(lp1381
VTrue
p1382
asVhasnum
p1383
(lp1384
V400
p1385
astp1386
Rp1387
(dp1388
g26
S'utf-8'
p1389
sg28
(dp1390
g1377
g1378
sg1380
g1381
sg1383
g1384
ssS'_mutable'
p1391
I01
sbg4
(g11
g12
(dp1392
tp1393
Rp1394
(dp1395
S'_encoding'
p1396
g1389
sg28
(dp1397
sg1391
I00
sbtp1398
sbsg38
(dp1399
S'screen_name'
p1400
VSample user
p1401
sS'money'
p1402
I50
sS'last_login'
p1403
S'2014-01-09T04:56:18.899521+00:00'
p1404
sS'exp'
p1405
I0
sS'date_joined'
p1406
S'2014-01-09T04:53:26.775143+00:00'
p1407
sS'id'
p1408
I1
sS'gmail'
p1409
Vexample@gmail.com
p1410
ssba(iutil.request_logging
SimpleRequest
p1411
(dp1412
g3
g4
(g5
g6
Ntp1413
Rp1414
(dp1415
g10
(g4
(g11
g12
(dp1416
Vtid
p1417
(lp1418
V9
p1419
asVtest
p1420
(lp1421
VTrue
p1422
asVhasnum
p1423
(lp1424
V500
p1425
astp1426
Rp1427
(dp1428
g26
S'utf-8'
p1429
sg28
(dp1430
g1417
g1418
sg1420
g1421
sg1423
g1424
ssS'_mutable'
p1431
I01
sbg4
(g11
g12
(dp1432
tp1433
Rp1434
(dp1435
S'_encoding'
p1436
g1429
sg28
(dp1437
sg1431
I00
sbtp1438
sbsg38
(dp1439
S'screen_name'
p1440
VSample user
p1441
sS'money'
p1442
I50
sS'last_login'
p1443
S'2014-01-09T04:56:18.899521+00:00'
p1444
sS'exp'
p1445
I0
sS'gmail'
p1446
Vexample@gmail.com
p1447
sS'id'
p1448
I1
sS'date_joined'
p1449
S'2014-01-09T04:53:26.775143+00:00'
p1450
ssba(iutil.request_logging
SimpleRequest
p1451
(dp1452
g3
g4
(g5
g6
Ntp1453
Rp1454
(dp1455
g10
(g4
(g11
g12
(dp1456
Vtid
p1457
(lp1458
V9
p1459
asVtest
p1460
(lp1461
VTrue
p1462
asVhasnum
p1463
(lp1464
V600
p1465
astp1466
Rp1467
(dp1468
g26
S'utf-8'
p1469
sg28
(dp1470
g1457
g1458
sg1460
g1461
sg1463
g1464
ssS'_mutable'
p1471
I01
sbg4
(g11
g12
(dp1472
tp1473
Rp1474
(dp1475
S'_encoding'
p1476
g1469
sg28
(dp1477
sg1471
I00
sbtp1478
sbsg38
(dp1479
S'screen_name'
p1480
VSample user
p1481
sS'money'
p1482
I50
sS'last_login'
p1483
S'2014-01-09T04:56:18.899521+00:00'
p1484
sS'exp'
p1485
I0
sS'date_joined'
p1486
S'2014-01-09T04:53:26.775143+00:00'
p1487
sS'id'
p1488
I1
sS'gmail'
p1489
Vexample@gmail.com
p1490
ssba(iutil.request_logging
SimpleRequest
p1491
(dp1492
g3
g4
(g5
g6
Ntp1493
Rp1494
(dp1495
g10
(g4
(g11
g12
(dp1496
Vtid
p1497
(lp1498
V9
p1499
asVtest
p1500
(lp1501
VTrue
p1502
asVhasnum
p1503
(lp1504
V700
p1505
astp1506
Rp1507
(dp1508
g26
S'utf-8'
p1509
sg28
(dp1510
g1497
g1498
sg1500
g1501
sg1503
g1504
ssS'_mutable'
p1511
I01
sbg4
(g11
g12
(dp1512
tp1513
Rp1514
(dp1515
S'_encoding'
p1516
g1509
sg28
(dp1517
sg1511
I00
sbtp1518
sbsg38
(dp1519
S'screen_name'
p1520
VSample user
p1521
sS'money'
p1522
I50
sS'last_login'
p1523
S'2014-01-09T04:56:18.899521+00:00'
p1524
sS'exp'
p1525
I0
sS'gmail'
p1526
Vexample@gmail.com
p1527
sS'id'
p1528
I1
sS'date_joined'
p1529
S'2014-01-09T04:53:26.775143+00:00'
p1530
ssba(iutil.request_logging
SimpleRequest
p1531
(dp1532
g3
g4
(g5
g6
Ntp1533
Rp1534
(dp1535
g10
(g4
(g11
g12
(dp1536
Vtid
p1537
(lp1538
V9
p1539
asVtest
p1540
(lp1541
VTrue
p1542
asVhasnum
p1543
(lp1544
V800
p1545
astp1546
Rp1547
(dp1548
g26
S'utf-8'
p1549
sg28
(dp1550
g1537
g1538
sg1540
g1541
sg1543
g1544
ssS'_mutable'
p1551
I01
sbg4
(g11
g12
(dp1552
tp1553
Rp1554
(dp1555
S'_encoding'
p1556
g1549
sg28
(dp1557
sg1551
I00
sbtp1558
sbsg38
(dp1559
S'screen_name'
p1560
VSample user
p1561
sS'money'
p1562
I50
sS'last_login'
p1563
S'2014-01-09T04:56:18.899521+00:00'
p1564
sS'exp'
p1565
I0
sS'date_joined'
p1566
S'2014-01-09T04:53:26.775143+00:00'
p1567
sS'id'
p1568
I1
sS'gmail'
p1569
Vexample@gmail.com
p1570
ssba(iutil.request_logging
SimpleRequest
p1571
(dp1572
g3
g4
(g5
g6
Ntp1573
Rp1574
(dp1575
g10
(g4
(g11
g12
(dp1576
Vtid
p1577
(lp1578
V9
p1579
asVtest
p1580
(lp1581
VTrue
p1582
asVhasnum
p1583
(lp1584
V900
p1585
astp1586
Rp1587
(dp1588
g26
S'utf-8'
p1589
sg28
(dp1590
g1577
g1578
sg1580
g1581
sg1583
g1584
ssS'_mutable'
p1591
I01
sbg4
(g11
g12
(dp1592
tp1593
Rp1594
(dp1595
S'_encoding'
p1596
g1589
sg28
(dp1597
sg1591
I00
sbtp1598
sbsg38
(dp1599
S'screen_name'
p1600
VSample user
p1601
sS'money'
p1602
I50
sS'last_login'
p1603
S'2014-01-09T04:56:18.899521+00:00'
p1604
sS'exp'
p1605
I0
sS'gmail'
p1606
Vexample@gmail.com
p1607
sS'id'
p1608
I1
sS'date_joined'
p1609
S'2014-01-09T04:53:26.775143+00:00'
p1610
ssba(iutil.request_logging
SimpleRequest
p1611
(dp1612
g3
g4
(g5
g6
Ntp1613
Rp1614
(dp1615
g10
(g4
(g11
g12
(dp1616
Vtid
p1617
(lp1618
V12
p1619
asVtest
p1620
(lp1621
VTrue
p1622
asVhasnum
p1623
(lp1624
V0
p1625
astp1626
Rp1627
(dp1628
g26
S'utf-8'
p1629
sg28
(dp1630
g1617
g1618
sg1620
g1621
sg1623
g1624
ssS'_mutable'
p1631
I01
sbg4
(g11
g12
(dp1632
tp1633
Rp1634
(dp1635
S'_encoding'
p1636
g1629
sg28
(dp1637
sg1631
I00
sbtp1638
sbsg38
(dp1639
S'screen_name'
p1640
VSample user
p1641
sS'money'
p1642
I50
sS'last_login'
p1643
S'2014-01-09T04:56:18.899521+00:00'
p1644
sS'exp'
p1645
I0
sS'date_joined'
p1646
S'2014-01-09T04:53:26.775143+00:00'
p1647
sS'id'
p1648
I1
sS'gmail'
p1649
Vexample@gmail.com
p1650
ssba(iutil.request_logging
SimpleRequest
p1651
(dp1652
g3
g4
(g5
g6
Ntp1653
Rp1654
(dp1655
g10
(g4
(g11
g12
(dp1656
Vtid
p1657
(lp1658
V12
p1659
asVtest
p1660
(lp1661
VTrue
p1662
asVhasnum
p1663
(lp1664
V100
p1665
astp1666
Rp1667
(dp1668
g26
S'utf-8'
p1669
sg28
(dp1670
g1657
g1658
sg1660
g1661
sg1663
g1664
ssS'_mutable'
p1671
I01
sbg4
(g11
g12
(dp1672
tp1673
Rp1674
(dp1675
S'_encoding'
p1676
g1669
sg28
(dp1677
sg1671
I00
sbtp1678
sbsg38
(dp1679
S'screen_name'
p1680
VSample user
p1681
sS'money'
p1682
I50
sS'last_login'
p1683
S'2014-01-09T04:56:18.899521+00:00'
p1684
sS'exp'
p1685
I0
sS'gmail'
p1686
Vexample@gmail.com
p1687
sS'id'
p1688
I1
sS'date_joined'
p1689
S'2014-01-09T04:53:26.775143+00:00'
p1690
ssba(iutil.request_logging
SimpleRequest
p1691
(dp1692
g3
g4
(g5
g6
Ntp1693
Rp1694
(dp1695
g10
(g4
(g11
g12
(dp1696
Vtid
p1697
(lp1698
V12
p1699
asVtest
p1700
(lp1701
VTrue
p1702
asVhasnum
p1703
(lp1704
V200
p1705
astp1706
Rp1707
(dp1708
g26
S'utf-8'
p1709
sg28
(dp1710
g1697
g1698
sg1700
g1701
sg1703
g1704
ssS'_mutable'
p1711
I01
sbg4
(g11
g12
(dp1712
tp1713
Rp1714
(dp1715
S'_encoding'
p1716
g1709
sg28
(dp1717
sg1711
I00
sbtp1718
sbsg38
(dp1719
S'screen_name'
p1720
VSample user
p1721
sS'money'
p1722
I50
sS'last_login'
p1723
S'2014-01-09T04:56:18.899521+00:00'
p1724
sS'exp'
p1725
I0
sS'date_joined'
p1726
S'2014-01-09T04:53:26.775143+00:00'
p1727
sS'id'
p1728
I1
sS'gmail'
p1729
Vexample@gmail.com
p1730
ssba(iutil.request_logging
SimpleRequest
p1731
(dp1732
g3
g4
(g5
g6
Ntp1733
Rp1734
(dp1735
g10
(g4
(g11
g12
(dp1736
Vtid
p1737
(lp1738
V12
p1739
asVtest
p1740
(lp1741
VTrue
p1742
asVhasnum
p1743
(lp1744
V300
p1745
astp1746
Rp1747
(dp1748
g26
S'utf-8'
p1749
sg28
(dp1750
g1737
g1738
sg1740
g1741
sg1743
g1744
ssS'_mutable'
p1751
I01
sbg4
(g11
g12
(dp1752
tp1753
Rp1754
(dp1755
S'_encoding'
p1756
g1749
sg28
(dp1757
sg1751
I00
sbtp1758
sbsg38
(dp1759
S'screen_name'
p1760
VSample user
p1761
sS'money'
p1762
I50
sS'last_login'
p1763
S'2014-01-09T04:56:18.899521+00:00'
p1764
sS'exp'
p1765
I0
sS'gmail'
p1766
Vexample@gmail.com
p1767
sS'id'
p1768
I1
sS'date_joined'
p1769
S'2014-01-09T04:53:26.775143+00:00'
p1770
ssba(iutil.request_logging
SimpleRequest
p1771
(dp1772
g3
g4
(g5
g6
Ntp1773
Rp1774
(dp1775
g10
(g4
(g11
g12
(dp1776
Vtid
p1777
(lp1778
V12
p1779
asVtest
p1780
(lp1781
VTrue
p1782
asVhasnum
p1783
(lp1784
V400
p1785
astp1786
Rp1787
(dp1788
g26
S'utf-8'
p1789
sg28
(dp1790
g1777
g1778
sg1780
g1781
sg1783
g1784
ssS'_mutable'
p1791
I01
sbg4
(g11
g12
(dp1792
tp1793
Rp1794
(dp1795
S'_encoding'
p1796
g1789
sg28
(dp1797
sg1791
I00
sbtp1798
sbsg38
(dp1799
S'screen_name'
p1800
VSample user
p1801
sS'money'
p1802
I50
sS'last_login'
p1803
S'2014-01-09T04:56:18.899521+00:00'
p1804
sS'exp'
p1805
I0
sS'date_joined'
p1806
S'2014-01-09T04:53:26.775143+00:00'
p1807
sS'id'
p1808
I1
sS'gmail'
p1809
Vexample@gmail.com
p1810
ssba(iutil.request_logging
SimpleRequest
p1811
(dp1812
g3
g4
(g5
g6
Ntp1813
Rp1814
(dp1815
g10
(g4
(g11
g12
(dp1816
Vtid
p1817
(lp1818
V12
p1819
asVtest
p1820
(lp1821
VTrue
p1822
asVhasnum
p1823
(lp1824
V500
p1825
astp1826
Rp1827
(dp1828
g26
S'utf-8'
p1829
sg28
(dp1830
g1817
g1818
sg1820
g1821
sg1823
g1824
ssS'_mutable'
p1831
I01
sbg4
(g11
g12
(dp1832
tp1833
Rp1834
(dp1835
S'_encoding'
p1836
g1829
sg28
(dp1837
sg1831
I00
sbtp1838
sbsg38
(dp1839
S'screen_name'
p1840
VSample user
p1841
sS'money'
p1842
I50
sS'last_login'
p1843
S'2014-01-09T04:56:18.899521+00:00'
p1844
sS'exp'
p1845
I0
sS'gmail'
p1846
Vexample@gmail.com
p1847
sS'id'
p1848
I1
sS'date_joined'
p1849
S'2014-01-09T04:53:26.775143+00:00'
p1850
ssba(iutil.request_logging
SimpleRequest
p1851
(dp1852
g3
g4
(g5
g6
Ntp1853
Rp1854
(dp1855
g10
(g4
(g11
g12
(dp1856
Vtid
p1857
(lp1858
V12
p1859
asVtest
p1860
(lp1861
VTrue
p1862
asVhasnum
p1863
(lp1864
V600
p1865
astp1866
Rp1867
(dp1868
g26
S'utf-8'
p1869
sg28
(dp1870
g1857
g1858
sg1860
g1861
sg1863
g1864
ssS'_mutable'
p1871
I01
sbg4
(g11
g12
(dp1872
tp1873
Rp1874
(dp1875
S'_encoding'
p1876
g1869
sg28
(dp1877
sg1871
I00
sbtp1878
sbsg38
(dp1879
S'screen_name'
p1880
VSample user
p1881
sS'money'
p1882
I50
sS'last_login'
p1883
S'2014-01-09T04:56:18.899521+00:00'
p1884
sS'exp'
p1885
I0
sS'date_joined'
p1886
S'2014-01-09T04:53:26.775143+00:00'
p1887
sS'id'
p1888
I1
sS'gmail'
p1889
Vexample@gmail.com
p1890
ssba(iutil.request_logging
SimpleRequest
p1891
(dp1892
g3
g4
(g5
g6
Ntp1893
Rp1894
(dp1895
g10
(g4
(g11
g12
(dp1896
Vtid
p1897
(lp1898
V12
p1899
asVtest
p1900
(lp1901
VTrue
p1902
asVhasnum
p1903
(lp1904
V700
p1905
astp1906
Rp1907
(dp1908
g26
S'utf-8'
p1909
sg28
(dp1910
g1897
g1898
sg1900
g1901
sg1903
g1904
ssS'_mutable'
p1911
I01
sbg4
(g11
g12
(dp1912
tp1913
Rp1914
(dp1915
S'_encoding'
p1916
g1909
sg28
(dp1917
sg1911
I00
sbtp1918
sbsg38
(dp1919
S'screen_name'
p1920
VSample user
p1921
sS'money'
p1922
I50
sS'last_login'
p1923
S'2014-01-09T04:56:18.899521+00:00'
p1924
sS'exp'
p1925
I0
sS'gmail'
p1926
Vexample@gmail.com
p1927
sS'id'
p1928
I1
sS'date_joined'
p1929
S'2014-01-09T04:53:26.775143+00:00'
p1930
ssba(iutil.request_logging
SimpleRequest
p1931
(dp1932
g3
g4
(g5
g6
Ntp1933
Rp1934
(dp1935
g10
(g4
(g11
g12
(dp1936
Vtid
p1937
(lp1938
V12
p1939
asVtest
p1940
(lp1941
VTrue
p1942
asVhasnum
p1943
(lp1944
V800
p1945
astp1946
Rp1947
(dp1948
g26
S'utf-8'
p1949
sg28
(dp1950
g1937
g1938
sg1940
g1941
sg1943
g1944
ssS'_mutable'
p1951
I01
sbg4
(g11
g12
(dp1952
tp1953
Rp1954
(dp1955
S'_encoding'
p1956
g1949
sg28
(dp1957
sg1951
I00
sbtp1958
sbsg38
(dp1959
S'screen_name'
p1960
VSample user
p1961
sS'money'
p1962
I50
sS'last_login'
p1963
S'2014-01-09T04:56:18.899521+00:00'
p1964
sS'exp'
p1965
I0
sS'date_joined'
p1966
S'2014-01-09T04:53:26.775143+00:00'
p1967
sS'id'
p1968
I1
sS'gmail'
p1969
Vexample@gmail.com
p1970
ssba(iutil.request_logging
SimpleRequest
p1971
(dp1972
g3
g4
(g5
g6
Ntp1973
Rp1974
(dp1975
g10
(g4
(g11
g12
(dp1976
Vtid
p1977
(lp1978
V12
p1979
asVtest
p1980
(lp1981
VTrue
p1982
asVhasnum
p1983
(lp1984
V900
p1985
astp1986
Rp1987
(dp1988
g26
S'utf-8'
p1989
sg28
(dp1990
g1977
g1978
sg1980
g1981
sg1983
g1984
ssS'_mutable'
p1991
I01
sbg4
(g11
g12
(dp1992
tp1993
Rp1994
(dp1995
S'_encoding'
p1996
g1989
sg28
(dp1997
sg1991
I00
sbtp1998
sbsg38
(dp1999
S'screen_name'
p2000
VSample user
p2001
sS'money'
p2002
I50
sS'last_login'
p2003
S'2014-01-09T04:56:18.899521+00:00'
p2004
sS'exp'
p2005
I0
sS'gmail'
p2006
Vexample@gmail.com
p2007
sS'id'
p2008
I1
sS'date_joined'
p2009
S'2014-01-09T04:53:26.775143+00:00'
p2010
ssba(iutil.request_logging
SimpleRequest
p2011
(dp2012
g3
g4
(g5
g6
Ntp2013
Rp2014
(dp2015
g10
(g4
(g11
g12
(dp2016
Vtid
p2017
(lp2018
V15
p2019
asVtest
p2020
(lp2021
VTrue
p2022
asVhasnum
p2023
(lp2024
V0
p2025
astp2026
Rp2027
(dp2028
g26
S'utf-8'
p2029
sg28
(dp2030
g2017
g2018
sg2020
g2021
sg2023
g2024
ssS'_mutable'
p2031
I01
sbg4
(g11
g12
(dp2032
tp2033
Rp2034
(dp2035
S'_encoding'
p2036
g2029
sg28
(dp2037
sg2031
I00
sbtp2038
sbsg38
(dp2039
S'screen_name'
p2040
VSample user
p2041
sS'money'
p2042
I50
sS'last_login'
p2043
S'2014-01-09T04:56:18.899521+00:00'
p2044
sS'exp'
p2045
I0
sS'date_joined'
p2046
S'2014-01-09T04:53:26.775143+00:00'
p2047
sS'id'
p2048
I1
sS'gmail'
p2049
Vexample@gmail.com
p2050
ssba(iutil.request_logging
SimpleRequest
p2051
(dp2052
g3
g4
(g5
g6
Ntp2053
Rp2054
(dp2055
g10
(g4
(g11
g12
(dp2056
Vtid
p2057
(lp2058
V15
p2059
asVtest
p2060
(lp2061
VTrue
p2062
asVhasnum
p2063
(lp2064
V100
p2065
astp2066
Rp2067
(dp2068
g26
S'utf-8'
p2069
sg28
(dp2070
g2057
g2058
sg2060
g2061
sg2063
g2064
ssS'_mutable'
p2071
I01
sbg4
(g11
g12
(dp2072
tp2073
Rp2074
(dp2075
S'_encoding'
p2076
g2069
sg28
(dp2077
sg2071
I00
sbtp2078
sbsg38
(dp2079
S'screen_name'
p2080
VSample user
p2081
sS'money'
p2082
I50
sS'last_login'
p2083
S'2014-01-09T04:56:18.899521+00:00'
p2084
sS'exp'
p2085
I0
sS'gmail'
p2086
Vexample@gmail.com
p2087
sS'id'
p2088
I1
sS'date_joined'
p2089
S'2014-01-09T04:53:26.775143+00:00'
p2090
ssba(iutil.request_logging
SimpleRequest
p2091
(dp2092
g3
g4
(g5
g6
Ntp2093
Rp2094
(dp2095
g10
(g4
(g11
g12
(dp2096
Vtid
p2097
(lp2098
V15
p2099
asVtest
p2100
(lp2101
VTrue
p2102
asVhasnum
p2103
(lp2104
V200
p2105
astp2106
Rp2107
(dp2108
g26
S'utf-8'
p2109
sg28
(dp2110
g2097
g2098
sg2100
g2101
sg2103
g2104
ssS'_mutable'
p2111
I01
sbg4
(g11
g12
(dp2112
tp2113
Rp2114
(dp2115
S'_encoding'
p2116
g2109
sg28
(dp2117
sg2111
I00
sbtp2118
sbsg38
(dp2119
S'screen_name'
p2120
VSample user
p2121
sS'money'
p2122
I50
sS'last_login'
p2123
S'2014-01-09T04:56:18.899521+00:00'
p2124
sS'exp'
p2125
I0
sS'date_joined'
p2126
S'2014-01-09T04:53:26.775143+00:00'
p2127
sS'id'
p2128
I1
sS'gmail'
p2129
Vexample@gmail.com
p2130
ssba(iutil.request_logging
SimpleRequest
p2131
(dp2132
g3
g4
(g5
g6
Ntp2133
Rp2134
(dp2135
g10
(g4
(g11
g12
(dp2136
Vtid
p2137
(lp2138
V15
p2139
asVtest
p2140
(lp2141
VTrue
p2142
asVhasnum
p2143
(lp2144
V300
p2145
astp2146
Rp2147
(dp2148
g26
S'utf-8'
p2149
sg28
(dp2150
g2137
g2138
sg2140
g2141
sg2143
g2144
ssS'_mutable'
p2151
I01
sbg4
(g11
g12
(dp2152
tp2153
Rp2154
(dp2155
S'_encoding'
p2156
g2149
sg28
(dp2157
sg2151
I00
sbtp2158
sbsg38
(dp2159
S'screen_name'
p2160
VSample user
p2161
sS'money'
p2162
I50
sS'last_login'
p2163
S'2014-01-09T04:56:18.899521+00:00'
p2164
sS'exp'
p2165
I0
sS'gmail'
p2166
Vexample@gmail.com
p2167
sS'id'
p2168
I1
sS'date_joined'
p2169
S'2014-01-09T04:53:26.775143+00:00'
p2170
ssba(iutil.request_logging
SimpleRequest
p2171
(dp2172
g3
g4
(g5
g6
Ntp2173
Rp2174
(dp2175
g10
(g4
(g11
g12
(dp2176
Vtid
p2177
(lp2178
V15
p2179
asVtest
p2180
(lp2181
VTrue
p2182
asVhasnum
p2183
(lp2184
V400
p2185
astp2186
Rp2187
(dp2188
g26
S'utf-8'
p2189
sg28
(dp2190
g2177
g2178
sg2180
g2181
sg2183
g2184
ssS'_mutable'
p2191
I01
sbg4
(g11
g12
(dp2192
tp2193
Rp2194
(dp2195
S'_encoding'
p2196
g2189
sg28
(dp2197
sg2191
I00
sbtp2198
sbsg38
(dp2199
S'screen_name'
p2200
VSample user
p2201
sS'money'
p2202
I50
sS'last_login'
p2203
S'2014-01-09T04:56:18.899521+00:00'
p2204
sS'exp'
p2205
I0
sS'date_joined'
p2206
S'2014-01-09T04:53:26.775143+00:00'
p2207
sS'id'
p2208
I1
sS'gmail'
p2209
Vexample@gmail.com
p2210
ssba(iutil.request_logging
SimpleRequest
p2211
(dp2212
g3
g4
(g5
g6
Ntp2213
Rp2214
(dp2215
g10
(g4
(g11
g12
(dp2216
Vtid
p2217
(lp2218
V15
p2219
asVtest
p2220
(lp2221
VTrue
p2222
asVhasnum
p2223
(lp2224
V500
p2225
astp2226
Rp2227
(dp2228
g26
S'utf-8'
p2229
sg28
(dp2230
g2217
g2218
sg2220
g2221
sg2223
g2224
ssS'_mutable'
p2231
I01
sbg4
(g11
g12
(dp2232
tp2233
Rp2234
(dp2235
S'_encoding'
p2236
g2229
sg28
(dp2237
sg2231
I00
sbtp2238
sbsg38
(dp2239
S'screen_name'
p2240
VSample user
p2241
sS'money'
p2242
I50
sS'last_login'
p2243
S'2014-01-09T04:56:18.899521+00:00'
p2244
sS'exp'
p2245
I0
sS'gmail'
p2246
Vexample@gmail.com
p2247
sS'id'
p2248
I1
sS'date_joined'
p2249
S'2014-01-09T04:53:26.775143+00:00'
p2250
ssba(iutil.request_logging
SimpleRequest
p2251
(dp2252
g3
g4
(g5
g6
Ntp2253
Rp2254
(dp2255
g10
(g4
(g11
g12
(dp2256
Vtid
p2257
(lp2258
V15
p2259
asVtest
p2260
(lp2261
VTrue
p2262
asVhasnum
p2263
(lp2264
V600
p2265
astp2266
Rp2267
(dp2268
g26
S'utf-8'
p2269
sg28
(dp2270
g2257
g2258
sg2260
g2261
sg2263
g2264
ssS'_mutable'
p2271
I01
sbg4
(g11
g12
(dp2272
tp2273
Rp2274
(dp2275
S'_encoding'
p2276
g2269
sg28
(dp2277
sg2271
I00
sbtp2278
sbsg38
(dp2279
S'screen_name'
p2280
VSample user
p2281
sS'money'
p2282
I50
sS'last_login'
p2283
S'2014-01-09T04:56:18.899521+00:00'
p2284
sS'exp'
p2285
I0
sS'date_joined'
p2286
S'2014-01-09T04:53:26.775143+00:00'
p2287
sS'id'
p2288
I1
sS'gmail'
p2289
Vexample@gmail.com
p2290
ssba(iutil.request_logging
SimpleRequest
p2291
(dp2292
g3
g4
(g5
g6
Ntp2293
Rp2294
(dp2295
g10
(g4
(g11
g12
(dp2296
Vtid
p2297
(lp2298
V15
p2299
asVtest
p2300
(lp2301
VTrue
p2302
asVhasnum
p2303
(lp2304
V700
p2305
astp2306
Rp2307
(dp2308
g26
S'utf-8'
p2309
sg28
(dp2310
g2297
g2298
sg2300
g2301
sg2303
g2304
ssS'_mutable'
p2311
I01
sbg4
(g11
g12
(dp2312
tp2313
Rp2314
(dp2315
S'_encoding'
p2316
g2309
sg28
(dp2317
sg2311
I00
sbtp2318
sbsg38
(dp2319
S'screen_name'
p2320
VSample user
p2321
sS'money'
p2322
I50
sS'last_login'
p2323
S'2014-01-09T04:56:18.899521+00:00'
p2324
sS'exp'
p2325
I0
sS'gmail'
p2326
Vexample@gmail.com
p2327
sS'id'
p2328
I1
sS'date_joined'
p2329
S'2014-01-09T04:53:26.775143+00:00'
p2330
ssba(iutil.request_logging
SimpleRequest
p2331
(dp2332
g3
g4
(g5
g6
Ntp2333
Rp2334
(dp2335
g10
(g4
(g11
g12
(dp2336
Vtid
p2337
(lp2338
V15
p2339
asVtest
p2340
(lp2341
VTrue
p2342
asVhasnum
p2343
(lp2344
V800
p2345
astp2346
Rp2347
(dp2348
g26
S'utf-8'
p2349
sg28
(dp2350
g2337
g2338
sg2340
g2341
sg2343
g2344
ssS'_mutable'
p2351
I01
sbg4
(g11
g12
(dp2352
tp2353
Rp2354
(dp2355
S'_encoding'
p2356
g2349
sg28
(dp2357
sg2351
I00
sbtp2358
sbsg38
(dp2359
S'screen_name'
p2360
VSample user
p2361
sS'money'
p2362
I50
sS'last_login'
p2363
S'2014-01-09T04:56:18.899521+00:00'
p2364
sS'exp'
p2365
I0
sS'date_joined'
p2366
S'2014-01-09T04:53:26.775143+00:00'
p2367
sS'id'
p2368
I1
sS'gmail'
p2369
Vexample@gmail.com
p2370
ssba(iutil.request_logging
SimpleRequest
p2371
(dp2372
g3
g4
(g5
g6
Ntp2373
Rp2374
(dp2375
g10
(g4
(g11
g12
(dp2376
Vtid
p2377
(lp2378
V15
p2379
asVtest
p2380
(lp2381
VTrue
p2382
asVhasnum
p2383
(lp2384
V900
p2385
astp2386
Rp2387
(dp2388
g26
S'utf-8'
p2389
sg28
(dp2390
g2377
g2378
sg2380
g2381
sg2383
g2384
ssS'_mutable'
p2391
I01
sbg4
(g11
g12
(dp2392
tp2393
Rp2394
(dp2395
S'_encoding'
p2396
g2389
sg28
(dp2397
sg2391
I00
sbtp2398
sbsg38
(dp2399
S'screen_name'
p2400
VSample user
p2401
sS'money'
p2402
I50
sS'last_login'
p2403
S'2014-01-09T04:56:18.899521+00:00'
p2404
sS'exp'
p2405
I0
sS'gmail'
p2406
Vexample@gmail.com
p2407
sS'id'
p2408
I1
sS'date_joined'
p2409
S'2014-01-09T04:53:26.775143+00:00'
p2410
ssba(iutil.request_logging
SimpleRequest
p2411
(dp2412
g3
g4
(g5
g6
Ntp2413
Rp2414
(dp2415
g10
(g4
(g11
g12
(dp2416
Vtid
p2417
(lp2418
V18
p2419
asVtest
p2420
(lp2421
VTrue
p2422
asVhasnum
p2423
(lp2424
V0
p2425
astp2426
Rp2427
(dp2428
g26
S'utf-8'
p2429
sg28
(dp2430
g2417
g2418
sg2420
g2421
sg2423
g2424
ssS'_mutable'
p2431
I01
sbg4
(g11
g12
(dp2432
tp2433
Rp2434
(dp2435
S'_encoding'
p2436
g2429
sg28
(dp2437
sg2431
I00
sbtp2438
sbsg38
(dp2439
S'screen_name'
p2440
VSample user
p2441
sS'money'
p2442
I50
sS'last_login'
p2443
S'2014-01-09T04:56:18.899521+00:00'
p2444
sS'exp'
p2445
I0
sS'date_joined'
p2446
S'2014-01-09T04:53:26.775143+00:00'
p2447
sS'id'
p2448
I1
sS'gmail'
p2449
Vexample@gmail.com
p2450
ssba(iutil.request_logging
SimpleRequest
p2451
(dp2452
g3
g4
(g5
g6
Ntp2453
Rp2454
(dp2455
g10
(g4
(g11
g12
(dp2456
Vtid
p2457
(lp2458
V18
p2459
asVtest
p2460
(lp2461
VTrue
p2462
asVhasnum
p2463
(lp2464
V100
p2465
astp2466
Rp2467
(dp2468
g26
S'utf-8'
p2469
sg28
(dp2470
g2457
g2458
sg2460
g2461
sg2463
g2464
ssS'_mutable'
p2471
I01
sbg4
(g11
g12
(dp2472
tp2473
Rp2474
(dp2475
S'_encoding'
p2476
g2469
sg28
(dp2477
sg2471
I00
sbtp2478
sbsg38
(dp2479
S'screen_name'
p2480
VSample user
p2481
sS'money'
p2482
I50
sS'last_login'
p2483
S'2014-01-09T04:56:18.899521+00:00'
p2484
sS'exp'
p2485
I0
sS'gmail'
p2486
Vexample@gmail.com
p2487
sS'id'
p2488
I1
sS'date_joined'
p2489
S'2014-01-09T04:53:26.775143+00:00'
p2490
ssba(iutil.request_logging
SimpleRequest
p2491
(dp2492
g3
g4
(g5
g6
Ntp2493
Rp2494
(dp2495
g10
(g4
(g11
g12
(dp2496
Vtid
p2497
(lp2498
V18
p2499
asVtest
p2500
(lp2501
VTrue
p2502
asVhasnum
p2503
(lp2504
V200
p2505
astp2506
Rp2507
(dp2508
g26
S'utf-8'
p2509
sg28
(dp2510
g2497
g2498
sg2500
g2501
sg2503
g2504
ssS'_mutable'
p2511
I01
sbg4
(g11
g12
(dp2512
tp2513
Rp2514
(dp2515
S'_encoding'
p2516
g2509
sg28
(dp2517
sg2511
I00
sbtp2518
sbsg38
(dp2519
S'screen_name'
p2520
VSample user
p2521
sS'money'
p2522
I50
sS'last_login'
p2523
S'2014-01-09T04:56:18.899521+00:00'
p2524
sS'exp'
p2525
I0
sS'date_joined'
p2526
S'2014-01-09T04:53:26.775143+00:00'
p2527
sS'id'
p2528
I1
sS'gmail'
p2529
Vexample@gmail.com
p2530
ssba(iutil.request_logging
SimpleRequest
p2531
(dp2532
g3
g4
(g5
g6
Ntp2533
Rp2534
(dp2535
g10
(g4
(g11
g12
(dp2536
Vtid
p2537
(lp2538
V18
p2539
asVtest
p2540
(lp2541
VTrue
p2542
asVhasnum
p2543
(lp2544
V300
p2545
astp2546
Rp2547
(dp2548
g26
S'utf-8'
p2549
sg28
(dp2550
g2537
g2538
sg2540
g2541
sg2543
g2544
ssS'_mutable'
p2551
I01
sbg4
(g11
g12
(dp2552
tp2553
Rp2554
(dp2555
S'_encoding'
p2556
g2549
sg28
(dp2557
sg2551
I00
sbtp2558
sbsg38
(dp2559
S'screen_name'
p2560
VSample user
p2561
sS'money'
p2562
I50
sS'last_login'
p2563
S'2014-01-09T04:56:18.899521+00:00'
p2564
sS'exp'
p2565
I0
sS'gmail'
p2566
Vexample@gmail.com
p2567
sS'id'
p2568
I1
sS'date_joined'
p2569
S'2014-01-09T04:53:26.775143+00:00'
p2570
ssba(iutil.request_logging
SimpleRequest
p2571
(dp2572
g3
g4
(g5
g6
Ntp2573
Rp2574
(dp2575
g10
(g4
(g11
g12
(dp2576
Vtid
p2577
(lp2578
V18
p2579
asVtest
p2580
(lp2581
VTrue
p2582
asVhasnum
p2583
(lp2584
V400
p2585
astp2586
Rp2587
(dp2588
g26
S'utf-8'
p2589
sg28
(dp2590
g2577
g2578
sg2580
g2581
sg2583
g2584
ssS'_mutable'
p2591
I01
sbg4
(g11
g12
(dp2592
tp2593
Rp2594
(dp2595
S'_encoding'
p2596
g2589
sg28
(dp2597
sg2591
I00
sbtp2598
sbsg38
(dp2599
S'screen_name'
p2600
VSample user
p2601
sS'money'
p2602
I50
sS'last_login'
p2603
S'2014-01-09T04:56:18.899521+00:00'
p2604
sS'exp'
p2605
I0
sS'date_joined'
p2606
S'2014-01-09T04:53:26.775143+00:00'
p2607
sS'id'
p2608
I1
sS'gmail'
p2609
Vexample@gmail.com
p2610
ssba(iutil.request_logging
SimpleRequest
p2611
(dp2612
g3
g4
(g5
g6
Ntp2613
Rp2614
(dp2615
g10
(g4
(g11
g12
(dp2616
Vtid
p2617
(lp2618
V18
p2619
asVtest
p2620
(lp2621
VTrue
p2622
asVhasnum
p2623
(lp2624
V500
p2625
astp2626
Rp2627
(dp2628
g26
S'utf-8'
p2629
sg28
(dp2630
g2617
g2618
sg2620
g2621
sg2623
g2624
ssS'_mutable'
p2631
I01
sbg4
(g11
g12
(dp2632
tp2633
Rp2634
(dp2635
S'_encoding'
p2636
g2629
sg28
(dp2637
sg2631
I00
sbtp2638
sbsg38
(dp2639
S'screen_name'
p2640
VSample user
p2641
sS'money'
p2642
I50
sS'last_login'
p2643
S'2014-01-09T04:56:18.899521+00:00'
p2644
sS'exp'
p2645
I0
sS'gmail'
p2646
Vexample@gmail.com
p2647
sS'id'
p2648
I1
sS'date_joined'
p2649
S'2014-01-09T04:53:26.775143+00:00'
p2650
ssba(iutil.request_logging
SimpleRequest
p2651
(dp2652
g3
g4
(g5
g6
Ntp2653
Rp2654
(dp2655
g10
(g4
(g11
g12
(dp2656
Vtid
p2657
(lp2658
V18
p2659
asVtest
p2660
(lp2661
VTrue
p2662
asVhasnum
p2663
(lp2664
V600
p2665
astp2666
Rp2667
(dp2668
g26
S'utf-8'
p2669
sg28
(dp2670
g2657
g2658
sg2660
g2661
sg2663
g2664
ssS'_mutable'
p2671
I01
sbg4
(g11
g12
(dp2672
tp2673
Rp2674
(dp2675
S'_encoding'
p2676
g2669
sg28
(dp2677
sg2671
I00
sbtp2678
sbsg38
(dp2679
S'screen_name'
p2680
VSample user
p2681
sS'money'
p2682
I50
sS'last_login'
p2683
S'2014-01-09T04:56:18.899521+00:00'
p2684
sS'exp'
p2685
I0
sS'date_joined'
p2686
S'2014-01-09T04:53:26.775143+00:00'
p2687
sS'id'
p2688
I1
sS'gmail'
p2689
Vexample@gmail.com
p2690
ssba(iutil.request_logging
SimpleRequest
p2691
(dp2692
g3
g4
(g5
g6
Ntp2693
Rp2694
(dp2695
g10
(g4
(g11
g12
(dp2696
Vtid
p2697
(lp2698
V18
p2699
asVtest
p2700
(lp2701
VTrue
p2702
asVhasnum
p2703
(lp2704
V700
p2705
astp2706
Rp2707
(dp2708
g26
S'utf-8'
p2709
sg28
(dp2710
g2697
g2698
sg2700
g2701
sg2703
g2704
ssS'_mutable'
p2711
I01
sbg4
(g11
g12
(dp2712
tp2713
Rp2714
(dp2715
S'_encoding'
p2716
g2709
sg28
(dp2717
sg2711
I00
sbtp2718
sbsg38
(dp2719
S'screen_name'
p2720
VSample user
p2721
sS'money'
p2722
I50
sS'last_login'
p2723
S'2014-01-09T04:56:18.899521+00:00'
p2724
sS'exp'
p2725
I0
sS'gmail'
p2726
Vexample@gmail.com
p2727
sS'id'
p2728
I1
sS'date_joined'
p2729
S'2014-01-09T04:53:26.775143+00:00'
p2730
ssba(iutil.request_logging
SimpleRequest
p2731
(dp2732
g3
g4
(g5
g6
Ntp2733
Rp2734
(dp2735
g10
(g4
(g11
g12
(dp2736
Vtid
p2737
(lp2738
V18
p2739
asVtest
p2740
(lp2741
VTrue
p2742
asVhasnum
p2743
(lp2744
V800
p2745
astp2746
Rp2747
(dp2748
g26
S'utf-8'
p2749
sg28
(dp2750
g2737
g2738
sg2740
g2741
sg2743
g2744
ssS'_mutable'
p2751
I01
sbg4
(g11
g12
(dp2752
tp2753
Rp2754
(dp2755
S'_encoding'
p2756
g2749
sg28
(dp2757
sg2751
I00
sbtp2758
sbsg38
(dp2759
S'screen_name'
p2760
VSample user
p2761
sS'money'
p2762
I50
sS'last_login'
p2763
S'2014-01-09T04:56:18.899521+00:00'
p2764
sS'exp'
p2765
I0
sS'date_joined'
p2766
S'2014-01-09T04:53:26.775143+00:00'
p2767
sS'id'
p2768
I1
sS'gmail'
p2769
Vexample@gmail.com
p2770
ssba(iutil.request_logging
SimpleRequest
p2771
(dp2772
g3
g4
(g5
g6
Ntp2773
Rp2774
(dp2775
g10
(g4
(g11
g12
(dp2776
Vtid
p2777
(lp2778
V18
p2779
asVtest
p2780
(lp2781
VTrue
p2782
asVhasnum
p2783
(lp2784
V900
p2785
astp2786
Rp2787
(dp2788
g26
S'utf-8'
p2789
sg28
(dp2790
g2777
g2778
sg2780
g2781
sg2783
g2784
ssS'_mutable'
p2791
I01
sbg4
(g11
g12
(dp2792
tp2793
Rp2794
(dp2795
S'_encoding'
p2796
g2789
sg28
(dp2797
sg2791
I00
sbtp2798
sbsg38
(dp2799
S'screen_name'
p2800
VSample user
p2801
sS'money'
p2802
I50
sS'last_login'
p2803
S'2014-01-09T04:56:18.899521+00:00'
p2804
sS'exp'
p2805
I0
sS'gmail'
p2806
Vexample@gmail.com
p2807
sS'id'
p2808
I1
sS'date_joined'
p2809
S'2014-01-09T04:53:26.775143+00:00'
p2810
ssba(iutil.request_logging
SimpleRequest
p2811
(dp2812
g3
g4
(g5
g6
Ntp2813
Rp2814
(dp2815
g10
(g4
(g11
g12
(dp2816
Vtid
p2817
(lp2818
V21
p2819
asVtest
p2820
(lp2821
VTrue
p2822
asVhasnum
p2823
(lp2824
V0
p2825
astp2826
Rp2827
(dp2828
g26
S'utf-8'
p2829
sg28
(dp2830
g2817
g2818
sg2820
g2821
sg2823
g2824
ssS'_mutable'
p2831
I01
sbg4
(g11
g12
(dp2832
tp2833
Rp2834
(dp2835
S'_encoding'
p2836
g2829
sg28
(dp2837
sg2831
I00
sbtp2838
sbsg38
(dp2839
S'screen_name'
p2840
VSample user
p2841
sS'money'
p2842
I50
sS'last_login'
p2843
S'2014-01-09T04:56:18.899521+00:00'
p2844
sS'exp'
p2845
I0
sS'date_joined'
p2846
S'2014-01-09T04:53:26.775143+00:00'
p2847
sS'id'
p2848
I1
sS'gmail'
p2849
Vexample@gmail.com
p2850
ssba(iutil.request_logging
SimpleRequest
p2851
(dp2852
g3
g4
(g5
g6
Ntp2853
Rp2854
(dp2855
g10
(g4
(g11
g12
(dp2856
Vtid
p2857
(lp2858
V21
p2859
asVtest
p2860
(lp2861
VTrue
p2862
asVhasnum
p2863
(lp2864
V100
p2865
astp2866
Rp2867
(dp2868
g26
S'utf-8'
p2869
sg28
(dp2870
g2857
g2858
sg2860
g2861
sg2863
g2864
ssS'_mutable'
p2871
I01
sbg4
(g11
g12
(dp2872
tp2873
Rp2874
(dp2875
S'_encoding'
p2876
g2869
sg28
(dp2877
sg2871
I00
sbtp2878
sbsg38
(dp2879
S'screen_name'
p2880
VSample user
p2881
sS'money'
p2882
I50
sS'last_login'
p2883
S'2014-01-09T04:56:18.899521+00:00'
p2884
sS'exp'
p2885
I0
sS'gmail'
p2886
Vexample@gmail.com
p2887
sS'id'
p2888
I1
sS'date_joined'
p2889
S'2014-01-09T04:53:26.775143+00:00'
p2890
ssba(iutil.request_logging
SimpleRequest
p2891
(dp2892
g3
g4
(g5
g6
Ntp2893
Rp2894
(dp2895
g10
(g4
(g11
g12
(dp2896
Vtid
p2897
(lp2898
V21
p2899
asVtest
p2900
(lp2901
VTrue
p2902
asVhasnum
p2903
(lp2904
V200
p2905
astp2906
Rp2907
(dp2908
g26
S'utf-8'
p2909
sg28
(dp2910
g2897
g2898
sg2900
g2901
sg2903
g2904
ssS'_mutable'
p2911
I01
sbg4
(g11
g12
(dp2912
tp2913
Rp2914
(dp2915
S'_encoding'
p2916
g2909
sg28
(dp2917
sg2911
I00
sbtp2918
sbsg38
(dp2919
S'screen_name'
p2920
VSample user
p2921
sS'money'
p2922
I50
sS'last_login'
p2923
S'2014-01-09T04:56:18.899521+00:00'
p2924
sS'exp'
p2925
I0
sS'date_joined'
p2926
S'2014-01-09T04:53:26.775143+00:00'
p2927
sS'id'
p2928
I1
sS'gmail'
p2929
Vexample@gmail.com
p2930
ssba(iutil.request_logging
SimpleRequest
p2931
(dp2932
g3
g4
(g5
g6
Ntp2933
Rp2934
(dp2935
g10
(g4
(g11
g12
(dp2936
Vtid
p2937
(lp2938
V21
p2939
asVtest
p2940
(lp2941
VTrue
p2942
asVhasnum
p2943
(lp2944
V300
p2945
astp2946
Rp2947
(dp2948
g26
S'utf-8'
p2949
sg28
(dp2950
g2937
g2938
sg2940
g2941
sg2943
g2944
ssS'_mutable'
p2951
I01
sbg4
(g11
g12
(dp2952
tp2953
Rp2954
(dp2955
S'_encoding'
p2956
g2949
sg28
(dp2957
sg2951
I00
sbtp2958
sbsg38
(dp2959
S'screen_name'
p2960
VSample user
p2961
sS'money'
p2962
I50
sS'last_login'
p2963
S'2014-01-09T04:56:18.899521+00:00'
p2964
sS'exp'
p2965
I0
sS'gmail'
p2966
Vexample@gmail.com
p2967
sS'id'
p2968
I1
sS'date_joined'
p2969
S'2014-01-09T04:53:26.775143+00:00'
p2970
ssba(iutil.request_logging
SimpleRequest
p2971
(dp2972
g3
g4
(g5
g6
Ntp2973
Rp2974
(dp2975
g10
(g4
(g11
g12
(dp2976
Vtid
p2977
(lp2978
V21
p2979
asVtest
p2980
(lp2981
VTrue
p2982
asVhasnum
p2983
(lp2984
V400
p2985
astp2986
Rp2987
(dp2988
g26
S'utf-8'
p2989
sg28
(dp2990
g2977
g2978
sg2980
g2981
sg2983
g2984
ssS'_mutable'
p2991
I01
sbg4
(g11
g12
(dp2992
tp2993
Rp2994
(dp2995
S'_encoding'
p2996
g2989
sg28
(dp2997
sg2991
I00
sbtp2998
sbsg38
(dp2999
S'screen_name'
p3000
VSample user
p3001
sS'money'
p3002
I50
sS'last_login'
p3003
S'2014-01-09T04:56:18.899521+00:00'
p3004
sS'exp'
p3005
I0
sS'date_joined'
p3006
S'2014-01-09T04:53:26.775143+00:00'
p3007
sS'id'
p3008
I1
sS'gmail'
p3009
Vexample@gmail.com
p3010
ssba(iutil.request_logging
SimpleRequest
p3011
(dp3012
g3
g4
(g5
g6
Ntp3013
Rp3014
(dp3015
g10
(g4
(g11
g12
(dp3016
Vtid
p3017
(lp3018
V21
p3019
asVtest
p3020
(lp3021
VTrue
p3022
asVhasnum
p3023
(lp3024
V500
p3025
astp3026
Rp3027
(dp3028
g26
S'utf-8'
p3029
sg28
(dp3030
g3017
g3018
sg3020
g3021
sg3023
g3024
ssS'_mutable'
p3031
I01
sbg4
(g11
g12
(dp3032
tp3033
Rp3034
(dp3035
S'_encoding'
p3036
g3029
sg28
(dp3037
sg3031
I00
sbtp3038
sbsg38
(dp3039
S'screen_name'
p3040
VSample user
p3041
sS'money'
p3042
I50
sS'last_login'
p3043
S'2014-01-09T04:56:18.899521+00:00'
p3044
sS'exp'
p3045
I0
sS'gmail'
p3046
Vexample@gmail.com
p3047
sS'id'
p3048
I1
sS'date_joined'
p3049
S'2014-01-09T04:53:26.775143+00:00'
p3050
ssba(iutil.request_logging
SimpleRequest
p3051
(dp3052
g3
g4
(g5
g6
Ntp3053
Rp3054
(dp3055
g10
(g4
(g11
g12
(dp3056
Vtid
p3057
(lp3058
V21
p3059
asVtest
p3060
(lp3061
VTrue
p3062
asVhasnum
p3063
(lp3064
V600
p3065
astp3066
Rp3067
(dp3068
g26
S'utf-8'
p3069
sg28
(dp3070
g3057
g3058
sg3060
g3061
sg3063
g3064
ssS'_mutable'
p3071
I01
sbg4
(g11
g12
(dp3072
tp3073
Rp3074
(dp3075
S'_encoding'
p3076
g3069
sg28
(dp3077
sg3071
I00
sbtp3078
sbsg38
(dp3079
S'screen_name'
p3080
VSample user
p3081
sS'money'
p3082
I50
sS'last_login'
p3083
S'2014-01-09T04:56:18.899521+00:00'
p3084
sS'exp'
p3085
I0
sS'date_joined'
p3086
S'2014-01-09T04:53:26.775143+00:00'
p3087
sS'id'
p3088
I1
sS'gmail'
p3089
Vexample@gmail.com
p3090
ssba(iutil.request_logging
SimpleRequest
p3091
(dp3092
g3
g4
(g5
g6
Ntp3093
Rp3094
(dp3095
g10
(g4
(g11
g12
(dp3096
Vtid
p3097
(lp3098
V21
p3099
asVtest
p3100
(lp3101
VTrue
p3102
asVhasnum
p3103
(lp3104
V700
p3105
astp3106
Rp3107
(dp3108
g26
S'utf-8'
p3109
sg28
(dp3110
g3097
g3098
sg3100
g3101
sg3103
g3104
ssS'_mutable'
p3111
I01
sbg4
(g11
g12
(dp3112
tp3113
Rp3114
(dp3115
S'_encoding'
p3116
g3109
sg28
(dp3117
sg3111
I00
sbtp3118
sbsg38
(dp3119
S'screen_name'
p3120
VSample user
p3121
sS'money'
p3122
I50
sS'last_login'
p3123
S'2014-01-09T04:56:18.899521+00:00'
p3124
sS'exp'
p3125
I0
sS'gmail'
p3126
Vexample@gmail.com
p3127
sS'id'
p3128
I1
sS'date_joined'
p3129
S'2014-01-09T04:53:26.775143+00:00'
p3130
ssba(iutil.request_logging
SimpleRequest
p3131
(dp3132
g3
g4
(g5
g6
Ntp3133
Rp3134
(dp3135
g10
(g4
(g11
g12
(dp3136
Vtid
p3137
(lp3138
V21
p3139
asVtest
p3140
(lp3141
VTrue
p3142
asVhasnum
p3143
(lp3144
V800
p3145
astp3146
Rp3147
(dp3148
g26
S'utf-8'
p3149
sg28
(dp3150
g3137
g3138
sg3140
g3141
sg3143
g3144
ssS'_mutable'
p3151
I01
sbg4
(g11
g12
(dp3152
tp3153
Rp3154
(dp3155
S'_encoding'
p3156
g3149
sg28
(dp3157
sg3151
I00
sbtp3158
sbsg38
(dp3159
S'screen_name'
p3160
VSample user
p3161
sS'money'
p3162
I50
sS'last_login'
p3163
S'2014-01-09T04:56:18.899521+00:00'
p3164
sS'exp'
p3165
I0
sS'date_joined'
p3166
S'2014-01-09T04:53:26.775143+00:00'
p3167
sS'id'
p3168
I1
sS'gmail'
p3169
Vexample@gmail.com
p3170
ssba(iutil.request_logging
SimpleRequest
p3171
(dp3172
g3
g4
(g5
g6
Ntp3173
Rp3174
(dp3175
g10
(g4
(g11
g12
(dp3176
Vtid
p3177
(lp3178
V21
p3179
asVtest
p3180
(lp3181
VTrue
p3182
asVhasnum
p3183
(lp3184
V900
p3185
astp3186
Rp3187
(dp3188
g26
S'utf-8'
p3189
sg28
(dp3190
g3177
g3178
sg3180
g3181
sg3183
g3184
ssS'_mutable'
p3191
I01
sbg4
(g11
g12
(dp3192
tp3193
Rp3194
(dp3195
S'_encoding'
p3196
g3189
sg28
(dp3197
sg3191
I00
sbtp3198
sbsg38
(dp3199
S'screen_name'
p3200
VSample user
p3201
sS'money'
p3202
I50
sS'last_login'
p3203
S'2014-01-09T04:56:18.899521+00:00'
p3204
sS'exp'
p3205
I0
sS'gmail'
p3206
Vexample@gmail.com
p3207
sS'id'
p3208
I1
sS'date_joined'
p3209
S'2014-01-09T04:53:26.775143+00:00'
p3210
ssba(iutil.request_logging
SimpleRequest
p3211
(dp3212
g3
g4
(g5
g6
Ntp3213
Rp3214
(dp3215
g10
(g4
(g11
g12
(dp3216
Vtid
p3217
(lp3218
V24
p3219
asVtest
p3220
(lp3221
VTrue
p3222
asVhasnum
p3223
(lp3224
V0
p3225
astp3226
Rp3227
(dp3228
g26
S'utf-8'
p3229
sg28
(dp3230
g3217
g3218
sg3220
g3221
sg3223
g3224
ssS'_mutable'
p3231
I01
sbg4
(g11
g12
(dp3232
tp3233
Rp3234
(dp3235
S'_encoding'
p3236
g3229
sg28
(dp3237
sg3231
I00
sbtp3238
sbsg38
(dp3239
S'screen_name'
p3240
VSample user
p3241
sS'money'
p3242
I50
sS'last_login'
p3243
S'2014-01-09T04:56:18.899521+00:00'
p3244
sS'exp'
p3245
I0
sS'date_joined'
p3246
S'2014-01-09T04:53:26.775143+00:00'
p3247
sS'id'
p3248
I1
sS'gmail'
p3249
Vexample@gmail.com
p3250
ssba(iutil.request_logging
SimpleRequest
p3251
(dp3252
g3
g4
(g5
g6
Ntp3253
Rp3254
(dp3255
g10
(g4
(g11
g12
(dp3256
Vtid
p3257
(lp3258
V24
p3259
asVtest
p3260
(lp3261
VTrue
p3262
asVhasnum
p3263
(lp3264
V100
p3265
astp3266
Rp3267
(dp3268
g26
S'utf-8'
p3269
sg28
(dp3270
g3257
g3258
sg3260
g3261
sg3263
g3264
ssS'_mutable'
p3271
I01
sbg4
(g11
g12
(dp3272
tp3273
Rp3274
(dp3275
S'_encoding'
p3276
g3269
sg28
(dp3277
sg3271
I00
sbtp3278
sbsg38
(dp3279
S'screen_name'
p3280
VSample user
p3281
sS'money'
p3282
I50
sS'last_login'
p3283
S'2014-01-09T04:56:18.899521+00:00'
p3284
sS'exp'
p3285
I0
sS'gmail'
p3286
Vexample@gmail.com
p3287
sS'id'
p3288
I1
sS'date_joined'
p3289
S'2014-01-09T04:53:26.775143+00:00'
p3290
ssba(iutil.request_logging
SimpleRequest
p3291
(dp3292
g3
g4
(g5
g6
Ntp3293
Rp3294
(dp3295
g10
(g4
(g11
g12
(dp3296
Vtid
p3297
(lp3298
V24
p3299
asVtest
p3300
(lp3301
VTrue
p3302
asVhasnum
p3303
(lp3304
V200
p3305
astp3306
Rp3307
(dp3308
g26
S'utf-8'
p3309
sg28
(dp3310
g3297
g3298
sg3300
g3301
sg3303
g3304
ssS'_mutable'
p3311
I01
sbg4
(g11
g12
(dp3312
tp3313
Rp3314
(dp3315
S'_encoding'
p3316
g3309
sg28
(dp3317
sg3311
I00
sbtp3318
sbsg38
(dp3319
S'screen_name'
p3320
VSample user
p3321
sS'money'
p3322
I50
sS'last_login'
p3323
S'2014-01-09T04:56:18.899521+00:00'
p3324
sS'exp'
p3325
I0
sS'date_joined'
p3326
S'2014-01-09T04:53:26.775143+00:00'
p3327
sS'id'
p3328
I1
sS'gmail'
p3329
Vexample@gmail.com
p3330
ssba(iutil.request_logging
SimpleRequest
p3331
(dp3332
g3
g4
(g5
g6
Ntp3333
Rp3334
(dp3335
g10
(g4
(g11
g12
(dp3336
Vtid
p3337
(lp3338
V24
p3339
asVtest
p3340
(lp3341
VTrue
p3342
asVhasnum
p3343
(lp3344
V300
p3345
astp3346
Rp3347
(dp3348
g26
S'utf-8'
p3349
sg28
(dp3350
g3337
g3338
sg3340
g3341
sg3343
g3344
ssS'_mutable'
p3351
I01
sbg4
(g11
g12
(dp3352
tp3353
Rp3354
(dp3355
S'_encoding'
p3356
g3349
sg28
(dp3357
sg3351
I00
sbtp3358
sbsg38
(dp3359
S'screen_name'
p3360
VSample user
p3361
sS'money'
p3362
I50
sS'last_login'
p3363
S'2014-01-09T04:56:18.899521+00:00'
p3364
sS'exp'
p3365
I0
sS'gmail'
p3366
Vexample@gmail.com
p3367
sS'id'
p3368
I1
sS'date_joined'
p3369
S'2014-01-09T04:53:26.775143+00:00'
p3370
ssba(iutil.request_logging
SimpleRequest
p3371
(dp3372
g3
g4
(g5
g6
Ntp3373
Rp3374
(dp3375
g10
(g4
(g11
g12
(dp3376
Vtid
p3377
(lp3378
V24
p3379
asVtest
p3380
(lp3381
VTrue
p3382
asVhasnum
p3383
(lp3384
V400
p3385
astp3386
Rp3387
(dp3388
g26
S'utf-8'
p3389
sg28
(dp3390
g3377
g3378
sg3380
g3381
sg3383
g3384
ssS'_mutable'
p3391
I01
sbg4
(g11
g12
(dp3392
tp3393
Rp3394
(dp3395
S'_encoding'
p3396
g3389
sg28
(dp3397
sg3391
I00
sbtp3398
sbsg38
(dp3399
S'screen_name'
p3400
VSample user
p3401
sS'money'
p3402
I50
sS'last_login'
p3403
S'2014-01-09T04:56:18.899521+00:00'
p3404
sS'exp'
p3405
I0
sS'date_joined'
p3406
S'2014-01-09T04:53:26.775143+00:00'
p3407
sS'id'
p3408
I1
sS'gmail'
p3409
Vexample@gmail.com
p3410
ssba(iutil.request_logging
SimpleRequest
p3411
(dp3412
g3
g4
(g5
g6
Ntp3413
Rp3414
(dp3415
g10
(g4
(g11
g12
(dp3416
Vtid
p3417
(lp3418
V24
p3419
asVtest
p3420
(lp3421
VTrue
p3422
asVhasnum
p3423
(lp3424
V500
p3425
astp3426
Rp3427
(dp3428
g26
S'utf-8'
p3429
sg28
(dp3430
g3417
g3418
sg3420
g3421
sg3423
g3424
ssS'_mutable'
p3431
I01
sbg4
(g11
g12
(dp3432
tp3433
Rp3434
(dp3435
S'_encoding'
p3436
g3429
sg28
(dp3437
sg3431
I00
sbtp3438
sbsg38
(dp3439
S'screen_name'
p3440
VSample user
p3441
sS'money'
p3442
I50
sS'last_login'
p3443
S'2014-01-09T04:56:18.899521+00:00'
p3444
sS'exp'
p3445
I0
sS'gmail'
p3446
Vexample@gmail.com
p3447
sS'id'
p3448
I1
sS'date_joined'
p3449
S'2014-01-09T04:53:26.775143+00:00'
p3450
ssba(iutil.request_logging
SimpleRequest
p3451
(dp3452
g3
g4
(g5
g6
Ntp3453
Rp3454
(dp3455
g10
(g4
(g11
g12
(dp3456
Vtid
p3457
(lp3458
V24
p3459
asVtest
p3460
(lp3461
VTrue
p3462
asVhasnum
p3463
(lp3464
V600
p3465
astp3466
Rp3467
(dp3468
g26
S'utf-8'
p3469
sg28
(dp3470
g3457
g3458
sg3460
g3461
sg3463
g3464
ssS'_mutable'
p3471
I01
sbg4
(g11
g12
(dp3472
tp3473
Rp3474
(dp3475
S'_encoding'
p3476
g3469
sg28
(dp3477
sg3471
I00
sbtp3478
sbsg38
(dp3479
S'screen_name'
p3480
VSample user
p3481
sS'money'
p3482
I50
sS'last_login'
p3483
S'2014-01-09T04:56:18.899521+00:00'
p3484
sS'exp'
p3485
I0
sS'date_joined'
p3486
S'2014-01-09T04:53:26.775143+00:00'
p3487
sS'id'
p3488
I1
sS'gmail'
p3489
Vexample@gmail.com
p3490
ssba(iutil.request_logging
SimpleRequest
p3491
(dp3492
g3
g4
(g5
g6
Ntp3493
Rp3494
(dp3495
g10
(g4
(g11
g12
(dp3496
Vtid
p3497
(lp3498
V24
p3499
asVtest
p3500
(lp3501
VTrue
p3502
asVhasnum
p3503
(lp3504
V700
p3505
astp3506
Rp3507
(dp3508
g26
S'utf-8'
p3509
sg28
(dp3510
g3497
g3498
sg3500
g3501
sg3503
g3504
ssS'_mutable'
p3511
I01
sbg4
(g11
g12
(dp3512
tp3513
Rp3514
(dp3515
S'_encoding'
p3516
g3509
sg28
(dp3517
sg3511
I00
sbtp3518
sbsg38
(dp3519
S'screen_name'
p3520
VSample user
p3521
sS'money'
p3522
I50
sS'last_login'
p3523
S'2014-01-09T04:56:18.899521+00:00'
p3524
sS'exp'
p3525
I0
sS'gmail'
p3526
Vexample@gmail.com
p3527
sS'id'
p3528
I1
sS'date_joined'
p3529
S'2014-01-09T04:53:26.775143+00:00'
p3530
ssba(iutil.request_logging
SimpleRequest
p3531
(dp3532
g3
g4
(g5
g6
Ntp3533
Rp3534
(dp3535
g10
(g4
(g11
g12
(dp3536
Vtid
p3537
(lp3538
V24
p3539
asVtest
p3540
(lp3541
VTrue
p3542
asVhasnum
p3543
(lp3544
V800
p3545
astp3546
Rp3547
(dp3548
g26
S'utf-8'
p3549
sg28
(dp3550
g3537
g3538
sg3540
g3541
sg3543
g3544
ssS'_mutable'
p3551
I01
sbg4
(g11
g12
(dp3552
tp3553
Rp3554
(dp3555
S'_encoding'
p3556
g3549
sg28
(dp3557
sg3551
I00
sbtp3558
sbsg38
(dp3559
S'screen_name'
p3560
VSample user
p3561
sS'money'
p3562
I50
sS'last_login'
p3563
S'2014-01-09T04:56:18.899521+00:00'
p3564
sS'exp'
p3565
I0
sS'date_joined'
p3566
S'2014-01-09T04:53:26.775143+00:00'
p3567
sS'id'
p3568
I1
sS'gmail'
p3569
Vexample@gmail.com
p3570
ssba(iutil.request_logging
SimpleRequest
p3571
(dp3572
g3
g4
(g5
g6
Ntp3573
Rp3574
(dp3575
g10
(g4
(g11
g12
(dp3576
Vtid
p3577
(lp3578
V24
p3579
asVtest
p3580
(lp3581
VTrue
p3582
asVhasnum
p3583
(lp3584
V900
p3585
astp3586
Rp3587
(dp3588
g26
S'utf-8'
p3589
sg28
(dp3590
g3577
g3578
sg3580
g3581
sg3583
g3584
ssS'_mutable'
p3591
I01
sbg4
(g11
g12
(dp3592
tp3593
Rp3594
(dp3595
S'_encoding'
p3596
g3589
sg28
(dp3597
sg3591
I00
sbtp3598
sbsg38
(dp3599
S'screen_name'
p3600
VSample user
p3601
sS'money'
p3602
I50
sS'last_login'
p3603
S'2014-01-09T04:56:18.899521+00:00'
p3604
sS'exp'
p3605
I0
sS'gmail'
p3606
Vexample@gmail.com
p3607
sS'id'
p3608
I1
sS'date_joined'
p3609
S'2014-01-09T04:53:26.775143+00:00'
p3610
ssba(iutil.request_logging
SimpleRequest
p3611
(dp3612
g3
g4
(g5
g6
Ntp3613
Rp3614
(dp3615
g10
(g4
(g11
g12
(dp3616
Vtid
p3617
(lp3618
V27
p3619
asVtest
p3620
(lp3621
VTrue
p3622
asVhasnum
p3623
(lp3624
V0
p3625
astp3626
Rp3627
(dp3628
g26
S'utf-8'
p3629
sg28
(dp3630
g3617
g3618
sg3620
g3621
sg3623
g3624
ssS'_mutable'
p3631
I01
sbg4
(g11
g12
(dp3632
tp3633
Rp3634
(dp3635
S'_encoding'
p3636
g3629
sg28
(dp3637
sg3631
I00
sbtp3638
sbsg38
(dp3639
S'screen_name'
p3640
VSample user
p3641
sS'money'
p3642
I50
sS'last_login'
p3643
S'2014-01-09T04:56:18.899521+00:00'
p3644
sS'exp'
p3645
I0
sS'date_joined'
p3646
S'2014-01-09T04:53:26.775143+00:00'
p3647
sS'id'
p3648
I1
sS'gmail'
p3649
Vexample@gmail.com
p3650
ssba(iutil.request_logging
SimpleRequest
p3651
(dp3652
g3
g4
(g5
g6
Ntp3653
Rp3654
(dp3655
g10
(g4
(g11
g12
(dp3656
Vtid
p3657
(lp3658
V27
p3659
asVtest
p3660
(lp3661
VTrue
p3662
asVhasnum
p3663
(lp3664
V100
p3665
astp3666
Rp3667
(dp3668
g26
S'utf-8'
p3669
sg28
(dp3670
g3657
g3658
sg3660
g3661
sg3663
g3664
ssS'_mutable'
p3671
I01
sbg4
(g11
g12
(dp3672
tp3673
Rp3674
(dp3675
S'_encoding'
p3676
g3669
sg28
(dp3677
sg3671
I00
sbtp3678
sbsg38
(dp3679
S'screen_name'
p3680
VSample user
p3681
sS'money'
p3682
I50
sS'last_login'
p3683
S'2014-01-09T04:56:18.899521+00:00'
p3684
sS'exp'
p3685
I0
sS'gmail'
p3686
Vexample@gmail.com
p3687
sS'id'
p3688
I1
sS'date_joined'
p3689
S'2014-01-09T04:53:26.775143+00:00'
p3690
ssba(iutil.request_logging
SimpleRequest
p3691
(dp3692
g3
g4
(g5
g6
Ntp3693
Rp3694
(dp3695
g10
(g4
(g11
g12
(dp3696
Vtid
p3697
(lp3698
V27
p3699
asVtest
p3700
(lp3701
VTrue
p3702
asVhasnum
p3703
(lp3704
V200
p3705
astp3706
Rp3707
(dp3708
g26
S'utf-8'
p3709
sg28
(dp3710
g3697
g3698
sg3700
g3701
sg3703
g3704
ssS'_mutable'
p3711
I01
sbg4
(g11
g12
(dp3712
tp3713
Rp3714
(dp3715
S'_encoding'
p3716
g3709
sg28
(dp3717
sg3711
I00
sbtp3718
sbsg38
(dp3719
S'screen_name'
p3720
VSample user
p3721
sS'money'
p3722
I50
sS'last_login'
p3723
S'2014-01-09T04:56:18.899521+00:00'
p3724
sS'exp'
p3725
I0
sS'date_joined'
p3726
S'2014-01-09T04:53:26.775143+00:00'
p3727
sS'id'
p3728
I1
sS'gmail'
p3729
Vexample@gmail.com
p3730
ssba(iutil.request_logging
SimpleRequest
p3731
(dp3732
g3
g4
(g5
g6
Ntp3733
Rp3734
(dp3735
g10
(g4
(g11
g12
(dp3736
Vtid
p3737
(lp3738
V27
p3739
asVtest
p3740
(lp3741
VTrue
p3742
asVhasnum
p3743
(lp3744
V300
p3745
astp3746
Rp3747
(dp3748
g26
S'utf-8'
p3749
sg28
(dp3750
g3737
g3738
sg3740
g3741
sg3743
g3744
ssS'_mutable'
p3751
I01
sbg4
(g11
g12
(dp3752
tp3753
Rp3754
(dp3755
S'_encoding'
p3756
g3749
sg28
(dp3757
sg3751
I00
sbtp3758
sbsg38
(dp3759
S'screen_name'
p3760
VSample user
p3761
sS'money'
p3762
I50
sS'last_login'
p3763
S'2014-01-09T04:56:18.899521+00:00'
p3764
sS'exp'
p3765
I0
sS'gmail'
p3766
Vexample@gmail.com
p3767
sS'id'
p3768
I1
sS'date_joined'
p3769
S'2014-01-09T04:53:26.775143+00:00'
p3770
ssba(iutil.request_logging
SimpleRequest
p3771
(dp3772
g3
g4
(g5
g6
Ntp3773
Rp3774
(dp3775
g10
(g4
(g11
g12
(dp3776
Vtid
p3777
(lp3778
V27
p3779
asVtest
p3780
(lp3781
VTrue
p3782
asVhasnum
p3783
(lp3784
V400
p3785
astp3786
Rp3787
(dp3788
g26
S'utf-8'
p3789
sg28
(dp3790
g3777
g3778
sg3780
g3781
sg3783
g3784
ssS'_mutable'
p3791
I01
sbg4
(g11
g12
(dp3792
tp3793
Rp3794
(dp3795
S'_encoding'
p3796
g3789
sg28
(dp3797
sg3791
I00
sbtp3798
sbsg38
(dp3799
S'screen_name'
p3800
VSample user
p3801
sS'money'
p3802
I50
sS'last_login'
p3803
S'2014-01-09T04:56:18.899521+00:00'
p3804
sS'exp'
p3805
I0
sS'date_joined'
p3806
S'2014-01-09T04:53:26.775143+00:00'
p3807
sS'id'
p3808
I1
sS'gmail'
p3809
Vexample@gmail.com
p3810
ssba(iutil.request_logging
SimpleRequest
p3811
(dp3812
g3
g4
(g5
g6
Ntp3813
Rp3814
(dp3815
g10
(g4
(g11
g12
(dp3816
Vtid
p3817
(lp3818
V27
p3819
asVtest
p3820
(lp3821
VTrue
p3822
asVhasnum
p3823
(lp3824
V500
p3825
astp3826
Rp3827
(dp3828
g26
S'utf-8'
p3829
sg28
(dp3830
g3817
g3818
sg3820
g3821
sg3823
g3824
ssS'_mutable'
p3831
I01
sbg4
(g11
g12
(dp3832
tp3833
Rp3834
(dp3835
S'_encoding'
p3836
g3829
sg28
(dp3837
sg3831
I00
sbtp3838
sbsg38
(dp3839
S'screen_name'
p3840
VSample user
p3841
sS'money'
p3842
I50
sS'last_login'
p3843
S'2014-01-09T04:56:18.899521+00:00'
p3844
sS'exp'
p3845
I0
sS'gmail'
p3846
Vexample@gmail.com
p3847
sS'id'
p3848
I1
sS'date_joined'
p3849
S'2014-01-09T04:53:26.775143+00:00'
p3850
ssba(iutil.request_logging
SimpleRequest
p3851
(dp3852
g3
g4
(g5
g6
Ntp3853
Rp3854
(dp3855
g10
(g4
(g11
g12
(dp3856
Vtid
p3857
(lp3858
V27
p3859
asVtest
p3860
(lp3861
VTrue
p3862
asVhasnum
p3863
(lp3864
V600
p3865
astp3866
Rp3867
(dp3868
g26
S'utf-8'
p3869
sg28
(dp3870
g3857
g3858
sg3860
g3861
sg3863
g3864
ssS'_mutable'
p3871
I01
sbg4
(g11
g12
(dp3872
tp3873
Rp3874
(dp3875
S'_encoding'
p3876
g3869
sg28
(dp3877
sg3871
I00
sbtp3878
sbsg38
(dp3879
S'screen_name'
p3880
VSample user
p3881
sS'money'
p3882
I50
sS'last_login'
p3883
S'2014-01-09T04:56:18.899521+00:00'
p3884
sS'exp'
p3885
I0
sS'date_joined'
p3886
S'2014-01-09T04:53:26.775143+00:00'
p3887
sS'id'
p3888
I1
sS'gmail'
p3889
Vexample@gmail.com
p3890
ssba(iutil.request_logging
SimpleRequest
p3891
(dp3892
g3
g4
(g5
g6
Ntp3893
Rp3894
(dp3895
g10
(g4
(g11
g12
(dp3896
Vtid
p3897
(lp3898
V27
p3899
asVtest
p3900
(lp3901
VTrue
p3902
asVhasnum
p3903
(lp3904
V700
p3905
astp3906
Rp3907
(dp3908
g26
S'utf-8'
p3909
sg28
(dp3910
g3897
g3898
sg3900
g3901
sg3903
g3904
ssS'_mutable'
p3911
I01
sbg4
(g11
g12
(dp3912
tp3913
Rp3914
(dp3915
S'_encoding'
p3916
g3909
sg28
(dp3917
sg3911
I00
sbtp3918
sbsg38
(dp3919
S'screen_name'
p3920
VSample user
p3921
sS'money'
p3922
I50
sS'last_login'
p3923
S'2014-01-09T04:56:18.899521+00:00'
p3924
sS'exp'
p3925
I0
sS'gmail'
p3926
Vexample@gmail.com
p3927
sS'id'
p3928
I1
sS'date_joined'
p3929
S'2014-01-09T04:53:26.775143+00:00'
p3930
ssba(iutil.request_logging
SimpleRequest
p3931
(dp3932
g3
g4
(g5
g6
Ntp3933
Rp3934
(dp3935
g10
(g4
(g11
g12
(dp3936
Vtid
p3937
(lp3938
V27
p3939
asVtest
p3940
(lp3941
VTrue
p3942
asVhasnum
p3943
(lp3944
V800
p3945
astp3946
Rp3947
(dp3948
g26
S'utf-8'
p3949
sg28
(dp3950
g3937
g3938
sg3940
g3941
sg3943
g3944
ssS'_mutable'
p3951
I01
sbg4
(g11
g12
(dp3952
tp3953
Rp3954
(dp3955
S'_encoding'
p3956
g3949
sg28
(dp3957
sg3951
I00
sbtp3958
sbsg38
(dp3959
S'screen_name'
p3960
VSample user
p3961
sS'money'
p3962
I50
sS'last_login'
p3963
S'2014-01-09T04:56:18.899521+00:00'
p3964
sS'exp'
p3965
I0
sS'date_joined'
p3966
S'2014-01-09T04:53:26.775143+00:00'
p3967
sS'id'
p3968
I1
sS'gmail'
p3969
Vexample@gmail.com
p3970
ssba(iutil.request_logging
SimpleRequest
p3971
(dp3972
g3
g4
(g5
g6
Ntp3973
Rp3974
(dp3975
g10
(g4
(g11
g12
(dp3976
Vtid
p3977
(lp3978
V27
p3979
asVtest
p3980
(lp3981
VTrue
p3982
asVhasnum
p3983
(lp3984
V900
p3985
astp3986
Rp3987
(dp3988
g26
S'utf-8'
p3989
sg28
(dp3990
g3977
g3978
sg3980
g3981
sg3983
g3984
ssS'_mutable'
p3991
I01
sbg4
(g11
g12
(dp3992
tp3993
Rp3994
(dp3995
S'_encoding'
p3996
g3989
sg28
(dp3997
sg3991
I00
sbtp3998
sbsg38
(dp3999
S'screen_name'
p4000
VSample user
p4001
sS'money'
p4002
I50
sS'last_login'
p4003
S'2014-01-09T04:56:18.899521+00:00'
p4004
sS'exp'
p4005
I0
sS'gmail'
p4006
Vexample@gmail.com
p4007
sS'id'
p4008
I1
sS'date_joined'
p4009
S'2014-01-09T04:53:26.775143+00:00'
p4010
ssba(iutil.request_logging
SimpleRequest
p4011
(dp4012
g3
g4
(g5
g6
Ntp4013
Rp4014
(dp4015
g10
(g4
(g11
g12
(dp4016
Vtid
p4017
(lp4018
V30
p4019
asVtest
p4020
(lp4021
VTrue
p4022
asVhasnum
p4023
(lp4024
V0
p4025
astp4026
Rp4027
(dp4028
g26
S'utf-8'
p4029
sg28
(dp4030
g4017
g4018
sg4020
g4021
sg4023
g4024
ssS'_mutable'
p4031
I01
sbg4
(g11
g12
(dp4032
tp4033
Rp4034
(dp4035
S'_encoding'
p4036
g4029
sg28
(dp4037
sg4031
I00
sbtp4038
sbsg38
(dp4039
S'screen_name'
p4040
VSample user
p4041
sS'money'
p4042
I50
sS'last_login'
p4043
S'2014-01-09T04:56:18.899521+00:00'
p4044
sS'exp'
p4045
I0
sS'date_joined'
p4046
S'2014-01-09T04:53:26.775143+00:00'
p4047
sS'id'
p4048
I1
sS'gmail'
p4049
Vexample@gmail.com
p4050
ssba(iutil.request_logging
SimpleRequest
p4051
(dp4052
g3
g4
(g5
g6
Ntp4053
Rp4054
(dp4055
g10
(g4
(g11
g12
(dp4056
Vtid
p4057
(lp4058
V30
p4059
asVtest
p4060
(lp4061
VTrue
p4062
asVhasnum
p4063
(lp4064
V100
p4065
astp4066
Rp4067
(dp4068
g26
S'utf-8'
p4069
sg28
(dp4070
g4057
g4058
sg4060
g4061
sg4063
g4064
ssS'_mutable'
p4071
I01
sbg4
(g11
g12
(dp4072
tp4073
Rp4074
(dp4075
S'_encoding'
p4076
g4069
sg28
(dp4077
sg4071
I00
sbtp4078
sbsg38
(dp4079
S'screen_name'
p4080
VSample user
p4081
sS'money'
p4082
I50
sS'last_login'
p4083
S'2014-01-09T04:56:18.899521+00:00'
p4084
sS'exp'
p4085
I0
sS'gmail'
p4086
Vexample@gmail.com
p4087
sS'id'
p4088
I1
sS'date_joined'
p4089
S'2014-01-09T04:53:26.775143+00:00'
p4090
ssba(iutil.request_logging
SimpleRequest
p4091
(dp4092
g3
g4
(g5
g6
Ntp4093
Rp4094
(dp4095
g10
(g4
(g11
g12
(dp4096
Vtid
p4097
(lp4098
V30
p4099
asVtest
p4100
(lp4101
VTrue
p4102
asVhasnum
p4103
(lp4104
V200
p4105
astp4106
Rp4107
(dp4108
g26
S'utf-8'
p4109
sg28
(dp4110
g4097
g4098
sg4100
g4101
sg4103
g4104
ssS'_mutable'
p4111
I01
sbg4
(g11
g12
(dp4112
tp4113
Rp4114
(dp4115
S'_encoding'
p4116
g4109
sg28
(dp4117
sg4111
I00
sbtp4118
sbsg38
(dp4119
S'screen_name'
p4120
VSample user
p4121
sS'money'
p4122
I50
sS'last_login'
p4123
S'2014-01-09T04:56:18.899521+00:00'
p4124
sS'exp'
p4125
I0
sS'date_joined'
p4126
S'2014-01-09T04:53:26.775143+00:00'
p4127
sS'id'
p4128
I1
sS'gmail'
p4129
Vexample@gmail.com
p4130
ssba(iutil.request_logging
SimpleRequest
p4131
(dp4132
g3
g4
(g5
g6
Ntp4133
Rp4134
(dp4135
g10
(g4
(g11
g12
(dp4136
Vtid
p4137
(lp4138
V30
p4139
asVtest
p4140
(lp4141
VTrue
p4142
asVhasnum
p4143
(lp4144
V300
p4145
astp4146
Rp4147
(dp4148
g26
S'utf-8'
p4149
sg28
(dp4150
g4137
g4138
sg4140
g4141
sg4143
g4144
ssS'_mutable'
p4151
I01
sbg4
(g11
g12
(dp4152
tp4153
Rp4154
(dp4155
S'_encoding'
p4156
g4149
sg28
(dp4157
sg4151
I00
sbtp4158
sbsg38
(dp4159
S'screen_name'
p4160
VSample user
p4161
sS'money'
p4162
I50
sS'last_login'
p4163
S'2014-01-09T04:56:18.899521+00:00'
p4164
sS'exp'
p4165
I0
sS'gmail'
p4166
Vexample@gmail.com
p4167
sS'id'
p4168
I1
sS'date_joined'
p4169
S'2014-01-09T04:53:26.775143+00:00'
p4170
ssba(iutil.request_logging
SimpleRequest
p4171
(dp4172
g3
g4
(g5
g6
Ntp4173
Rp4174
(dp4175
g10
(g4
(g11
g12
(dp4176
Vtid
p4177
(lp4178
V30
p4179
asVtest
p4180
(lp4181
VTrue
p4182
asVhasnum
p4183
(lp4184
V400
p4185
astp4186
Rp4187
(dp4188
g26
S'utf-8'
p4189
sg28
(dp4190
g4177
g4178
sg4180
g4181
sg4183
g4184
ssS'_mutable'
p4191
I01
sbg4
(g11
g12
(dp4192
tp4193
Rp4194
(dp4195
S'_encoding'
p4196
g4189
sg28
(dp4197
sg4191
I00
sbtp4198
sbsg38
(dp4199
S'screen_name'
p4200
VSample user
p4201
sS'money'
p4202
I50
sS'last_login'
p4203
S'2014-01-09T04:56:18.899521+00:00'
p4204
sS'exp'
p4205
I0
sS'date_joined'
p4206
S'2014-01-09T04:53:26.775143+00:00'
p4207
sS'id'
p4208
I1
sS'gmail'
p4209
Vexample@gmail.com
p4210
ssba(iutil.request_logging
SimpleRequest
p4211
(dp4212
g3
g4
(g5
g6
Ntp4213
Rp4214
(dp4215
g10
(g4
(g11
g12
(dp4216
Vtid
p4217
(lp4218
V30
p4219
asVtest
p4220
(lp4221
VTrue
p4222
asVhasnum
p4223
(lp4224
V500
p4225
astp4226
Rp4227
(dp4228
g26
S'utf-8'
p4229
sg28
(dp4230
g4217
g4218
sg4220
g4221
sg4223
g4224
ssS'_mutable'
p4231
I01
sbg4
(g11
g12
(dp4232
tp4233
Rp4234
(dp4235
S'_encoding'
p4236
g4229
sg28
(dp4237
sg4231
I00
sbtp4238
sbsg38
(dp4239
S'screen_name'
p4240
VSample user
p4241
sS'money'
p4242
I50
sS'last_login'
p4243
S'2014-01-09T04:56:18.899521+00:00'
p4244
sS'exp'
p4245
I0
sS'gmail'
p4246
Vexample@gmail.com
p4247
sS'id'
p4248
I1
sS'date_joined'
p4249
S'2014-01-09T04:53:26.775143+00:00'
p4250
ssba(iutil.request_logging
SimpleRequest
p4251
(dp4252
g3
g4
(g5
g6
Ntp4253
Rp4254
(dp4255
g10
(g4
(g11
g12
(dp4256
Vtid
p4257
(lp4258
V30
p4259
asVtest
p4260
(lp4261
VTrue
p4262
asVhasnum
p4263
(lp4264
V600
p4265
astp4266
Rp4267
(dp4268
g26
S'utf-8'
p4269
sg28
(dp4270
g4257
g4258
sg4260
g4261
sg4263
g4264
ssS'_mutable'
p4271
I01
sbg4
(g11
g12
(dp4272
tp4273
Rp4274
(dp4275
S'_encoding'
p4276
g4269
sg28
(dp4277
sg4271
I00
sbtp4278
sbsg38
(dp4279
S'screen_name'
p4280
VSample user
p4281
sS'money'
p4282
I50
sS'last_login'
p4283
S'2014-01-09T04:56:18.899521+00:00'
p4284
sS'exp'
p4285
I0
sS'date_joined'
p4286
S'2014-01-09T04:53:26.775143+00:00'
p4287
sS'id'
p4288
I1
sS'gmail'
p4289
Vexample@gmail.com
p4290
ssba(iutil.request_logging
SimpleRequest
p4291
(dp4292
g3
g4
(g5
g6
Ntp4293
Rp4294
(dp4295
g10
(g4
(g11
g12
(dp4296
Vtid
p4297
(lp4298
V30
p4299
asVtest
p4300
(lp4301
VTrue
p4302
asVhasnum
p4303
(lp4304
V700
p4305
astp4306
Rp4307
(dp4308
g26
S'utf-8'
p4309
sg28
(dp4310
g4297
g4298
sg4300
g4301
sg4303
g4304
ssS'_mutable'
p4311
I01
sbg4
(g11
g12
(dp4312
tp4313
Rp4314
(dp4315
S'_encoding'
p4316
g4309
sg28
(dp4317
sg4311
I00
sbtp4318
sbsg38
(dp4319
S'screen_name'
p4320
VSample user
p4321
sS'money'
p4322
I50
sS'last_login'
p4323
S'2014-01-09T04:56:18.899521+00:00'
p4324
sS'exp'
p4325
I0
sS'gmail'
p4326
Vexample@gmail.com
p4327
sS'id'
p4328
I1
sS'date_joined'
p4329
S'2014-01-09T04:53:26.775143+00:00'
p4330
ssba(iutil.request_logging
SimpleRequest
p4331
(dp4332
g3
g4
(g5
g6
Ntp4333
Rp4334
(dp4335
g10
(g4
(g11
g12
(dp4336
Vtid
p4337
(lp4338
V30
p4339
asVtest
p4340
(lp4341
VTrue
p4342
asVhasnum
p4343
(lp4344
V800
p4345
astp4346
Rp4347
(dp4348
g26
S'utf-8'
p4349
sg28
(dp4350
g4337
g4338
sg4340
g4341
sg4343
g4344
ssS'_mutable'
p4351
I01
sbg4
(g11
g12
(dp4352
tp4353
Rp4354
(dp4355
S'_encoding'
p4356
g4349
sg28
(dp4357
sg4351
I00
sbtp4358
sbsg38
(dp4359
S'screen_name'
p4360
VSample user
p4361
sS'money'
p4362
I50
sS'last_login'
p4363
S'2014-01-09T04:56:18.899521+00:00'
p4364
sS'exp'
p4365
I0
sS'date_joined'
p4366
S'2014-01-09T04:53:26.775143+00:00'
p4367
sS'id'
p4368
I1
sS'gmail'
p4369
Vexample@gmail.com
p4370
ssba(iutil.request_logging
SimpleRequest
p4371
(dp4372
g3
g4
(g5
g6
Ntp4373
Rp4374
(dp4375
g10
(g4
(g11
g12
(dp4376
Vtid
p4377
(lp4378
V30
p4379
asVtest
p4380
(lp4381
VTrue
p4382
asVhasnum
p4383
(lp4384
V900
p4385
astp4386
Rp4387
(dp4388
g26
S'utf-8'
p4389
sg28
(dp4390
g4377
g4378
sg4380
g4381
sg4383
g4384
ssS'_mutable'
p4391
I01
sbg4
(g11
g12
(dp4392
tp4393
Rp4394
(dp4395
S'_encoding'
p4396
g4389
sg28
(dp4397
sg4391
I00
sbtp4398
sbsg38
(dp4399
S'screen_name'
p4400
VSample user
p4401
sS'money'
p4402
I50
sS'last_login'
p4403
S'2014-01-09T04:56:18.899521+00:00'
p4404
sS'exp'
p4405
I0
sS'gmail'
p4406
Vexample@gmail.com
p4407
sS'id'
p4408
I1
sS'date_joined'
p4409
S'2014-01-09T04:53:26.775143+00:00'
p4410
ssba(iutil.request_logging
SimpleRequest
p4411
(dp4412
g3
g4
(g5
g6
Ntp4413
Rp4414
(dp4415
g10
(g4
(g11
g12
(dp4416
Vtid
p4417
(lp4418
V33
p4419
asVtest
p4420
(lp4421
VTrue
p4422
asVhasnum
p4423
(lp4424
V0
p4425
astp4426
Rp4427
(dp4428
g26
S'utf-8'
p4429
sg28
(dp4430
g4417
g4418
sg4420
g4421
sg4423
g4424
ssS'_mutable'
p4431
I01
sbg4
(g11
g12
(dp4432
tp4433
Rp4434
(dp4435
S'_encoding'
p4436
g4429
sg28
(dp4437
sg4431
I00
sbtp4438
sbsg38
(dp4439
S'screen_name'
p4440
VSample user
p4441
sS'money'
p4442
I50
sS'last_login'
p4443
S'2014-01-09T04:56:18.899521+00:00'
p4444
sS'exp'
p4445
I0
sS'date_joined'
p4446
S'2014-01-09T04:53:26.775143+00:00'
p4447
sS'id'
p4448
I1
sS'gmail'
p4449
Vexample@gmail.com
p4450
ssba(iutil.request_logging
SimpleRequest
p4451
(dp4452
g3
g4
(g5
g6
Ntp4453
Rp4454
(dp4455
g10
(g4
(g11
g12
(dp4456
Vtid
p4457
(lp4458
V33
p4459
asVtest
p4460
(lp4461
VTrue
p4462
asVhasnum
p4463
(lp4464
V100
p4465
astp4466
Rp4467
(dp4468
g26
S'utf-8'
p4469
sg28
(dp4470
g4457
g4458
sg4460
g4461
sg4463
g4464
ssS'_mutable'
p4471
I01
sbg4
(g11
g12
(dp4472
tp4473
Rp4474
(dp4475
S'_encoding'
p4476
g4469
sg28
(dp4477
sg4471
I00
sbtp4478
sbsg38
(dp4479
S'screen_name'
p4480
VSample user
p4481
sS'money'
p4482
I50
sS'last_login'
p4483
S'2014-01-09T04:56:18.899521+00:00'
p4484
sS'exp'
p4485
I0
sS'gmail'
p4486
Vexample@gmail.com
p4487
sS'id'
p4488
I1
sS'date_joined'
p4489
S'2014-01-09T04:53:26.775143+00:00'
p4490
ssba(iutil.request_logging
SimpleRequest
p4491
(dp4492
g3
g4
(g5
g6
Ntp4493
Rp4494
(dp4495
g10
(g4
(g11
g12
(dp4496
Vtid
p4497
(lp4498
V33
p4499
asVtest
p4500
(lp4501
VTrue
p4502
asVhasnum
p4503
(lp4504
V200
p4505
astp4506
Rp4507
(dp4508
g26
S'utf-8'
p4509
sg28
(dp4510
g4497
g4498
sg4500
g4501
sg4503
g4504
ssS'_mutable'
p4511
I01
sbg4
(g11
g12
(dp4512
tp4513
Rp4514
(dp4515
S'_encoding'
p4516
g4509
sg28
(dp4517
sg4511
I00
sbtp4518
sbsg38
(dp4519
S'screen_name'
p4520
VSample user
p4521
sS'money'
p4522
I50
sS'last_login'
p4523
S'2014-01-09T04:56:18.899521+00:00'
p4524
sS'exp'
p4525
I0
sS'date_joined'
p4526
S'2014-01-09T04:53:26.775143+00:00'
p4527
sS'id'
p4528
I1
sS'gmail'
p4529
Vexample@gmail.com
p4530
ssba(iutil.request_logging
SimpleRequest
p4531
(dp4532
g3
g4
(g5
g6
Ntp4533
Rp4534
(dp4535
g10
(g4
(g11
g12
(dp4536
Vtid
p4537
(lp4538
V33
p4539
asVtest
p4540
(lp4541
VTrue
p4542
asVhasnum
p4543
(lp4544
V300
p4545
astp4546
Rp4547
(dp4548
g26
S'utf-8'
p4549
sg28
(dp4550
g4537
g4538
sg4540
g4541
sg4543
g4544
ssS'_mutable'
p4551
I01
sbg4
(g11
g12
(dp4552
tp4553
Rp4554
(dp4555
S'_encoding'
p4556
g4549
sg28
(dp4557
sg4551
I00
sbtp4558
sbsg38
(dp4559
S'screen_name'
p4560
VSample user
p4561
sS'money'
p4562
I50
sS'last_login'
p4563
S'2014-01-09T04:56:18.899521+00:00'
p4564
sS'exp'
p4565
I0
sS'gmail'
p4566
Vexample@gmail.com
p4567
sS'id'
p4568
I1
sS'date_joined'
p4569
S'2014-01-09T04:53:26.775143+00:00'
p4570
ssba(iutil.request_logging
SimpleRequest
p4571
(dp4572
g3
g4
(g5
g6
Ntp4573
Rp4574
(dp4575
g10
(g4
(g11
g12
(dp4576
Vtid
p4577
(lp4578
V33
p4579
asVtest
p4580
(lp4581
VTrue
p4582
asVhasnum
p4583
(lp4584
V400
p4585
astp4586
Rp4587
(dp4588
g26
S'utf-8'
p4589
sg28
(dp4590
g4577
g4578
sg4580
g4581
sg4583
g4584
ssS'_mutable'
p4591
I01
sbg4
(g11
g12
(dp4592
tp4593
Rp4594
(dp4595
S'_encoding'
p4596
g4589
sg28
(dp4597
sg4591
I00
sbtp4598
sbsg38
(dp4599
S'screen_name'
p4600
VSample user
p4601
sS'money'
p4602
I50
sS'last_login'
p4603
S'2014-01-09T04:56:18.899521+00:00'
p4604
sS'exp'
p4605
I0
sS'date_joined'
p4606
S'2014-01-09T04:53:26.775143+00:00'
p4607
sS'id'
p4608
I1
sS'gmail'
p4609
Vexample@gmail.com
p4610
ssba(iutil.request_logging
SimpleRequest
p4611
(dp4612
g3
g4
(g5
g6
Ntp4613
Rp4614
(dp4615
g10
(g4
(g11
g12
(dp4616
Vtid
p4617
(lp4618
V33
p4619
asVtest
p4620
(lp4621
VTrue
p4622
asVhasnum
p4623
(lp4624
V500
p4625
astp4626
Rp4627
(dp4628
g26
S'utf-8'
p4629
sg28
(dp4630
g4617
g4618
sg4620
g4621
sg4623
g4624
ssS'_mutable'
p4631
I01
sbg4
(g11
g12
(dp4632
tp4633
Rp4634
(dp4635
S'_encoding'
p4636
g4629
sg28
(dp4637
sg4631
I00
sbtp4638
sbsg38
(dp4639
S'screen_name'
p4640
VSample user
p4641
sS'money'
p4642
I50
sS'last_login'
p4643
S'2014-01-09T04:56:18.899521+00:00'
p4644
sS'exp'
p4645
I0
sS'gmail'
p4646
Vexample@gmail.com
p4647
sS'id'
p4648
I1
sS'date_joined'
p4649
S'2014-01-09T04:53:26.775143+00:00'
p4650
ssba(iutil.request_logging
SimpleRequest
p4651
(dp4652
g3
g4
(g5
g6
Ntp4653
Rp4654
(dp4655
g10
(g4
(g11
g12
(dp4656
Vtid
p4657
(lp4658
V33
p4659
asVtest
p4660
(lp4661
VTrue
p4662
asVhasnum
p4663
(lp4664
V600
p4665
astp4666
Rp4667
(dp4668
g26
S'utf-8'
p4669
sg28
(dp4670
g4657
g4658
sg4660
g4661
sg4663
g4664
ssS'_mutable'
p4671
I01
sbg4
(g11
g12
(dp4672
tp4673
Rp4674
(dp4675
S'_encoding'
p4676
g4669
sg28
(dp4677
sg4671
I00
sbtp4678
sbsg38
(dp4679
S'screen_name'
p4680
VSample user
p4681
sS'money'
p4682
I50
sS'last_login'
p4683
S'2014-01-09T04:56:18.899521+00:00'
p4684
sS'exp'
p4685
I0
sS'date_joined'
p4686
S'2014-01-09T04:53:26.775143+00:00'
p4687
sS'id'
p4688
I1
sS'gmail'
p4689
Vexample@gmail.com
p4690
ssba(iutil.request_logging
SimpleRequest
p4691
(dp4692
g3
g4
(g5
g6
Ntp4693
Rp4694
(dp4695
g10
(g4
(g11
g12
(dp4696
Vtid
p4697
(lp4698
V33
p4699
asVtest
p4700
(lp4701
VTrue
p4702
asVhasnum
p4703
(lp4704
V700
p4705
astp4706
Rp4707
(dp4708
g26
S'utf-8'
p4709
sg28
(dp4710
g4697
g4698
sg4700
g4701
sg4703
g4704
ssS'_mutable'
p4711
I01
sbg4
(g11
g12
(dp4712
tp4713
Rp4714
(dp4715
S'_encoding'
p4716
g4709
sg28
(dp4717
sg4711
I00
sbtp4718
sbsg38
(dp4719
S'screen_name'
p4720
VSample user
p4721
sS'money'
p4722
I50
sS'last_login'
p4723
S'2014-01-09T04:56:18.899521+00:00'
p4724
sS'exp'
p4725
I0
sS'gmail'
p4726
Vexample@gmail.com
p4727
sS'id'
p4728
I1
sS'date_joined'
p4729
S'2014-01-09T04:53:26.775143+00:00'
p4730
ssba(iutil.request_logging
SimpleRequest
p4731
(dp4732
g3
g4
(g5
g6
Ntp4733
Rp4734
(dp4735
g10
(g4
(g11
g12
(dp4736
Vtid
p4737
(lp4738
V33
p4739
asVtest
p4740
(lp4741
VTrue
p4742
asVhasnum
p4743
(lp4744
V800
p4745
astp4746
Rp4747
(dp4748
g26
S'utf-8'
p4749
sg28
(dp4750
g4737
g4738
sg4740
g4741
sg4743
g4744
ssS'_mutable'
p4751
I01
sbg4
(g11
g12
(dp4752
tp4753
Rp4754
(dp4755
S'_encoding'
p4756
g4749
sg28
(dp4757
sg4751
I00
sbtp4758
sbsg38
(dp4759
S'screen_name'
p4760
VSample user
p4761
sS'money'
p4762
I50
sS'last_login'
p4763
S'2014-01-09T04:56:18.899521+00:00'
p4764
sS'exp'
p4765
I0
sS'date_joined'
p4766
S'2014-01-09T04:53:26.775143+00:00'
p4767
sS'id'
p4768
I1
sS'gmail'
p4769
Vexample@gmail.com
p4770
ssba(iutil.request_logging
SimpleRequest
p4771
(dp4772
g3
g4
(g5
g6
Ntp4773
Rp4774
(dp4775
g10
(g4
(g11
g12
(dp4776
Vtid
p4777
(lp4778
V33
p4779
asVtest
p4780
(lp4781
VTrue
p4782
asVhasnum
p4783
(lp4784
V900
p4785
astp4786
Rp4787
(dp4788
g26
S'utf-8'
p4789
sg28
(dp4790
g4777
g4778
sg4780
g4781
sg4783
g4784
ssS'_mutable'
p4791
I01
sbg4
(g11
g12
(dp4792
tp4793
Rp4794
(dp4795
S'_encoding'
p4796
g4789
sg28
(dp4797
sg4791
I00
sbtp4798
sbsg38
(dp4799
S'screen_name'
p4800
VSample user
p4801
sS'money'
p4802
I50
sS'last_login'
p4803
S'2014-01-09T04:56:18.899521+00:00'
p4804
sS'exp'
p4805
I0
sS'gmail'
p4806
Vexample@gmail.com
p4807
sS'id'
p4808
I1
sS'date_joined'
p4809
S'2014-01-09T04:53:26.775143+00:00'
p4810
ssba(iutil.request_logging
SimpleRequest
p4811
(dp4812
g3
g4
(g5
g6
Ntp4813
Rp4814
(dp4815
g10
(g4
(g11
g12
(dp4816
Vtid
p4817
(lp4818
V36
p4819
asVtest
p4820
(lp4821
VTrue
p4822
asVhasnum
p4823
(lp4824
V0
p4825
astp4826
Rp4827
(dp4828
g26
S'utf-8'
p4829
sg28
(dp4830
g4817
g4818
sg4820
g4821
sg4823
g4824
ssS'_mutable'
p4831
I01
sbg4
(g11
g12
(dp4832
tp4833
Rp4834
(dp4835
S'_encoding'
p4836
g4829
sg28
(dp4837
sg4831
I00
sbtp4838
sbsg38
(dp4839
S'screen_name'
p4840
VSample user
p4841
sS'money'
p4842
I50
sS'last_login'
p4843
S'2014-01-09T04:56:18.899521+00:00'
p4844
sS'exp'
p4845
I0
sS'date_joined'
p4846
S'2014-01-09T04:53:26.775143+00:00'
p4847
sS'id'
p4848
I1
sS'gmail'
p4849
Vexample@gmail.com
p4850
ssba(iutil.request_logging
SimpleRequest
p4851
(dp4852
g3
g4
(g5
g6
Ntp4853
Rp4854
(dp4855
g10
(g4
(g11
g12
(dp4856
Vtid
p4857
(lp4858
V36
p4859
asVtest
p4860
(lp4861
VTrue
p4862
asVhasnum
p4863
(lp4864
V100
p4865
astp4866
Rp4867
(dp4868
g26
S'utf-8'
p4869
sg28
(dp4870
g4857
g4858
sg4860
g4861
sg4863
g4864
ssS'_mutable'
p4871
I01
sbg4
(g11
g12
(dp4872
tp4873
Rp4874
(dp4875
S'_encoding'
p4876
g4869
sg28
(dp4877
sg4871
I00
sbtp4878
sbsg38
(dp4879
S'screen_name'
p4880
VSample user
p4881
sS'money'
p4882
I50
sS'last_login'
p4883
S'2014-01-09T04:56:18.899521+00:00'
p4884
sS'exp'
p4885
I0
sS'gmail'
p4886
Vexample@gmail.com
p4887
sS'id'
p4888
I1
sS'date_joined'
p4889
S'2014-01-09T04:53:26.775143+00:00'
p4890
ssba(iutil.request_logging
SimpleRequest
p4891
(dp4892
g3
g4
(g5
g6
Ntp4893
Rp4894
(dp4895
g10
(g4
(g11
g12
(dp4896
Vtid
p4897
(lp4898
V36
p4899
asVtest
p4900
(lp4901
VTrue
p4902
asVhasnum
p4903
(lp4904
V200
p4905
astp4906
Rp4907
(dp4908
g26
S'utf-8'
p4909
sg28
(dp4910
g4897
g4898
sg4900
g4901
sg4903
g4904
ssS'_mutable'
p4911
I01
sbg4
(g11
g12
(dp4912
tp4913
Rp4914
(dp4915
S'_encoding'
p4916
g4909
sg28
(dp4917
sg4911
I00
sbtp4918
sbsg38
(dp4919
S'screen_name'
p4920
VSample user
p4921
sS'money'
p4922
I50
sS'last_login'
p4923
S'2014-01-09T04:56:18.899521+00:00'
p4924
sS'exp'
p4925
I0
sS'date_joined'
p4926
S'2014-01-09T04:53:26.775143+00:00'
p4927
sS'id'
p4928
I1
sS'gmail'
p4929
Vexample@gmail.com
p4930
ssba(iutil.request_logging
SimpleRequest
p4931
(dp4932
g3
g4
(g5
g6
Ntp4933
Rp4934
(dp4935
g10
(g4
(g11
g12
(dp4936
Vtid
p4937
(lp4938
V36
p4939
asVtest
p4940
(lp4941
VTrue
p4942
asVhasnum
p4943
(lp4944
V300
p4945
astp4946
Rp4947
(dp4948
g26
S'utf-8'
p4949
sg28
(dp4950
g4937
g4938
sg4940
g4941
sg4943
g4944
ssS'_mutable'
p4951
I01
sbg4
(g11
g12
(dp4952
tp4953
Rp4954
(dp4955
S'_encoding'
p4956
g4949
sg28
(dp4957
sg4951
I00
sbtp4958
sbsg38
(dp4959
S'screen_name'
p4960
VSample user
p4961
sS'money'
p4962
I50
sS'last_login'
p4963
S'2014-01-09T04:56:18.899521+00:00'
p4964
sS'exp'
p4965
I0
sS'gmail'
p4966
Vexample@gmail.com
p4967
sS'id'
p4968
I1
sS'date_joined'
p4969
S'2014-01-09T04:53:26.775143+00:00'
p4970
ssba(iutil.request_logging
SimpleRequest
p4971
(dp4972
g3
g4
(g5
g6
Ntp4973
Rp4974
(dp4975
g10
(g4
(g11
g12
(dp4976
Vtid
p4977
(lp4978
V36
p4979
asVtest
p4980
(lp4981
VTrue
p4982
asVhasnum
p4983
(lp4984
V400
p4985
astp4986
Rp4987
(dp4988
g26
S'utf-8'
p4989
sg28
(dp4990
g4977
g4978
sg4980
g4981
sg4983
g4984
ssS'_mutable'
p4991
I01
sbg4
(g11
g12
(dp4992
tp4993
Rp4994
(dp4995
S'_encoding'
p4996
g4989
sg28
(dp4997
sg4991
I00
sbtp4998
sbsg38
(dp4999
S'screen_name'
p5000
VSample user
p5001
sS'money'
p5002
I50
sS'last_login'
p5003
S'2014-01-09T04:56:18.899521+00:00'
p5004
sS'exp'
p5005
I0
sS'date_joined'
p5006
S'2014-01-09T04:53:26.775143+00:00'
p5007
sS'id'
p5008
I1
sS'gmail'
p5009
Vexample@gmail.com
p5010
ssba(iutil.request_logging
SimpleRequest
p5011
(dp5012
g3
g4
(g5
g6
Ntp5013
Rp5014
(dp5015
g10
(g4
(g11
g12
(dp5016
Vtid
p5017
(lp5018
V36
p5019
asVtest
p5020
(lp5021
VTrue
p5022
asVhasnum
p5023
(lp5024
V500
p5025
astp5026
Rp5027
(dp5028
g26
S'utf-8'
p5029
sg28
(dp5030
g5017
g5018
sg5020
g5021
sg5023
g5024
ssS'_mutable'
p5031
I01
sbg4
(g11
g12
(dp5032
tp5033
Rp5034
(dp5035
S'_encoding'
p5036
g5029
sg28
(dp5037
sg5031
I00
sbtp5038
sbsg38
(dp5039
S'screen_name'
p5040
VSample user
p5041
sS'money'
p5042
I50
sS'last_login'
p5043
S'2014-01-09T04:56:18.899521+00:00'
p5044
sS'exp'
p5045
I0
sS'gmail'
p5046
Vexample@gmail.com
p5047
sS'id'
p5048
I1
sS'date_joined'
p5049
S'2014-01-09T04:53:26.775143+00:00'
p5050
ssba(iutil.request_logging
SimpleRequest
p5051
(dp5052
g3
g4
(g5
g6
Ntp5053
Rp5054
(dp5055
g10
(g4
(g11
g12
(dp5056
Vtid
p5057
(lp5058
V36
p5059
asVtest
p5060
(lp5061
VTrue
p5062
asVhasnum
p5063
(lp5064
V600
p5065
astp5066
Rp5067
(dp5068
g26
S'utf-8'
p5069
sg28
(dp5070
g5057
g5058
sg5060
g5061
sg5063
g5064
ssS'_mutable'
p5071
I01
sbg4
(g11
g12
(dp5072
tp5073
Rp5074
(dp5075
S'_encoding'
p5076
g5069
sg28
(dp5077
sg5071
I00
sbtp5078
sbsg38
(dp5079
S'screen_name'
p5080
VSample user
p5081
sS'money'
p5082
I50
sS'last_login'
p5083
S'2014-01-09T04:56:18.899521+00:00'
p5084
sS'exp'
p5085
I0
sS'date_joined'
p5086
S'2014-01-09T04:53:26.775143+00:00'
p5087
sS'id'
p5088
I1
sS'gmail'
p5089
Vexample@gmail.com
p5090
ssba(iutil.request_logging
SimpleRequest
p5091
(dp5092
g3
g4
(g5
g6
Ntp5093
Rp5094
(dp5095
g10
(g4
(g11
g12
(dp5096
Vtid
p5097
(lp5098
V36
p5099
asVtest
p5100
(lp5101
VTrue
p5102
asVhasnum
p5103
(lp5104
V700
p5105
astp5106
Rp5107
(dp5108
g26
S'utf-8'
p5109
sg28
(dp5110
g5097
g5098
sg5100
g5101
sg5103
g5104
ssS'_mutable'
p5111
I01
sbg4
(g11
g12
(dp5112
tp5113
Rp5114
(dp5115
S'_encoding'
p5116
g5109
sg28
(dp5117
sg5111
I00
sbtp5118
sbsg38
(dp5119
S'screen_name'
p5120
VSample user
p5121
sS'money'
p5122
I50
sS'last_login'
p5123
S'2014-01-09T04:56:18.899521+00:00'
p5124
sS'exp'
p5125
I0
sS'gmail'
p5126
Vexample@gmail.com
p5127
sS'id'
p5128
I1
sS'date_joined'
p5129
S'2014-01-09T04:53:26.775143+00:00'
p5130
ssba(iutil.request_logging
SimpleRequest
p5131
(dp5132
g3
g4
(g5
g6
Ntp5133
Rp5134
(dp5135
g10
(g4
(g11
g12
(dp5136
Vtid
p5137
(lp5138
V36
p5139
asVtest
p5140
(lp5141
VTrue
p5142
asVhasnum
p5143
(lp5144
V800
p5145
astp5146
Rp5147
(dp5148
g26
S'utf-8'
p5149
sg28
(dp5150
g5137
g5138
sg5140
g5141
sg5143
g5144
ssS'_mutable'
p5151
I01
sbg4
(g11
g12
(dp5152
tp5153
Rp5154
(dp5155
S'_encoding'
p5156
g5149
sg28
(dp5157
sg5151
I00
sbtp5158
sbsg38
(dp5159
S'screen_name'
p5160
VSample user
p5161
sS'money'
p5162
I50
sS'last_login'
p5163
S'2014-01-09T04:56:18.899521+00:00'
p5164
sS'exp'
p5165
I0
sS'date_joined'
p5166
S'2014-01-09T04:53:26.775143+00:00'
p5167
sS'id'
p5168
I1
sS'gmail'
p5169
Vexample@gmail.com
p5170
ssba(iutil.request_logging
SimpleRequest
p5171
(dp5172
g3
g4
(g5
g6
Ntp5173
Rp5174
(dp5175
g10
(g4
(g11
g12
(dp5176
Vtid
p5177
(lp5178
V36
p5179
asVtest
p5180
(lp5181
VTrue
p5182
asVhasnum
p5183
(lp5184
V900
p5185
astp5186
Rp5187
(dp5188
g26
S'utf-8'
p5189
sg28
(dp5190
g5177
g5178
sg5180
g5181
sg5183
g5184
ssS'_mutable'
p5191
I01
sbg4
(g11
g12
(dp5192
tp5193
Rp5194
(dp5195
S'_encoding'
p5196
g5189
sg28
(dp5197
sg5191
I00
sbtp5198
sbsg38
(dp5199
S'screen_name'
p5200
VSample user
p5201
sS'money'
p5202
I50
sS'last_login'
p5203
S'2014-01-09T04:56:18.899521+00:00'
p5204
sS'exp'
p5205
I0
sS'gmail'
p5206
Vexample@gmail.com
p5207
sS'id'
p5208
I1
sS'date_joined'
p5209
S'2014-01-09T04:53:26.775143+00:00'
p5210
ssba(iutil.request_logging
SimpleRequest
p5211
(dp5212
g3
g4
(g5
g6
Ntp5213
Rp5214
(dp5215
g10
(g4
(g11
g12
(dp5216
Vtid
p5217
(lp5218
V39
p5219
asVtest
p5220
(lp5221
VTrue
p5222
asVhasnum
p5223
(lp5224
V0
p5225
astp5226
Rp5227
(dp5228
g26
S'utf-8'
p5229
sg28
(dp5230
g5217
g5218
sg5220
g5221
sg5223
g5224
ssS'_mutable'
p5231
I01
sbg4
(g11
g12
(dp5232
tp5233
Rp5234
(dp5235
S'_encoding'
p5236
g5229
sg28
(dp5237
sg5231
I00
sbtp5238
sbsg38
(dp5239
S'screen_name'
p5240
VSample user
p5241
sS'money'
p5242
I50
sS'last_login'
p5243
S'2014-01-09T04:56:18.899521+00:00'
p5244
sS'exp'
p5245
I0
sS'date_joined'
p5246
S'2014-01-09T04:53:26.775143+00:00'
p5247
sS'id'
p5248
I1
sS'gmail'
p5249
Vexample@gmail.com
p5250
ssba(iutil.request_logging
SimpleRequest
p5251
(dp5252
g3
g4
(g5
g6
Ntp5253
Rp5254
(dp5255
g10
(g4
(g11
g12
(dp5256
Vtid
p5257
(lp5258
V39
p5259
asVtest
p5260
(lp5261
VTrue
p5262
asVhasnum
p5263
(lp5264
V100
p5265
astp5266
Rp5267
(dp5268
g26
S'utf-8'
p5269
sg28
(dp5270
g5257
g5258
sg5260
g5261
sg5263
g5264
ssS'_mutable'
p5271
I01
sbg4
(g11
g12
(dp5272
tp5273
Rp5274
(dp5275
S'_encoding'
p5276
g5269
sg28
(dp5277
sg5271
I00
sbtp5278
sbsg38
(dp5279
S'screen_name'
p5280
VSample user
p5281
sS'money'
p5282
I50
sS'last_login'
p5283
S'2014-01-09T04:56:18.899521+00:00'
p5284
sS'exp'
p5285
I0
sS'gmail'
p5286
Vexample@gmail.com
p5287
sS'id'
p5288
I1
sS'date_joined'
p5289
S'2014-01-09T04:53:26.775143+00:00'
p5290
ssba(iutil.request_logging
SimpleRequest
p5291
(dp5292
g3
g4
(g5
g6
Ntp5293
Rp5294
(dp5295
g10
(g4
(g11
g12
(dp5296
Vtid
p5297
(lp5298
V39
p5299
asVtest
p5300
(lp5301
VTrue
p5302
asVhasnum
p5303
(lp5304
V200
p5305
astp5306
Rp5307
(dp5308
g26
S'utf-8'
p5309
sg28
(dp5310
g5297
g5298
sg5300
g5301
sg5303
g5304
ssS'_mutable'
p5311
I01
sbg4
(g11
g12
(dp5312
tp5313
Rp5314
(dp5315
S'_encoding'
p5316
g5309
sg28
(dp5317
sg5311
I00
sbtp5318
sbsg38
(dp5319
S'screen_name'
p5320
VSample user
p5321
sS'money'
p5322
I50
sS'last_login'
p5323
S'2014-01-09T04:56:18.899521+00:00'
p5324
sS'exp'
p5325
I0
sS'date_joined'
p5326
S'2014-01-09T04:53:26.775143+00:00'
p5327
sS'id'
p5328
I1
sS'gmail'
p5329
Vexample@gmail.com
p5330
ssba(iutil.request_logging
SimpleRequest
p5331
(dp5332
g3
g4
(g5
g6
Ntp5333
Rp5334
(dp5335
g10
(g4
(g11
g12
(dp5336
Vtid
p5337
(lp5338
V39
p5339
asVtest
p5340
(lp5341
VTrue
p5342
asVhasnum
p5343
(lp5344
V300
p5345
astp5346
Rp5347
(dp5348
g26
S'utf-8'
p5349
sg28
(dp5350
g5337
g5338
sg5340
g5341
sg5343
g5344
ssS'_mutable'
p5351
I01
sbg4
(g11
g12
(dp5352
tp5353
Rp5354
(dp5355
S'_encoding'
p5356
g5349
sg28
(dp5357
sg5351
I00
sbtp5358
sbsg38
(dp5359
S'screen_name'
p5360
VSample user
p5361
sS'money'
p5362
I50
sS'last_login'
p5363
S'2014-01-09T04:56:18.899521+00:00'
p5364
sS'exp'
p5365
I0
sS'gmail'
p5366
Vexample@gmail.com
p5367
sS'id'
p5368
I1
sS'date_joined'
p5369
S'2014-01-09T04:53:26.775143+00:00'
p5370
ssba(iutil.request_logging
SimpleRequest
p5371
(dp5372
g3
g4
(g5
g6
Ntp5373
Rp5374
(dp5375
g10
(g4
(g11
g12
(dp5376
Vtid
p5377
(lp5378
V39
p5379
asVtest
p5380
(lp5381
VTrue
p5382
asVhasnum
p5383
(lp5384
V400
p5385
astp5386
Rp5387
(dp5388
g26
S'utf-8'
p5389
sg28
(dp5390
g5377
g5378
sg5380
g5381
sg5383
g5384
ssS'_mutable'
p5391
I01
sbg4
(g11
g12
(dp5392
tp5393
Rp5394
(dp5395
S'_encoding'
p5396
g5389
sg28
(dp5397
sg5391
I00
sbtp5398
sbsg38
(dp5399
S'screen_name'
p5400
VSample user
p5401
sS'money'
p5402
I50
sS'last_login'
p5403
S'2014-01-09T04:56:18.899521+00:00'
p5404
sS'exp'
p5405
I0
sS'date_joined'
p5406
S'2014-01-09T04:53:26.775143+00:00'
p5407
sS'id'
p5408
I1
sS'gmail'
p5409
Vexample@gmail.com
p5410
ssba(iutil.request_logging
SimpleRequest
p5411
(dp5412
g3
g4
(g5
g6
Ntp5413
Rp5414
(dp5415
g10
(g4
(g11
g12
(dp5416
Vtid
p5417
(lp5418
V39
p5419
asVtest
p5420
(lp5421
VTrue
p5422
asVhasnum
p5423
(lp5424
V500
p5425
astp5426
Rp5427
(dp5428
g26
S'utf-8'
p5429
sg28
(dp5430
g5417
g5418
sg5420
g5421
sg5423
g5424
ssS'_mutable'
p5431
I01
sbg4
(g11
g12
(dp5432
tp5433
Rp5434
(dp5435
S'_encoding'
p5436
g5429
sg28
(dp5437
sg5431
I00
sbtp5438
sbsg38
(dp5439
S'screen_name'
p5440
VSample user
p5441
sS'money'
p5442
I50
sS'last_login'
p5443
S'2014-01-09T04:56:18.899521+00:00'
p5444
sS'exp'
p5445
I0
sS'gmail'
p5446
Vexample@gmail.com
p5447
sS'id'
p5448
I1
sS'date_joined'
p5449
S'2014-01-09T04:53:26.775143+00:00'
p5450
ssba(iutil.request_logging
SimpleRequest
p5451
(dp5452
g3
g4
(g5
g6
Ntp5453
Rp5454
(dp5455
g10
(g4
(g11
g12
(dp5456
Vtid
p5457
(lp5458
V39
p5459
asVtest
p5460
(lp5461
VTrue
p5462
asVhasnum
p5463
(lp5464
V600
p5465
astp5466
Rp5467
(dp5468
g26
S'utf-8'
p5469
sg28
(dp5470
g5457
g5458
sg5460
g5461
sg5463
g5464
ssS'_mutable'
p5471
I01
sbg4
(g11
g12
(dp5472
tp5473
Rp5474
(dp5475
S'_encoding'
p5476
g5469
sg28
(dp5477
sg5471
I00
sbtp5478
sbsg38
(dp5479
S'screen_name'
p5480
VSample user
p5481
sS'money'
p5482
I50
sS'last_login'
p5483
S'2014-01-09T04:56:18.899521+00:00'
p5484
sS'exp'
p5485
I0
sS'date_joined'
p5486
S'2014-01-09T04:53:26.775143+00:00'
p5487
sS'id'
p5488
I1
sS'gmail'
p5489
Vexample@gmail.com
p5490
ssba(iutil.request_logging
SimpleRequest
p5491
(dp5492
g3
g4
(g5
g6
Ntp5493
Rp5494
(dp5495
g10
(g4
(g11
g12
(dp5496
Vtid
p5497
(lp5498
V39
p5499
asVtest
p5500
(lp5501
VTrue
p5502
asVhasnum
p5503
(lp5504
V700
p5505
astp5506
Rp5507
(dp5508
g26
S'utf-8'
p5509
sg28
(dp5510
g5497
g5498
sg5500
g5501
sg5503
g5504
ssS'_mutable'
p5511
I01
sbg4
(g11
g12
(dp5512
tp5513
Rp5514
(dp5515
S'_encoding'
p5516
g5509
sg28
(dp5517
sg5511
I00
sbtp5518
sbsg38
(dp5519
S'screen_name'
p5520
VSample user
p5521
sS'money'
p5522
I50
sS'last_login'
p5523
S'2014-01-09T04:56:18.899521+00:00'
p5524
sS'exp'
p5525
I0
sS'gmail'
p5526
Vexample@gmail.com
p5527
sS'id'
p5528
I1
sS'date_joined'
p5529
S'2014-01-09T04:53:26.775143+00:00'
p5530
ssba(iutil.request_logging
SimpleRequest
p5531
(dp5532
g3
g4
(g5
g6
Ntp5533
Rp5534
(dp5535
g10
(g4
(g11
g12
(dp5536
Vtid
p5537
(lp5538
V39
p5539
asVtest
p5540
(lp5541
VTrue
p5542
asVhasnum
p5543
(lp5544
V800
p5545
astp5546
Rp5547
(dp5548
g26
S'utf-8'
p5549
sg28
(dp5550
g5537
g5538
sg5540
g5541
sg5543
g5544
ssS'_mutable'
p5551
I01
sbg4
(g11
g12
(dp5552
tp5553
Rp5554
(dp5555
S'_encoding'
p5556
g5549
sg28
(dp5557
sg5551
I00
sbtp5558
sbsg38
(dp5559
S'screen_name'
p5560
VSample user
p5561
sS'money'
p5562
I50
sS'last_login'
p5563
S'2014-01-09T04:56:18.899521+00:00'
p5564
sS'exp'
p5565
I0
sS'date_joined'
p5566
S'2014-01-09T04:53:26.775143+00:00'
p5567
sS'id'
p5568
I1
sS'gmail'
p5569
Vexample@gmail.com
p5570
ssba(iutil.request_logging
SimpleRequest
p5571
(dp5572
g3
g4
(g5
g6
Ntp5573
Rp5574
(dp5575
g10
(g4
(g11
g12
(dp5576
Vtid
p5577
(lp5578
V39
p5579
asVtest
p5580
(lp5581
VTrue
p5582
asVhasnum
p5583
(lp5584
V900
p5585
astp5586
Rp5587
(dp5588
g26
S'utf-8'
p5589
sg28
(dp5590
g5577
g5578
sg5580
g5581
sg5583
g5584
ssS'_mutable'
p5591
I01
sbg4
(g11
g12
(dp5592
tp5593
Rp5594
(dp5595
S'_encoding'
p5596
g5589
sg28
(dp5597
sg5591
I00
sbtp5598
sbsg38
(dp5599
S'screen_name'
p5600
VSample user
p5601
sS'money'
p5602
I50
sS'last_login'
p5603
S'2014-01-09T04:56:18.899521+00:00'
p5604
sS'exp'
p5605
I0
sS'gmail'
p5606
Vexample@gmail.com
p5607
sS'id'
p5608
I1
sS'date_joined'
p5609
S'2014-01-09T04:53:26.775143+00:00'
p5610
ssba(iutil.request_logging
SimpleRequest
p5611
(dp5612
g3
g4
(g5
g6
Ntp5613
Rp5614
(dp5615
g10
(g4
(g11
g12
(dp5616
Vtid
p5617
(lp5618
V42
p5619
asVtest
p5620
(lp5621
VTrue
p5622
asVhasnum
p5623
(lp5624
V0
p5625
astp5626
Rp5627
(dp5628
g26
S'utf-8'
p5629
sg28
(dp5630
g5617
g5618
sg5620
g5621
sg5623
g5624
ssS'_mutable'
p5631
I01
sbg4
(g11
g12
(dp5632
tp5633
Rp5634
(dp5635
S'_encoding'
p5636
g5629
sg28
(dp5637
sg5631
I00
sbtp5638
sbsg38
(dp5639
S'screen_name'
p5640
VSample user
p5641
sS'money'
p5642
I50
sS'last_login'
p5643
S'2014-01-09T04:56:18.899521+00:00'
p5644
sS'exp'
p5645
I0
sS'date_joined'
p5646
S'2014-01-09T04:53:26.775143+00:00'
p5647
sS'id'
p5648
I1
sS'gmail'
p5649
Vexample@gmail.com
p5650
ssba(iutil.request_logging
SimpleRequest
p5651
(dp5652
g3
g4
(g5
g6
Ntp5653
Rp5654
(dp5655
g10
(g4
(g11
g12
(dp5656
Vtid
p5657
(lp5658
V42
p5659
asVtest
p5660
(lp5661
VTrue
p5662
asVhasnum
p5663
(lp5664
V100
p5665
astp5666
Rp5667
(dp5668
g26
S'utf-8'
p5669
sg28
(dp5670
g5657
g5658
sg5660
g5661
sg5663
g5664
ssS'_mutable'
p5671
I01
sbg4
(g11
g12
(dp5672
tp5673
Rp5674
(dp5675
S'_encoding'
p5676
g5669
sg28
(dp5677
sg5671
I00
sbtp5678
sbsg38
(dp5679
S'screen_name'
p5680
VSample user
p5681
sS'money'
p5682
I50
sS'last_login'
p5683
S'2014-01-09T04:56:18.899521+00:00'
p5684
sS'exp'
p5685
I0
sS'gmail'
p5686
Vexample@gmail.com
p5687
sS'id'
p5688
I1
sS'date_joined'
p5689
S'2014-01-09T04:53:26.775143+00:00'
p5690
ssba(iutil.request_logging
SimpleRequest
p5691
(dp5692
g3
g4
(g5
g6
Ntp5693
Rp5694
(dp5695
g10
(g4
(g11
g12
(dp5696
Vtid
p5697
(lp5698
V42
p5699
asVtest
p5700
(lp5701
VTrue
p5702
asVhasnum
p5703
(lp5704
V200
p5705
astp5706
Rp5707
(dp5708
g26
S'utf-8'
p5709
sg28
(dp5710
g5697
g5698
sg5700
g5701
sg5703
g5704
ssS'_mutable'
p5711
I01
sbg4
(g11
g12
(dp5712
tp5713
Rp5714
(dp5715
S'_encoding'
p5716
g5709
sg28
(dp5717
sg5711
I00
sbtp5718
sbsg38
(dp5719
S'screen_name'
p5720
VSample user
p5721
sS'money'
p5722
I50
sS'last_login'
p5723
S'2014-01-09T04:56:18.899521+00:00'
p5724
sS'exp'
p5725
I0
sS'date_joined'
p5726
S'2014-01-09T04:53:26.775143+00:00'
p5727
sS'id'
p5728
I1
sS'gmail'
p5729
Vexample@gmail.com
p5730
ssba(iutil.request_logging
SimpleRequest
p5731
(dp5732
g3
g4
(g5
g6
Ntp5733
Rp5734
(dp5735
g10
(g4
(g11
g12
(dp5736
Vtid
p5737
(lp5738
V42
p5739
asVtest
p5740
(lp5741
VTrue
p5742
asVhasnum
p5743
(lp5744
V300
p5745
astp5746
Rp5747
(dp5748
g26
S'utf-8'
p5749
sg28
(dp5750
g5737
g5738
sg5740
g5741
sg5743
g5744
ssS'_mutable'
p5751
I01
sbg4
(g11
g12
(dp5752
tp5753
Rp5754
(dp5755
S'_encoding'
p5756
g5749
sg28
(dp5757
sg5751
I00
sbtp5758
sbsg38
(dp5759
S'screen_name'
p5760
VSample user
p5761
sS'money'
p5762
I50
sS'last_login'
p5763
S'2014-01-09T04:56:18.899521+00:00'
p5764
sS'exp'
p5765
I0
sS'gmail'
p5766
Vexample@gmail.com
p5767
sS'id'
p5768
I1
sS'date_joined'
p5769
S'2014-01-09T04:53:26.775143+00:00'
p5770
ssba(iutil.request_logging
SimpleRequest
p5771
(dp5772
g3
g4
(g5
g6
Ntp5773
Rp5774
(dp5775
g10
(g4
(g11
g12
(dp5776
Vtid
p5777
(lp5778
V42
p5779
asVtest
p5780
(lp5781
VTrue
p5782
asVhasnum
p5783
(lp5784
V400
p5785
astp5786
Rp5787
(dp5788
g26
S'utf-8'
p5789
sg28
(dp5790
g5777
g5778
sg5780
g5781
sg5783
g5784
ssS'_mutable'
p5791
I01
sbg4
(g11
g12
(dp5792
tp5793
Rp5794
(dp5795
S'_encoding'
p5796
g5789
sg28
(dp5797
sg5791
I00
sbtp5798
sbsg38
(dp5799
S'screen_name'
p5800
VSample user
p5801
sS'money'
p5802
I50
sS'last_login'
p5803
S'2014-01-09T04:56:18.899521+00:00'
p5804
sS'exp'
p5805
I0
sS'date_joined'
p5806
S'2014-01-09T04:53:26.775143+00:00'
p5807
sS'id'
p5808
I1
sS'gmail'
p5809
Vexample@gmail.com
p5810
ssba(iutil.request_logging
SimpleRequest
p5811
(dp5812
g3
g4
(g5
g6
Ntp5813
Rp5814
(dp5815
g10
(g4
(g11
g12
(dp5816
Vtid
p5817
(lp5818
V42
p5819
asVtest
p5820
(lp5821
VTrue
p5822
asVhasnum
p5823
(lp5824
V500
p5825
astp5826
Rp5827
(dp5828
g26
S'utf-8'
p5829
sg28
(dp5830
g5817
g5818
sg5820
g5821
sg5823
g5824
ssS'_mutable'
p5831
I01
sbg4
(g11
g12
(dp5832
tp5833
Rp5834
(dp5835
S'_encoding'
p5836
g5829
sg28
(dp5837
sg5831
I00
sbtp5838
sbsg38
(dp5839
S'screen_name'
p5840
VSample user
p5841
sS'money'
p5842
I50
sS'last_login'
p5843
S'2014-01-09T04:56:18.899521+00:00'
p5844
sS'exp'
p5845
I0
sS'gmail'
p5846
Vexample@gmail.com
p5847
sS'id'
p5848
I1
sS'date_joined'
p5849
S'2014-01-09T04:53:26.775143+00:00'
p5850
ssba(iutil.request_logging
SimpleRequest
p5851
(dp5852
g3
g4
(g5
g6
Ntp5853
Rp5854
(dp5855
g10
(g4
(g11
g12
(dp5856
Vtid
p5857
(lp5858
V42
p5859
asVtest
p5860
(lp5861
VTrue
p5862
asVhasnum
p5863
(lp5864
V600
p5865
astp5866
Rp5867
(dp5868
g26
S'utf-8'
p5869
sg28
(dp5870
g5857
g5858
sg5860
g5861
sg5863
g5864
ssS'_mutable'
p5871
I01
sbg4
(g11
g12
(dp5872
tp5873
Rp5874
(dp5875
S'_encoding'
p5876
g5869
sg28
(dp5877
sg5871
I00
sbtp5878
sbsg38
(dp5879
S'screen_name'
p5880
VSample user
p5881
sS'money'
p5882
I50
sS'last_login'
p5883
S'2014-01-09T04:56:18.899521+00:00'
p5884
sS'exp'
p5885
I0
sS'date_joined'
p5886
S'2014-01-09T04:53:26.775143+00:00'
p5887
sS'id'
p5888
I1
sS'gmail'
p5889
Vexample@gmail.com
p5890
ssba(iutil.request_logging
SimpleRequest
p5891
(dp5892
g3
g4
(g5
g6
Ntp5893
Rp5894
(dp5895
g10
(g4
(g11
g12
(dp5896
Vtid
p5897
(lp5898
V42
p5899
asVtest
p5900
(lp5901
VTrue
p5902
asVhasnum
p5903
(lp5904
V700
p5905
astp5906
Rp5907
(dp5908
g26
S'utf-8'
p5909
sg28
(dp5910
g5897
g5898
sg5900
g5901
sg5903
g5904
ssS'_mutable'
p5911
I01
sbg4
(g11
g12
(dp5912
tp5913
Rp5914
(dp5915
S'_encoding'
p5916
g5909
sg28
(dp5917
sg5911
I00
sbtp5918
sbsg38
(dp5919
S'screen_name'
p5920
VSample user
p5921
sS'money'
p5922
I50
sS'last_login'
p5923
S'2014-01-09T04:56:18.899521+00:00'
p5924
sS'exp'
p5925
I0
sS'gmail'
p5926
Vexample@gmail.com
p5927
sS'id'
p5928
I1
sS'date_joined'
p5929
S'2014-01-09T04:53:26.775143+00:00'
p5930
ssba(iutil.request_logging
SimpleRequest
p5931
(dp5932
g3
g4
(g5
g6
Ntp5933
Rp5934
(dp5935
g10
(g4
(g11
g12
(dp5936
Vtid
p5937
(lp5938
V42
p5939
asVtest
p5940
(lp5941
VTrue
p5942
asVhasnum
p5943
(lp5944
V800
p5945
astp5946
Rp5947
(dp5948
g26
S'utf-8'
p5949
sg28
(dp5950
g5937
g5938
sg5940
g5941
sg5943
g5944
ssS'_mutable'
p5951
I01
sbg4
(g11
g12
(dp5952
tp5953
Rp5954
(dp5955
S'_encoding'
p5956
g5949
sg28
(dp5957
sg5951
I00
sbtp5958
sbsg38
(dp5959
S'screen_name'
p5960
VSample user
p5961
sS'money'
p5962
I50
sS'last_login'
p5963
S'2014-01-09T04:56:18.899521+00:00'
p5964
sS'exp'
p5965
I0
sS'date_joined'
p5966
S'2014-01-09T04:53:26.775143+00:00'
p5967
sS'id'
p5968
I1
sS'gmail'
p5969
Vexample@gmail.com
p5970
ssba(iutil.request_logging
SimpleRequest
p5971
(dp5972
g3
g4
(g5
g6
Ntp5973
Rp5974
(dp5975
g10
(g4
(g11
g12
(dp5976
Vtid
p5977
(lp5978
V42
p5979
asVtest
p5980
(lp5981
VTrue
p5982
asVhasnum
p5983
(lp5984
V900
p5985
astp5986
Rp5987
(dp5988
g26
S'utf-8'
p5989
sg28
(dp5990
g5977
g5978
sg5980
g5981
sg5983
g5984
ssS'_mutable'
p5991
I01
sbg4
(g11
g12
(dp5992
tp5993
Rp5994
(dp5995
S'_encoding'
p5996
g5989
sg28
(dp5997
sg5991
I00
sbtp5998
sbsg38
(dp5999
S'screen_name'
p6000
VSample user
p6001
sS'money'
p6002
I50
sS'last_login'
p6003
S'2014-01-09T04:56:18.899521+00:00'
p6004
sS'exp'
p6005
I0
sS'gmail'
p6006
Vexample@gmail.com
p6007
sS'id'
p6008
I1
sS'date_joined'
p6009
S'2014-01-09T04:53:26.775143+00:00'
p6010
ssba(iutil.request_logging
SimpleRequest
p6011
(dp6012
g3
g4
(g5
g6
Ntp6013
Rp6014
(dp6015
g10
(g4
(g11
g12
(dp6016
Vtid
p6017
(lp6018
V45
p6019
asVtest
p6020
(lp6021
VTrue
p6022
asVhasnum
p6023
(lp6024
V0
p6025
astp6026
Rp6027
(dp6028
g26
S'utf-8'
p6029
sg28
(dp6030
g6017
g6018
sg6020
g6021
sg6023
g6024
ssS'_mutable'
p6031
I01
sbg4
(g11
g12
(dp6032
tp6033
Rp6034
(dp6035
S'_encoding'
p6036
g6029
sg28
(dp6037
sg6031
I00
sbtp6038
sbsg38
(dp6039
S'screen_name'
p6040
VSample user
p6041
sS'money'
p6042
I50
sS'last_login'
p6043
S'2014-01-09T04:56:18.899521+00:00'
p6044
sS'exp'
p6045
I0
sS'date_joined'
p6046
S'2014-01-09T04:53:26.775143+00:00'
p6047
sS'id'
p6048
I1
sS'gmail'
p6049
Vexample@gmail.com
p6050
ssba(iutil.request_logging
SimpleRequest
p6051
(dp6052
g3
g4
(g5
g6
Ntp6053
Rp6054
(dp6055
g10
(g4
(g11
g12
(dp6056
Vtid
p6057
(lp6058
V45
p6059
asVtest
p6060
(lp6061
VTrue
p6062
asVhasnum
p6063
(lp6064
V100
p6065
astp6066
Rp6067
(dp6068
g26
S'utf-8'
p6069
sg28
(dp6070
g6057
g6058
sg6060
g6061
sg6063
g6064
ssS'_mutable'
p6071
I01
sbg4
(g11
g12
(dp6072
tp6073
Rp6074
(dp6075
S'_encoding'
p6076
g6069
sg28
(dp6077
sg6071
I00
sbtp6078
sbsg38
(dp6079
S'screen_name'
p6080
VSample user
p6081
sS'money'
p6082
I50
sS'last_login'
p6083
S'2014-01-09T04:56:18.899521+00:00'
p6084
sS'exp'
p6085
I0
sS'gmail'
p6086
Vexample@gmail.com
p6087
sS'id'
p6088
I1
sS'date_joined'
p6089
S'2014-01-09T04:53:26.775143+00:00'
p6090
ssba(iutil.request_logging
SimpleRequest
p6091
(dp6092
g3
g4
(g5
g6
Ntp6093
Rp6094
(dp6095
g10
(g4
(g11
g12
(dp6096
Vtid
p6097
(lp6098
V45
p6099
asVtest
p6100
(lp6101
VTrue
p6102
asVhasnum
p6103
(lp6104
V200
p6105
astp6106
Rp6107
(dp6108
g26
S'utf-8'
p6109
sg28
(dp6110
g6097
g6098
sg6100
g6101
sg6103
g6104
ssS'_mutable'
p6111
I01
sbg4
(g11
g12
(dp6112
tp6113
Rp6114
(dp6115
S'_encoding'
p6116
g6109
sg28
(dp6117
sg6111
I00
sbtp6118
sbsg38
(dp6119
S'screen_name'
p6120
VSample user
p6121
sS'money'
p6122
I50
sS'last_login'
p6123
S'2014-01-09T04:56:18.899521+00:00'
p6124
sS'exp'
p6125
I0
sS'date_joined'
p6126
S'2014-01-09T04:53:26.775143+00:00'
p6127
sS'id'
p6128
I1
sS'gmail'
p6129
Vexample@gmail.com
p6130
ssba(iutil.request_logging
SimpleRequest
p6131
(dp6132
g3
g4
(g5
g6
Ntp6133
Rp6134
(dp6135
g10
(g4
(g11
g12
(dp6136
Vtid
p6137
(lp6138
V45
p6139
asVtest
p6140
(lp6141
VTrue
p6142
asVhasnum
p6143
(lp6144
V300
p6145
astp6146
Rp6147
(dp6148
g26
S'utf-8'
p6149
sg28
(dp6150
g6137
g6138
sg6140
g6141
sg6143
g6144
ssS'_mutable'
p6151
I01
sbg4
(g11
g12
(dp6152
tp6153
Rp6154
(dp6155
S'_encoding'
p6156
g6149
sg28
(dp6157
sg6151
I00
sbtp6158
sbsg38
(dp6159
S'screen_name'
p6160
VSample user
p6161
sS'money'
p6162
I50
sS'last_login'
p6163
S'2014-01-09T04:56:18.899521+00:00'
p6164
sS'exp'
p6165
I0
sS'gmail'
p6166
Vexample@gmail.com
p6167
sS'id'
p6168
I1
sS'date_joined'
p6169
S'2014-01-09T04:53:26.775143+00:00'
p6170
ssba(iutil.request_logging
SimpleRequest
p6171
(dp6172
g3
g4
(g5
g6
Ntp6173
Rp6174
(dp6175
g10
(g4
(g11
g12
(dp6176
Vtid
p6177
(lp6178
V45
p6179
asVtest
p6180
(lp6181
VTrue
p6182
asVhasnum
p6183
(lp6184
V400
p6185
astp6186
Rp6187
(dp6188
g26
S'utf-8'
p6189
sg28
(dp6190
g6177
g6178
sg6180
g6181
sg6183
g6184
ssS'_mutable'
p6191
I01
sbg4
(g11
g12
(dp6192
tp6193
Rp6194
(dp6195
S'_encoding'
p6196
g6189
sg28
(dp6197
sg6191
I00
sbtp6198
sbsg38
(dp6199
S'screen_name'
p6200
VSample user
p6201
sS'money'
p6202
I50
sS'last_login'
p6203
S'2014-01-09T04:56:18.899521+00:00'
p6204
sS'exp'
p6205
I0
sS'date_joined'
p6206
S'2014-01-09T04:53:26.775143+00:00'
p6207
sS'id'
p6208
I1
sS'gmail'
p6209
Vexample@gmail.com
p6210
ssba(iutil.request_logging
SimpleRequest
p6211
(dp6212
g3
g4
(g5
g6
Ntp6213
Rp6214
(dp6215
g10
(g4
(g11
g12
(dp6216
Vtid
p6217
(lp6218
V45
p6219
asVtest
p6220
(lp6221
VTrue
p6222
asVhasnum
p6223
(lp6224
V500
p6225
astp6226
Rp6227
(dp6228
g26
S'utf-8'
p6229
sg28
(dp6230
g6217
g6218
sg6220
g6221
sg6223
g6224
ssS'_mutable'
p6231
I01
sbg4
(g11
g12
(dp6232
tp6233
Rp6234
(dp6235
S'_encoding'
p6236
g6229
sg28
(dp6237
sg6231
I00
sbtp6238
sbsg38
(dp6239
S'screen_name'
p6240
VSample user
p6241
sS'money'
p6242
I50
sS'last_login'
p6243
S'2014-01-09T04:56:18.899521+00:00'
p6244
sS'exp'
p6245
I0
sS'gmail'
p6246
Vexample@gmail.com
p6247
sS'id'
p6248
I1
sS'date_joined'
p6249
S'2014-01-09T04:53:26.775143+00:00'
p6250
ssba(iutil.request_logging
SimpleRequest
p6251
(dp6252
g3
g4
(g5
g6
Ntp6253
Rp6254
(dp6255
g10
(g4
(g11
g12
(dp6256
Vtid
p6257
(lp6258
V45
p6259
asVtest
p6260
(lp6261
VTrue
p6262
asVhasnum
p6263
(lp6264
V600
p6265
astp6266
Rp6267
(dp6268
g26
S'utf-8'
p6269
sg28
(dp6270
g6257
g6258
sg6260
g6261
sg6263
g6264
ssS'_mutable'
p6271
I01
sbg4
(g11
g12
(dp6272
tp6273
Rp6274
(dp6275
S'_encoding'
p6276
g6269
sg28
(dp6277
sg6271
I00
sbtp6278
sbsg38
(dp6279
S'screen_name'
p6280
VSample user
p6281
sS'money'
p6282
I50
sS'last_login'
p6283
S'2014-01-09T04:56:18.899521+00:00'
p6284
sS'exp'
p6285
I0
sS'date_joined'
p6286
S'2014-01-09T04:53:26.775143+00:00'
p6287
sS'id'
p6288
I1
sS'gmail'
p6289
Vexample@gmail.com
p6290
ssba(iutil.request_logging
SimpleRequest
p6291
(dp6292
g3
g4
(g5
g6
Ntp6293
Rp6294
(dp6295
g10
(g4
(g11
g12
(dp6296
Vtid
p6297
(lp6298
V45
p6299
asVtest
p6300
(lp6301
VTrue
p6302
asVhasnum
p6303
(lp6304
V700
p6305
astp6306
Rp6307
(dp6308
g26
S'utf-8'
p6309
sg28
(dp6310
g6297
g6298
sg6300
g6301
sg6303
g6304
ssS'_mutable'
p6311
I01
sbg4
(g11
g12
(dp6312
tp6313
Rp6314
(dp6315
S'_encoding'
p6316
g6309
sg28
(dp6317
sg6311
I00
sbtp6318
sbsg38
(dp6319
S'screen_name'
p6320
VSample user
p6321
sS'money'
p6322
I50
sS'last_login'
p6323
S'2014-01-09T04:56:18.899521+00:00'
p6324
sS'exp'
p6325
I0
sS'gmail'
p6326
Vexample@gmail.com
p6327
sS'id'
p6328
I1
sS'date_joined'
p6329
S'2014-01-09T04:53:26.775143+00:00'
p6330
ssba(iutil.request_logging
SimpleRequest
p6331
(dp6332
g3
g4
(g5
g6
Ntp6333
Rp6334
(dp6335
g10
(g4
(g11
g12
(dp6336
Vtid
p6337
(lp6338
V45
p6339
asVtest
p6340
(lp6341
VTrue
p6342
asVhasnum
p6343
(lp6344
V800
p6345
astp6346
Rp6347
(dp6348
g26
S'utf-8'
p6349
sg28
(dp6350
g6337
g6338
sg6340
g6341
sg6343
g6344
ssS'_mutable'
p6351
I01
sbg4
(g11
g12
(dp6352
tp6353
Rp6354
(dp6355
S'_encoding'
p6356
g6349
sg28
(dp6357
sg6351
I00
sbtp6358
sbsg38
(dp6359
S'screen_name'
p6360
VSample user
p6361
sS'money'
p6362
I50
sS'last_login'
p6363
S'2014-01-09T04:56:18.899521+00:00'
p6364
sS'exp'
p6365
I0
sS'date_joined'
p6366
S'2014-01-09T04:53:26.775143+00:00'
p6367
sS'id'
p6368
I1
sS'gmail'
p6369
Vexample@gmail.com
p6370
ssba(iutil.request_logging
SimpleRequest
p6371
(dp6372
g3
g4
(g5
g6
Ntp6373
Rp6374
(dp6375
g10
(g4
(g11
g12
(dp6376
Vtid
p6377
(lp6378
V45
p6379
asVtest
p6380
(lp6381
VTrue
p6382
asVhasnum
p6383
(lp6384
V900
p6385
astp6386
Rp6387
(dp6388
g26
S'utf-8'
p6389
sg28
(dp6390
g6377
g6378
sg6380
g6381
sg6383
g6384
ssS'_mutable'
p6391
I01
sbg4
(g11
g12
(dp6392
tp6393
Rp6394
(dp6395
S'_encoding'
p6396
g6389
sg28
(dp6397
sg6391
I00
sbtp6398
sbsg38
(dp6399
S'screen_name'
p6400
VSample user
p6401
sS'money'
p6402
I50
sS'last_login'
p6403
S'2014-01-09T04:56:18.899521+00:00'
p6404
sS'exp'
p6405
I0
sS'gmail'
p6406
Vexample@gmail.com
p6407
sS'id'
p6408
I1
sS'date_joined'
p6409
S'2014-01-09T04:53:26.775143+00:00'
p6410
ssba(iutil.request_logging
SimpleRequest
p6411
(dp6412
g3
g4
(g5
g6
Ntp6413
Rp6414
(dp6415
g10
(g4
(g11
g12
(dp6416
Vtid
p6417
(lp6418
V48
p6419
asVtest
p6420
(lp6421
VTrue
p6422
asVhasnum
p6423
(lp6424
V0
p6425
astp6426
Rp6427
(dp6428
g26
S'utf-8'
p6429
sg28
(dp6430
g6417
g6418
sg6420
g6421
sg6423
g6424
ssS'_mutable'
p6431
I01
sbg4
(g11
g12
(dp6432
tp6433
Rp6434
(dp6435
S'_encoding'
p6436
g6429
sg28
(dp6437
sg6431
I00
sbtp6438
sbsg38
(dp6439
S'screen_name'
p6440
VSample user
p6441
sS'money'
p6442
I50
sS'last_login'
p6443
S'2014-01-09T04:56:18.899521+00:00'
p6444
sS'exp'
p6445
I0
sS'date_joined'
p6446
S'2014-01-09T04:53:26.775143+00:00'
p6447
sS'id'
p6448
I1
sS'gmail'
p6449
Vexample@gmail.com
p6450
ssba(iutil.request_logging
SimpleRequest
p6451
(dp6452
g3
g4
(g5
g6
Ntp6453
Rp6454
(dp6455
g10
(g4
(g11
g12
(dp6456
Vtid
p6457
(lp6458
V48
p6459
asVtest
p6460
(lp6461
VTrue
p6462
asVhasnum
p6463
(lp6464
V100
p6465
astp6466
Rp6467
(dp6468
g26
S'utf-8'
p6469
sg28
(dp6470
g6457
g6458
sg6460
g6461
sg6463
g6464
ssS'_mutable'
p6471
I01
sbg4
(g11
g12
(dp6472
tp6473
Rp6474
(dp6475
S'_encoding'
p6476
g6469
sg28
(dp6477
sg6471
I00
sbtp6478
sbsg38
(dp6479
S'screen_name'
p6480
VSample user
p6481
sS'money'
p6482
I50
sS'last_login'
p6483
S'2014-01-09T04:56:18.899521+00:00'
p6484
sS'exp'
p6485
I0
sS'gmail'
p6486
Vexample@gmail.com
p6487
sS'id'
p6488
I1
sS'date_joined'
p6489
S'2014-01-09T04:53:26.775143+00:00'
p6490
ssba(iutil.request_logging
SimpleRequest
p6491
(dp6492
g3
g4
(g5
g6
Ntp6493
Rp6494
(dp6495
g10
(g4
(g11
g12
(dp6496
Vtid
p6497
(lp6498
V48
p6499
asVtest
p6500
(lp6501
VTrue
p6502
asVhasnum
p6503
(lp6504
V200
p6505
astp6506
Rp6507
(dp6508
g26
S'utf-8'
p6509
sg28
(dp6510
g6497
g6498
sg6500
g6501
sg6503
g6504
ssS'_mutable'
p6511
I01
sbg4
(g11
g12
(dp6512
tp6513
Rp6514
(dp6515
S'_encoding'
p6516
g6509
sg28
(dp6517
sg6511
I00
sbtp6518
sbsg38
(dp6519
S'screen_name'
p6520
VSample user
p6521
sS'money'
p6522
I50
sS'last_login'
p6523
S'2014-01-09T04:56:18.899521+00:00'
p6524
sS'exp'
p6525
I0
sS'date_joined'
p6526
S'2014-01-09T04:53:26.775143+00:00'
p6527
sS'id'
p6528
I1
sS'gmail'
p6529
Vexample@gmail.com
p6530
ssba(iutil.request_logging
SimpleRequest
p6531
(dp6532
g3
g4
(g5
g6
Ntp6533
Rp6534
(dp6535
g10
(g4
(g11
g12
(dp6536
Vtid
p6537
(lp6538
V48
p6539
asVtest
p6540
(lp6541
VTrue
p6542
asVhasnum
p6543
(lp6544
V300
p6545
astp6546
Rp6547
(dp6548
g26
S'utf-8'
p6549
sg28
(dp6550
g6537
g6538
sg6540
g6541
sg6543
g6544
ssS'_mutable'
p6551
I01
sbg4
(g11
g12
(dp6552
tp6553
Rp6554
(dp6555
S'_encoding'
p6556
g6549
sg28
(dp6557
sg6551
I00
sbtp6558
sbsg38
(dp6559
S'screen_name'
p6560
VSample user
p6561
sS'money'
p6562
I50
sS'last_login'
p6563
S'2014-01-09T04:56:18.899521+00:00'
p6564
sS'exp'
p6565
I0
sS'gmail'
p6566
Vexample@gmail.com
p6567
sS'id'
p6568
I1
sS'date_joined'
p6569
S'2014-01-09T04:53:26.775143+00:00'
p6570
ssba(iutil.request_logging
SimpleRequest
p6571
(dp6572
g3
g4
(g5
g6
Ntp6573
Rp6574
(dp6575
g10
(g4
(g11
g12
(dp6576
Vtid
p6577
(lp6578
V48
p6579
asVtest
p6580
(lp6581
VTrue
p6582
asVhasnum
p6583
(lp6584
V400
p6585
astp6586
Rp6587
(dp6588
g26
S'utf-8'
p6589
sg28
(dp6590
g6577
g6578
sg6580
g6581
sg6583
g6584
ssS'_mutable'
p6591
I01
sbg4
(g11
g12
(dp6592
tp6593
Rp6594
(dp6595
S'_encoding'
p6596
g6589
sg28
(dp6597
sg6591
I00
sbtp6598
sbsg38
(dp6599
S'screen_name'
p6600
VSample user
p6601
sS'money'
p6602
I50
sS'last_login'
p6603
S'2014-01-09T04:56:18.899521+00:00'
p6604
sS'exp'
p6605
I0
sS'date_joined'
p6606
S'2014-01-09T04:53:26.775143+00:00'
p6607
sS'id'
p6608
I1
sS'gmail'
p6609
Vexample@gmail.com
p6610
ssba(iutil.request_logging
SimpleRequest
p6611
(dp6612
g3
g4
(g5
g6
Ntp6613
Rp6614
(dp6615
g10
(g4
(g11
g12
(dp6616
Vtid
p6617
(lp6618
V48
p6619
asVtest
p6620
(lp6621
VTrue
p6622
asVhasnum
p6623
(lp6624
V500
p6625
astp6626
Rp6627
(dp6628
g26
S'utf-8'
p6629
sg28
(dp6630
g6617
g6618
sg6620
g6621
sg6623
g6624
ssS'_mutable'
p6631
I01
sbg4
(g11
g12
(dp6632
tp6633
Rp6634
(dp6635
S'_encoding'
p6636
g6629
sg28
(dp6637
sg6631
I00
sbtp6638
sbsg38
(dp6639
S'screen_name'
p6640
VSample user
p6641
sS'money'
p6642
I50
sS'last_login'
p6643
S'2014-01-09T04:56:18.899521+00:00'
p6644
sS'exp'
p6645
I0
sS'gmail'
p6646
Vexample@gmail.com
p6647
sS'id'
p6648
I1
sS'date_joined'
p6649
S'2014-01-09T04:53:26.775143+00:00'
p6650
ssba(iutil.request_logging
SimpleRequest
p6651
(dp6652
g3
g4
(g5
g6
Ntp6653
Rp6654
(dp6655
g10
(g4
(g11
g12
(dp6656
Vtid
p6657
(lp6658
V48
p6659
asVtest
p6660
(lp6661
VTrue
p6662
asVhasnum
p6663
(lp6664
V600
p6665
astp6666
Rp6667
(dp6668
g26
S'utf-8'
p6669
sg28
(dp6670
g6657
g6658
sg6660
g6661
sg6663
g6664
ssS'_mutable'
p6671
I01
sbg4
(g11
g12
(dp6672
tp6673
Rp6674
(dp6675
S'_encoding'
p6676
g6669
sg28
(dp6677
sg6671
I00
sbtp6678
sbsg38
(dp6679
S'screen_name'
p6680
VSample user
p6681
sS'money'
p6682
I50
sS'last_login'
p6683
S'2014-01-09T04:56:18.899521+00:00'
p6684
sS'exp'
p6685
I0
sS'date_joined'
p6686
S'2014-01-09T04:53:26.775143+00:00'
p6687
sS'id'
p6688
I1
sS'gmail'
p6689
Vexample@gmail.com
p6690
ssba(iutil.request_logging
SimpleRequest
p6691
(dp6692
g3
g4
(g5
g6
Ntp6693
Rp6694
(dp6695
g10
(g4
(g11
g12
(dp6696
Vtid
p6697
(lp6698
V48
p6699
asVtest
p6700
(lp6701
VTrue
p6702
asVhasnum
p6703
(lp6704
V700
p6705
astp6706
Rp6707
(dp6708
g26
S'utf-8'
p6709
sg28
(dp6710
g6697
g6698
sg6700
g6701
sg6703
g6704
ssS'_mutable'
p6711
I01
sbg4
(g11
g12
(dp6712
tp6713
Rp6714
(dp6715
S'_encoding'
p6716
g6709
sg28
(dp6717
sg6711
I00
sbtp6718
sbsg38
(dp6719
S'screen_name'
p6720
VSample user
p6721
sS'money'
p6722
I50
sS'last_login'
p6723
S'2014-01-09T04:56:18.899521+00:00'
p6724
sS'exp'
p6725
I0
sS'gmail'
p6726
Vexample@gmail.com
p6727
sS'id'
p6728
I1
sS'date_joined'
p6729
S'2014-01-09T04:53:26.775143+00:00'
p6730
ssba(iutil.request_logging
SimpleRequest
p6731
(dp6732
g3
g4
(g5
g6
Ntp6733
Rp6734
(dp6735
g10
(g4
(g11
g12
(dp6736
Vtid
p6737
(lp6738
V48
p6739
asVtest
p6740
(lp6741
VTrue
p6742
asVhasnum
p6743
(lp6744
V800
p6745
astp6746
Rp6747
(dp6748
g26
S'utf-8'
p6749
sg28
(dp6750
g6737
g6738
sg6740
g6741
sg6743
g6744
ssS'_mutable'
p6751
I01
sbg4
(g11
g12
(dp6752
tp6753
Rp6754
(dp6755
S'_encoding'
p6756
g6749
sg28
(dp6757
sg6751
I00
sbtp6758
sbsg38
(dp6759
S'screen_name'
p6760
VSample user
p6761
sS'money'
p6762
I50
sS'last_login'
p6763
S'2014-01-09T04:56:18.899521+00:00'
p6764
sS'exp'
p6765
I0
sS'date_joined'
p6766
S'2014-01-09T04:53:26.775143+00:00'
p6767
sS'id'
p6768
I1
sS'gmail'
p6769
Vexample@gmail.com
p6770
ssba(iutil.request_logging
SimpleRequest
p6771
(dp6772
g3
g4
(g5
g6
Ntp6773
Rp6774
(dp6775
g10
(g4
(g11
g12
(dp6776
Vtid
p6777
(lp6778
V48
p6779
asVtest
p6780
(lp6781
VTrue
p6782
asVhasnum
p6783
(lp6784
V900
p6785
astp6786
Rp6787
(dp6788
g26
S'utf-8'
p6789
sg28
(dp6790
g6777
g6778
sg6780
g6781
sg6783
g6784
ssS'_mutable'
p6791
I01
sbg4
(g11
g12
(dp6792
tp6793
Rp6794
(dp6795
S'_encoding'
p6796
g6789
sg28
(dp6797
sg6791
I00
sbtp6798
sbsg38
(dp6799
S'screen_name'
p6800
VSample user
p6801
sS'money'
p6802
I50
sS'last_login'
p6803
S'2014-01-09T04:56:18.899521+00:00'
p6804
sS'exp'
p6805
I0
sS'gmail'
p6806
Vexample@gmail.com
p6807
sS'id'
p6808
I1
sS'date_joined'
p6809
S'2014-01-09T04:53:26.775143+00:00'
p6810
ssba(iutil.request_logging
SimpleRequest
p6811
(dp6812
g3
g4
(g5
g6
Ntp6813
Rp6814
(dp6815
g10
(g4
(g11
g12
(dp6816
Vtid
p6817
(lp6818
V51
p6819
asVtest
p6820
(lp6821
VTrue
p6822
asVhasnum
p6823
(lp6824
V0
p6825
astp6826
Rp6827
(dp6828
g26
S'utf-8'
p6829
sg28
(dp6830
g6817
g6818
sg6820
g6821
sg6823
g6824
ssS'_mutable'
p6831
I01
sbg4
(g11
g12
(dp6832
tp6833
Rp6834
(dp6835
S'_encoding'
p6836
g6829
sg28
(dp6837
sg6831
I00
sbtp6838
sbsg38
(dp6839
S'screen_name'
p6840
VSample user
p6841
sS'money'
p6842
I50
sS'last_login'
p6843
S'2014-01-09T04:56:18.899521+00:00'
p6844
sS'exp'
p6845
I0
sS'date_joined'
p6846
S'2014-01-09T04:53:26.775143+00:00'
p6847
sS'id'
p6848
I1
sS'gmail'
p6849
Vexample@gmail.com
p6850
ssba(iutil.request_logging
SimpleRequest
p6851
(dp6852
g3
g4
(g5
g6
Ntp6853
Rp6854
(dp6855
g10
(g4
(g11
g12
(dp6856
Vtid
p6857
(lp6858
V51
p6859
asVtest
p6860
(lp6861
VTrue
p6862
asVhasnum
p6863
(lp6864
V100
p6865
astp6866
Rp6867
(dp6868
g26
S'utf-8'
p6869
sg28
(dp6870
g6857
g6858
sg6860
g6861
sg6863
g6864
ssS'_mutable'
p6871
I01
sbg4
(g11
g12
(dp6872
tp6873
Rp6874
(dp6875
S'_encoding'
p6876
g6869
sg28
(dp6877
sg6871
I00
sbtp6878
sbsg38
(dp6879
S'screen_name'
p6880
VSample user
p6881
sS'money'
p6882
I50
sS'last_login'
p6883
S'2014-01-09T04:56:18.899521+00:00'
p6884
sS'exp'
p6885
I0
sS'gmail'
p6886
Vexample@gmail.com
p6887
sS'id'
p6888
I1
sS'date_joined'
p6889
S'2014-01-09T04:53:26.775143+00:00'
p6890
ssba(iutil.request_logging
SimpleRequest
p6891
(dp6892
g3
g4
(g5
g6
Ntp6893
Rp6894
(dp6895
g10
(g4
(g11
g12
(dp6896
Vtid
p6897
(lp6898
V51
p6899
asVtest
p6900
(lp6901
VTrue
p6902
asVhasnum
p6903
(lp6904
V200
p6905
astp6906
Rp6907
(dp6908
g26
S'utf-8'
p6909
sg28
(dp6910
g6897
g6898
sg6900
g6901
sg6903
g6904
ssS'_mutable'
p6911
I01
sbg4
(g11
g12
(dp6912
tp6913
Rp6914
(dp6915
S'_encoding'
p6916
g6909
sg28
(dp6917
sg6911
I00
sbtp6918
sbsg38
(dp6919
S'screen_name'
p6920
VSample user
p6921
sS'money'
p6922
I50
sS'last_login'
p6923
S'2014-01-09T04:56:18.899521+00:00'
p6924
sS'exp'
p6925
I0
sS'date_joined'
p6926
S'2014-01-09T04:53:26.775143+00:00'
p6927
sS'id'
p6928
I1
sS'gmail'
p6929
Vexample@gmail.com
p6930
ssba(iutil.request_logging
SimpleRequest
p6931
(dp6932
g3
g4
(g5
g6
Ntp6933
Rp6934
(dp6935
g10
(g4
(g11
g12
(dp6936
Vtid
p6937
(lp6938
V51
p6939
asVtest
p6940
(lp6941
VTrue
p6942
asVhasnum
p6943
(lp6944
V300
p6945
astp6946
Rp6947
(dp6948
g26
S'utf-8'
p6949
sg28
(dp6950
g6937
g6938
sg6940
g6941
sg6943
g6944
ssS'_mutable'
p6951
I01
sbg4
(g11
g12
(dp6952
tp6953
Rp6954
(dp6955
S'_encoding'
p6956
g6949
sg28
(dp6957
sg6951
I00
sbtp6958
sbsg38
(dp6959
S'screen_name'
p6960
VSample user
p6961
sS'money'
p6962
I50
sS'last_login'
p6963
S'2014-01-09T04:56:18.899521+00:00'
p6964
sS'exp'
p6965
I0
sS'gmail'
p6966
Vexample@gmail.com
p6967
sS'id'
p6968
I1
sS'date_joined'
p6969
S'2014-01-09T04:53:26.775143+00:00'
p6970
ssba(iutil.request_logging
SimpleRequest
p6971
(dp6972
g3
g4
(g5
g6
Ntp6973
Rp6974
(dp6975
g10
(g4
(g11
g12
(dp6976
Vtid
p6977
(lp6978
V51
p6979
asVtest
p6980
(lp6981
VTrue
p6982
asVhasnum
p6983
(lp6984
V400
p6985
astp6986
Rp6987
(dp6988
g26
S'utf-8'
p6989
sg28
(dp6990
g6977
g6978
sg6980
g6981
sg6983
g6984
ssS'_mutable'
p6991
I01
sbg4
(g11
g12
(dp6992
tp6993
Rp6994
(dp6995
S'_encoding'
p6996
g6989
sg28
(dp6997
sg6991
I00
sbtp6998
sbsg38
(dp6999
S'screen_name'
p7000
VSample user
p7001
sS'money'
p7002
I50
sS'last_login'
p7003
S'2014-01-09T04:56:18.899521+00:00'
p7004
sS'exp'
p7005
I0
sS'date_joined'
p7006
S'2014-01-09T04:53:26.775143+00:00'
p7007
sS'id'
p7008
I1
sS'gmail'
p7009
Vexample@gmail.com
p7010
ssba(iutil.request_logging
SimpleRequest
p7011
(dp7012
g3
g4
(g5
g6
Ntp7013
Rp7014
(dp7015
g10
(g4
(g11
g12
(dp7016
Vtid
p7017
(lp7018
V51
p7019
asVtest
p7020
(lp7021
VTrue
p7022
asVhasnum
p7023
(lp7024
V500
p7025
astp7026
Rp7027
(dp7028
g26
S'utf-8'
p7029
sg28
(dp7030
g7017
g7018
sg7020
g7021
sg7023
g7024
ssS'_mutable'
p7031
I01
sbg4
(g11
g12
(dp7032
tp7033
Rp7034
(dp7035
S'_encoding'
p7036
g7029
sg28
(dp7037
sg7031
I00
sbtp7038
sbsg38
(dp7039
S'screen_name'
p7040
VSample user
p7041
sS'money'
p7042
I50
sS'last_login'
p7043
S'2014-01-09T04:56:18.899521+00:00'
p7044
sS'exp'
p7045
I0
sS'gmail'
p7046
Vexample@gmail.com
p7047
sS'id'
p7048
I1
sS'date_joined'
p7049
S'2014-01-09T04:53:26.775143+00:00'
p7050
ssba(iutil.request_logging
SimpleRequest
p7051
(dp7052
g3
g4
(g5
g6
Ntp7053
Rp7054
(dp7055
g10
(g4
(g11
g12
(dp7056
Vtid
p7057
(lp7058
V51
p7059
asVtest
p7060
(lp7061
VTrue
p7062
asVhasnum
p7063
(lp7064
V600
p7065
astp7066
Rp7067
(dp7068
g26
S'utf-8'
p7069
sg28
(dp7070
g7057
g7058
sg7060
g7061
sg7063
g7064
ssS'_mutable'
p7071
I01
sbg4
(g11
g12
(dp7072
tp7073
Rp7074
(dp7075
S'_encoding'
p7076
g7069
sg28
(dp7077
sg7071
I00
sbtp7078
sbsg38
(dp7079
S'screen_name'
p7080
VSample user
p7081
sS'money'
p7082
I50
sS'last_login'
p7083
S'2014-01-09T04:56:18.899521+00:00'
p7084
sS'exp'
p7085
I0
sS'date_joined'
p7086
S'2014-01-09T04:53:26.775143+00:00'
p7087
sS'id'
p7088
I1
sS'gmail'
p7089
Vexample@gmail.com
p7090
ssba(iutil.request_logging
SimpleRequest
p7091
(dp7092
g3
g4
(g5
g6
Ntp7093
Rp7094
(dp7095
g10
(g4
(g11
g12
(dp7096
Vtid
p7097
(lp7098
V51
p7099
asVtest
p7100
(lp7101
VTrue
p7102
asVhasnum
p7103
(lp7104
V700
p7105
astp7106
Rp7107
(dp7108
g26
S'utf-8'
p7109
sg28
(dp7110
g7097
g7098
sg7100
g7101
sg7103
g7104
ssS'_mutable'
p7111
I01
sbg4
(g11
g12
(dp7112
tp7113
Rp7114
(dp7115
S'_encoding'
p7116
g7109
sg28
(dp7117
sg7111
I00
sbtp7118
sbsg38
(dp7119
S'screen_name'
p7120
VSample user
p7121
sS'money'
p7122
I50
sS'last_login'
p7123
S'2014-01-09T04:56:18.899521+00:00'
p7124
sS'exp'
p7125
I0
sS'gmail'
p7126
Vexample@gmail.com
p7127
sS'id'
p7128
I1
sS'date_joined'
p7129
S'2014-01-09T04:53:26.775143+00:00'
p7130
ssba(iutil.request_logging
SimpleRequest
p7131
(dp7132
g3
g4
(g5
g6
Ntp7133
Rp7134
(dp7135
g10
(g4
(g11
g12
(dp7136
Vtid
p7137
(lp7138
V51
p7139
asVtest
p7140
(lp7141
VTrue
p7142
asVhasnum
p7143
(lp7144
V800
p7145
astp7146
Rp7147
(dp7148
g26
S'utf-8'
p7149
sg28
(dp7150
g7137
g7138
sg7140
g7141
sg7143
g7144
ssS'_mutable'
p7151
I01
sbg4
(g11
g12
(dp7152
tp7153
Rp7154
(dp7155
S'_encoding'
p7156
g7149
sg28
(dp7157
sg7151
I00
sbtp7158
sbsg38
(dp7159
S'screen_name'
p7160
VSample user
p7161
sS'money'
p7162
I50
sS'last_login'
p7163
S'2014-01-09T04:56:18.899521+00:00'
p7164
sS'exp'
p7165
I0
sS'date_joined'
p7166
S'2014-01-09T04:53:26.775143+00:00'
p7167
sS'id'
p7168
I1
sS'gmail'
p7169
Vexample@gmail.com
p7170
ssba(iutil.request_logging
SimpleRequest
p7171
(dp7172
g3
g4
(g5
g6
Ntp7173
Rp7174
(dp7175
g10
(g4
(g11
g12
(dp7176
Vtid
p7177
(lp7178
V51
p7179
asVtest
p7180
(lp7181
VTrue
p7182
asVhasnum
p7183
(lp7184
V900
p7185
astp7186
Rp7187
(dp7188
g26
S'utf-8'
p7189
sg28
(dp7190
g7177
g7178
sg7180
g7181
sg7183
g7184
ssS'_mutable'
p7191
I01
sbg4
(g11
g12
(dp7192
tp7193
Rp7194
(dp7195
S'_encoding'
p7196
g7189
sg28
(dp7197
sg7191
I00
sbtp7198
sbsg38
(dp7199
S'screen_name'
p7200
VSample user
p7201
sS'money'
p7202
I50
sS'last_login'
p7203
S'2014-01-09T04:56:18.899521+00:00'
p7204
sS'exp'
p7205
I0
sS'gmail'
p7206
Vexample@gmail.com
p7207
sS'id'
p7208
I1
sS'date_joined'
p7209
S'2014-01-09T04:53:26.775143+00:00'
p7210
ssba(iutil.request_logging
SimpleRequest
p7211
(dp7212
g3
g4
(g5
g6
Ntp7213
Rp7214
(dp7215
g10
(g4
(g11
g12
(dp7216
Vtid
p7217
(lp7218
V54
p7219
asVtest
p7220
(lp7221
VTrue
p7222
asVhasnum
p7223
(lp7224
V0
p7225
astp7226
Rp7227
(dp7228
g26
S'utf-8'
p7229
sg28
(dp7230
g7217
g7218
sg7220
g7221
sg7223
g7224
ssS'_mutable'
p7231
I01
sbg4
(g11
g12
(dp7232
tp7233
Rp7234
(dp7235
S'_encoding'
p7236
g7229
sg28
(dp7237
sg7231
I00
sbtp7238
sbsg38
(dp7239
S'screen_name'
p7240
VSample user
p7241
sS'money'
p7242
I50
sS'last_login'
p7243
S'2014-01-09T04:56:18.899521+00:00'
p7244
sS'exp'
p7245
I0
sS'date_joined'
p7246
S'2014-01-09T04:53:26.775143+00:00'
p7247
sS'id'
p7248
I1
sS'gmail'
p7249
Vexample@gmail.com
p7250
ssba(iutil.request_logging
SimpleRequest
p7251
(dp7252
g3
g4
(g5
g6
Ntp7253
Rp7254
(dp7255
g10
(g4
(g11
g12
(dp7256
Vtid
p7257
(lp7258
V54
p7259
asVtest
p7260
(lp7261
VTrue
p7262
asVhasnum
p7263
(lp7264
V100
p7265
astp7266
Rp7267
(dp7268
g26
S'utf-8'
p7269
sg28
(dp7270
g7257
g7258
sg7260
g7261
sg7263
g7264
ssS'_mutable'
p7271
I01
sbg4
(g11
g12
(dp7272
tp7273
Rp7274
(dp7275
S'_encoding'
p7276
g7269
sg28
(dp7277
sg7271
I00
sbtp7278
sbsg38
(dp7279
S'screen_name'
p7280
VSample user
p7281
sS'money'
p7282
I50
sS'last_login'
p7283
S'2014-01-09T04:56:18.899521+00:00'
p7284
sS'exp'
p7285
I0
sS'gmail'
p7286
Vexample@gmail.com
p7287
sS'id'
p7288
I1
sS'date_joined'
p7289
S'2014-01-09T04:53:26.775143+00:00'
p7290
ssba(iutil.request_logging
SimpleRequest
p7291
(dp7292
g3
g4
(g5
g6
Ntp7293
Rp7294
(dp7295
g10
(g4
(g11
g12
(dp7296
Vtid
p7297
(lp7298
V54
p7299
asVtest
p7300
(lp7301
VTrue
p7302
asVhasnum
p7303
(lp7304
V200
p7305
astp7306
Rp7307
(dp7308
g26
S'utf-8'
p7309
sg28
(dp7310
g7297
g7298
sg7300
g7301
sg7303
g7304
ssS'_mutable'
p7311
I01
sbg4
(g11
g12
(dp7312
tp7313
Rp7314
(dp7315
S'_encoding'
p7316
g7309
sg28
(dp7317
sg7311
I00
sbtp7318
sbsg38
(dp7319
S'screen_name'
p7320
VSample user
p7321
sS'money'
p7322
I50
sS'last_login'
p7323
S'2014-01-09T04:56:18.899521+00:00'
p7324
sS'exp'
p7325
I0
sS'date_joined'
p7326
S'2014-01-09T04:53:26.775143+00:00'
p7327
sS'id'
p7328
I1
sS'gmail'
p7329
Vexample@gmail.com
p7330
ssba(iutil.request_logging
SimpleRequest
p7331
(dp7332
g3
g4
(g5
g6
Ntp7333
Rp7334
(dp7335
g10
(g4
(g11
g12
(dp7336
Vtid
p7337
(lp7338
V54
p7339
asVtest
p7340
(lp7341
VTrue
p7342
asVhasnum
p7343
(lp7344
V300
p7345
astp7346
Rp7347
(dp7348
g26
S'utf-8'
p7349
sg28
(dp7350
g7337
g7338
sg7340
g7341
sg7343
g7344
ssS'_mutable'
p7351
I01
sbg4
(g11
g12
(dp7352
tp7353
Rp7354
(dp7355
S'_encoding'
p7356
g7349
sg28
(dp7357
sg7351
I00
sbtp7358
sbsg38
(dp7359
S'screen_name'
p7360
VSample user
p7361
sS'money'
p7362
I50
sS'last_login'
p7363
S'2014-01-09T04:56:18.899521+00:00'
p7364
sS'exp'
p7365
I0
sS'gmail'
p7366
Vexample@gmail.com
p7367
sS'id'
p7368
I1
sS'date_joined'
p7369
S'2014-01-09T04:53:26.775143+00:00'
p7370
ssba(iutil.request_logging
SimpleRequest
p7371
(dp7372
g3
g4
(g5
g6
Ntp7373
Rp7374
(dp7375
g10
(g4
(g11
g12
(dp7376
Vtid
p7377
(lp7378
V54
p7379
asVtest
p7380
(lp7381
VTrue
p7382
asVhasnum
p7383
(lp7384
V400
p7385
astp7386
Rp7387
(dp7388
g26
S'utf-8'
p7389
sg28
(dp7390
g7377
g7378
sg7380
g7381
sg7383
g7384
ssS'_mutable'
p7391
I01
sbg4
(g11
g12
(dp7392
tp7393
Rp7394
(dp7395
S'_encoding'
p7396
g7389
sg28
(dp7397
sg7391
I00
sbtp7398
sbsg38
(dp7399
S'screen_name'
p7400
VSample user
p7401
sS'money'
p7402
I50
sS'last_login'
p7403
S'2014-01-09T04:56:18.899521+00:00'
p7404
sS'exp'
p7405
I0
sS'date_joined'
p7406
S'2014-01-09T04:53:26.775143+00:00'
p7407
sS'id'
p7408
I1
sS'gmail'
p7409
Vexample@gmail.com
p7410
ssba(iutil.request_logging
SimpleRequest
p7411
(dp7412
g3
g4
(g5
g6
Ntp7413
Rp7414
(dp7415
g10
(g4
(g11
g12
(dp7416
Vtid
p7417
(lp7418
V54
p7419
asVtest
p7420
(lp7421
VTrue
p7422
asVhasnum
p7423
(lp7424
V500
p7425
astp7426
Rp7427
(dp7428
g26
S'utf-8'
p7429
sg28
(dp7430
g7417
g7418
sg7420
g7421
sg7423
g7424
ssS'_mutable'
p7431
I01
sbg4
(g11
g12
(dp7432
tp7433
Rp7434
(dp7435
S'_encoding'
p7436
g7429
sg28
(dp7437
sg7431
I00
sbtp7438
sbsg38
(dp7439
S'screen_name'
p7440
VSample user
p7441
sS'money'
p7442
I50
sS'last_login'
p7443
S'2014-01-09T04:56:18.899521+00:00'
p7444
sS'exp'
p7445
I0
sS'gmail'
p7446
Vexample@gmail.com
p7447
sS'id'
p7448
I1
sS'date_joined'
p7449
S'2014-01-09T04:53:26.775143+00:00'
p7450
ssba(iutil.request_logging
SimpleRequest
p7451
(dp7452
g3
g4
(g5
g6
Ntp7453
Rp7454
(dp7455
g10
(g4
(g11
g12
(dp7456
Vtid
p7457
(lp7458
V54
p7459
asVtest
p7460
(lp7461
VTrue
p7462
asVhasnum
p7463
(lp7464
V600
p7465
astp7466
Rp7467
(dp7468
g26
S'utf-8'
p7469
sg28
(dp7470
g7457
g7458
sg7460
g7461
sg7463
g7464
ssS'_mutable'
p7471
I01
sbg4
(g11
g12
(dp7472
tp7473
Rp7474
(dp7475
S'_encoding'
p7476
g7469
sg28
(dp7477
sg7471
I00
sbtp7478
sbsg38
(dp7479
S'screen_name'
p7480
VSample user
p7481
sS'money'
p7482
I50
sS'last_login'
p7483
S'2014-01-09T04:56:18.899521+00:00'
p7484
sS'exp'
p7485
I0
sS'date_joined'
p7486
S'2014-01-09T04:53:26.775143+00:00'
p7487
sS'id'
p7488
I1
sS'gmail'
p7489
Vexample@gmail.com
p7490
ssba(iutil.request_logging
SimpleRequest
p7491
(dp7492
g3
g4
(g5
g6
Ntp7493
Rp7494
(dp7495
g10
(g4
(g11
g12
(dp7496
Vtid
p7497
(lp7498
V54
p7499
asVtest
p7500
(lp7501
VTrue
p7502
asVhasnum
p7503
(lp7504
V700
p7505
astp7506
Rp7507
(dp7508
g26
S'utf-8'
p7509
sg28
(dp7510
g7497
g7498
sg7500
g7501
sg7503
g7504
ssS'_mutable'
p7511
I01
sbg4
(g11
g12
(dp7512
tp7513
Rp7514
(dp7515
S'_encoding'
p7516
g7509
sg28
(dp7517
sg7511
I00
sbtp7518
sbsg38
(dp7519
S'screen_name'
p7520
VSample user
p7521
sS'money'
p7522
I50
sS'last_login'
p7523
S'2014-01-09T04:56:18.899521+00:00'
p7524
sS'exp'
p7525
I0
sS'gmail'
p7526
Vexample@gmail.com
p7527
sS'id'
p7528
I1
sS'date_joined'
p7529
S'2014-01-09T04:53:26.775143+00:00'
p7530
ssba(iutil.request_logging
SimpleRequest
p7531
(dp7532
g3
g4
(g5
g6
Ntp7533
Rp7534
(dp7535
g10
(g4
(g11
g12
(dp7536
Vtid
p7537
(lp7538
V54
p7539
asVtest
p7540
(lp7541
VTrue
p7542
asVhasnum
p7543
(lp7544
V800
p7545
astp7546
Rp7547
(dp7548
g26
S'utf-8'
p7549
sg28
(dp7550
g7537
g7538
sg7540
g7541
sg7543
g7544
ssS'_mutable'
p7551
I01
sbg4
(g11
g12
(dp7552
tp7553
Rp7554
(dp7555
S'_encoding'
p7556
g7549
sg28
(dp7557
sg7551
I00
sbtp7558
sbsg38
(dp7559
S'screen_name'
p7560
VSample user
p7561
sS'money'
p7562
I50
sS'last_login'
p7563
S'2014-01-09T04:56:18.899521+00:00'
p7564
sS'exp'
p7565
I0
sS'date_joined'
p7566
S'2014-01-09T04:53:26.775143+00:00'
p7567
sS'id'
p7568
I1
sS'gmail'
p7569
Vexample@gmail.com
p7570
ssba(iutil.request_logging
SimpleRequest
p7571
(dp7572
g3
g4
(g5
g6
Ntp7573
Rp7574
(dp7575
g10
(g4
(g11
g12
(dp7576
Vtid
p7577
(lp7578
V54
p7579
asVtest
p7580
(lp7581
VTrue
p7582
asVhasnum
p7583
(lp7584
V900
p7585
astp7586
Rp7587
(dp7588
g26
S'utf-8'
p7589
sg28
(dp7590
g7577
g7578
sg7580
g7581
sg7583
g7584
ssS'_mutable'
p7591
I01
sbg4
(g11
g12
(dp7592
tp7593
Rp7594
(dp7595
S'_encoding'
p7596
g7589
sg28
(dp7597
sg7591
I00
sbtp7598
sbsg38
(dp7599
S'screen_name'
p7600
VSample user
p7601
sS'money'
p7602
I50
sS'last_login'
p7603
S'2014-01-09T04:56:18.899521+00:00'
p7604
sS'exp'
p7605
I0
sS'gmail'
p7606
Vexample@gmail.com
p7607
sS'id'
p7608
I1
sS'date_joined'
p7609
S'2014-01-09T04:53:26.775143+00:00'
p7610
ssba(iutil.request_logging
SimpleRequest
p7611
(dp7612
g3
g4
(g5
g6
Ntp7613
Rp7614
(dp7615
g10
(g4
(g11
g12
(dp7616
Vtid
p7617
(lp7618
V57
p7619
asVtest
p7620
(lp7621
VTrue
p7622
asVhasnum
p7623
(lp7624
V0
p7625
astp7626
Rp7627
(dp7628
g26
S'utf-8'
p7629
sg28
(dp7630
g7617
g7618
sg7620
g7621
sg7623
g7624
ssS'_mutable'
p7631
I01
sbg4
(g11
g12
(dp7632
tp7633
Rp7634
(dp7635
S'_encoding'
p7636
g7629
sg28
(dp7637
sg7631
I00
sbtp7638
sbsg38
(dp7639
S'screen_name'
p7640
VSample user
p7641
sS'money'
p7642
I50
sS'last_login'
p7643
S'2014-01-09T04:56:18.899521+00:00'
p7644
sS'exp'
p7645
I0
sS'date_joined'
p7646
S'2014-01-09T04:53:26.775143+00:00'
p7647
sS'id'
p7648
I1
sS'gmail'
p7649
Vexample@gmail.com
p7650
ssba(iutil.request_logging
SimpleRequest
p7651
(dp7652
g3
g4
(g5
g6
Ntp7653
Rp7654
(dp7655
g10
(g4
(g11
g12
(dp7656
Vtid
p7657
(lp7658
V57
p7659
asVtest
p7660
(lp7661
VTrue
p7662
asVhasnum
p7663
(lp7664
V100
p7665
astp7666
Rp7667
(dp7668
g26
S'utf-8'
p7669
sg28
(dp7670
g7657
g7658
sg7660
g7661
sg7663
g7664
ssS'_mutable'
p7671
I01
sbg4
(g11
g12
(dp7672
tp7673
Rp7674
(dp7675
S'_encoding'
p7676
g7669
sg28
(dp7677
sg7671
I00
sbtp7678
sbsg38
(dp7679
S'screen_name'
p7680
VSample user
p7681
sS'money'
p7682
I50
sS'last_login'
p7683
S'2014-01-09T04:56:18.899521+00:00'
p7684
sS'exp'
p7685
I0
sS'gmail'
p7686
Vexample@gmail.com
p7687
sS'id'
p7688
I1
sS'date_joined'
p7689
S'2014-01-09T04:53:26.775143+00:00'
p7690
ssba(iutil.request_logging
SimpleRequest
p7691
(dp7692
g3
g4
(g5
g6
Ntp7693
Rp7694
(dp7695
g10
(g4
(g11
g12
(dp7696
Vtid
p7697
(lp7698
V57
p7699
asVtest
p7700
(lp7701
VTrue
p7702
asVhasnum
p7703
(lp7704
V200
p7705
astp7706
Rp7707
(dp7708
g26
S'utf-8'
p7709
sg28
(dp7710
g7697
g7698
sg7700
g7701
sg7703
g7704
ssS'_mutable'
p7711
I01
sbg4
(g11
g12
(dp7712
tp7713
Rp7714
(dp7715
S'_encoding'
p7716
g7709
sg28
(dp7717
sg7711
I00
sbtp7718
sbsg38
(dp7719
S'screen_name'
p7720
VSample user
p7721
sS'money'
p7722
I50
sS'last_login'
p7723
S'2014-01-09T04:56:18.899521+00:00'
p7724
sS'exp'
p7725
I0
sS'date_joined'
p7726
S'2014-01-09T04:53:26.775143+00:00'
p7727
sS'id'
p7728
I1
sS'gmail'
p7729
Vexample@gmail.com
p7730
ssba(iutil.request_logging
SimpleRequest
p7731
(dp7732
g3
g4
(g5
g6
Ntp7733
Rp7734
(dp7735
g10
(g4
(g11
g12
(dp7736
Vtid
p7737
(lp7738
V57
p7739
asVtest
p7740
(lp7741
VTrue
p7742
asVhasnum
p7743
(lp7744
V300
p7745
astp7746
Rp7747
(dp7748
g26
S'utf-8'
p7749
sg28
(dp7750
g7737
g7738
sg7740
g7741
sg7743
g7744
ssS'_mutable'
p7751
I01
sbg4
(g11
g12
(dp7752
tp7753
Rp7754
(dp7755
S'_encoding'
p7756
g7749
sg28
(dp7757
sg7751
I00
sbtp7758
sbsg38
(dp7759
S'screen_name'
p7760
VSample user
p7761
sS'money'
p7762
I50
sS'last_login'
p7763
S'2014-01-09T04:56:18.899521+00:00'
p7764
sS'exp'
p7765
I0
sS'gmail'
p7766
Vexample@gmail.com
p7767
sS'id'
p7768
I1
sS'date_joined'
p7769
S'2014-01-09T04:53:26.775143+00:00'
p7770
ssba(iutil.request_logging
SimpleRequest
p7771
(dp7772
g3
g4
(g5
g6
Ntp7773
Rp7774
(dp7775
g10
(g4
(g11
g12
(dp7776
Vtid
p7777
(lp7778
V57
p7779
asVtest
p7780
(lp7781
VTrue
p7782
asVhasnum
p7783
(lp7784
V400
p7785
astp7786
Rp7787
(dp7788
g26
S'utf-8'
p7789
sg28
(dp7790
g7777
g7778
sg7780
g7781
sg7783
g7784
ssS'_mutable'
p7791
I01
sbg4
(g11
g12
(dp7792
tp7793
Rp7794
(dp7795
S'_encoding'
p7796
g7789
sg28
(dp7797
sg7791
I00
sbtp7798
sbsg38
(dp7799
S'screen_name'
p7800
VSample user
p7801
sS'money'
p7802
I50
sS'last_login'
p7803
S'2014-01-09T04:56:18.899521+00:00'
p7804
sS'exp'
p7805
I0
sS'date_joined'
p7806
S'2014-01-09T04:53:26.775143+00:00'
p7807
sS'id'
p7808
I1
sS'gmail'
p7809
Vexample@gmail.com
p7810
ssba(iutil.request_logging
SimpleRequest
p7811
(dp7812
g3
g4
(g5
g6
Ntp7813
Rp7814
(dp7815
g10
(g4
(g11
g12
(dp7816
Vtid
p7817
(lp7818
V57
p7819
asVtest
p7820
(lp7821
VTrue
p7822
asVhasnum
p7823
(lp7824
V500
p7825
astp7826
Rp7827
(dp7828
g26
S'utf-8'
p7829
sg28
(dp7830
g7817
g7818
sg7820
g7821
sg7823
g7824
ssS'_mutable'
p7831
I01
sbg4
(g11
g12
(dp7832
tp7833
Rp7834
(dp7835
S'_encoding'
p7836
g7829
sg28
(dp7837
sg7831
I00
sbtp7838
sbsg38
(dp7839
S'screen_name'
p7840
VSample user
p7841
sS'money'
p7842
I50
sS'last_login'
p7843
S'2014-01-09T04:56:18.899521+00:00'
p7844
sS'exp'
p7845
I0
sS'gmail'
p7846
Vexample@gmail.com
p7847
sS'id'
p7848
I1
sS'date_joined'
p7849
S'2014-01-09T04:53:26.775143+00:00'
p7850
ssba(iutil.request_logging
SimpleRequest
p7851
(dp7852
g3
g4
(g5
g6
Ntp7853
Rp7854
(dp7855
g10
(g4
(g11
g12
(dp7856
Vtid
p7857
(lp7858
V57
p7859
asVtest
p7860
(lp7861
VTrue
p7862
asVhasnum
p7863
(lp7864
V600
p7865
astp7866
Rp7867
(dp7868
g26
S'utf-8'
p7869
sg28
(dp7870
g7857
g7858
sg7860
g7861
sg7863
g7864
ssS'_mutable'
p7871
I01
sbg4
(g11
g12
(dp7872
tp7873
Rp7874
(dp7875
S'_encoding'
p7876
g7869
sg28
(dp7877
sg7871
I00
sbtp7878
sbsg38
(dp7879
S'screen_name'
p7880
VSample user
p7881
sS'money'
p7882
I50
sS'last_login'
p7883
S'2014-01-09T04:56:18.899521+00:00'
p7884
sS'exp'
p7885
I0
sS'date_joined'
p7886
S'2014-01-09T04:53:26.775143+00:00'
p7887
sS'id'
p7888
I1
sS'gmail'
p7889
Vexample@gmail.com
p7890
ssba(iutil.request_logging
SimpleRequest
p7891
(dp7892
g3
g4
(g5
g6
Ntp7893
Rp7894
(dp7895
g10
(g4
(g11
g12
(dp7896
Vtid
p7897
(lp7898
V57
p7899
asVtest
p7900
(lp7901
VTrue
p7902
asVhasnum
p7903
(lp7904
V700
p7905
astp7906
Rp7907
(dp7908
g26
S'utf-8'
p7909
sg28
(dp7910
g7897
g7898
sg7900
g7901
sg7903
g7904
ssS'_mutable'
p7911
I01
sbg4
(g11
g12
(dp7912
tp7913
Rp7914
(dp7915
S'_encoding'
p7916
g7909
sg28
(dp7917
sg7911
I00
sbtp7918
sbsg38
(dp7919
S'screen_name'
p7920
VSample user
p7921
sS'money'
p7922
I50
sS'last_login'
p7923
S'2014-01-09T04:56:18.899521+00:00'
p7924
sS'exp'
p7925
I0
sS'gmail'
p7926
Vexample@gmail.com
p7927
sS'id'
p7928
I1
sS'date_joined'
p7929
S'2014-01-09T04:53:26.775143+00:00'
p7930
ssba(iutil.request_logging
SimpleRequest
p7931
(dp7932
g3
g4
(g5
g6
Ntp7933
Rp7934
(dp7935
g10
(g4
(g11
g12
(dp7936
Vtid
p7937
(lp7938
V57
p7939
asVtest
p7940
(lp7941
VTrue
p7942
asVhasnum
p7943
(lp7944
V800
p7945
astp7946
Rp7947
(dp7948
g26
S'utf-8'
p7949
sg28
(dp7950
g7937
g7938
sg7940
g7941
sg7943
g7944
ssS'_mutable'
p7951
I01
sbg4
(g11
g12
(dp7952
tp7953
Rp7954
(dp7955
S'_encoding'
p7956
g7949
sg28
(dp7957
sg7951
I00
sbtp7958
sbsg38
(dp7959
S'screen_name'
p7960
VSample user
p7961
sS'money'
p7962
I50
sS'last_login'
p7963
S'2014-01-09T04:56:18.899521+00:00'
p7964
sS'exp'
p7965
I0
sS'date_joined'
p7966
S'2014-01-09T04:53:26.775143+00:00'
p7967
sS'id'
p7968
I1
sS'gmail'
p7969
Vexample@gmail.com
p7970
ssba(iutil.request_logging
SimpleRequest
p7971
(dp7972
g3
g4
(g5
g6
Ntp7973
Rp7974
(dp7975
g10
(g4
(g11
g12
(dp7976
Vtid
p7977
(lp7978
V57
p7979
asVtest
p7980
(lp7981
VTrue
p7982
asVhasnum
p7983
(lp7984
V900
p7985
astp7986
Rp7987
(dp7988
g26
S'utf-8'
p7989
sg28
(dp7990
g7977
g7978
sg7980
g7981
sg7983
g7984
ssS'_mutable'
p7991
I01
sbg4
(g11
g12
(dp7992
tp7993
Rp7994
(dp7995
g26
g7989
sg28
(dp7996
sg7991
I00
sbtp7997
sbsg38
(dp7998
S'last_login'
p7999
S'2014-01-09T04:56:18.899521+00:00'
p8000
sS'screen_name'
p8001
VSample user
p8002
sS'exp'
p8003
I0
sS'money'
p8004
I50
sS'gmail'
p8005
Vexample@gmail.com
p8006
sS'id'
p8007
I1
sS'date_joined'
p8008
S'2014-01-09T04:53:26.775143+00:00'
p8009
ssba.