(lp0
(iutil.request_logging
SimpleRequest
p1
(dp2
S'REQUEST'
p3
ccopy_reg
_reconstructor
p4
(cdjango.utils.datastructures
MergeDict
p5
c__builtin__
object
p6
Ntp7
Rp8
(dp9
S'dicts'
p10
(g4
(cdjango.http.request
QueryDict
p11
c__builtin__
dict
p12
(dp13
Vmoney
p14
(lp15
V0
p16
asVuid
p17
(lp18
V4
p19
astp20
Rp21
(dp22
S'_encoding'
p23
S'utf-8'
p24
sS'_data'
p25
(dp26
g14
g15
sg17
g18
ssS'_mutable'
p27
I00
sbg4
(g11
g12
(dp28
tp29
Rp30
(dp31
S'_encoding'
p32
g24
sg25
(dp33
sg27
I00
sbtp34
sbsS'user'
p35
(dp36
S'screen_name'
p37
V\u51a8\u7530\u88d5\u5b50
p38
sS'money'
p39
L0L
sS'last_login'
p40
S'2013-12-25T05:56:30+00:00'
p41
sS'exp'
p42
L0L
sS'gmail'
p43
Vpreferire@gmail.com
p44
sS'id'
p45
L8L
sS'date_joined'
p46
S'2013-12-19T07:41:15+00:00'
p47
ssba(iutil.request_logging
SimpleRequest
p48
(dp49
g3
g4
(g5
g6
Ntp50
Rp51
(dp52
g10
(g4
(g11
g12
(dp53
Vmoney
p54
(lp55
V0
p56
asVuid
p57
(lp58
V4
p59
astp60
Rp61
(dp62
g23
S'utf-8'
p63
sg25
(dp64
g54
g55
sg57
g58
ssS'_mutable'
p65
I00
sbg4
(g11
g12
(dp66
tp67
Rp68
(dp69
S'_encoding'
p70
g63
sg25
(dp71
sg65
I00
sbtp72
sbsg35
(dp73
S'screen_name'
p74
VNakamura Yoshimasa
p75
sS'money'
p76
L0L
sS'last_login'
p77
S'2013-12-25T06:41:27+00:00'
p78
sS'exp'
p79
L0L
sS'date_joined'
p80
S'2013-12-19T00:00:00+00:00'
p81
sS'id'
p82
L5L
sS'gmail'
p83
Vaccount@nakamura.me.uk
p84
ssba(iutil.request_logging
SimpleRequest
p85
(dp86
g3
g4
(g5
g6
Ntp87
Rp88
(dp89
g10
(g4
(g11
g12
(dp90
Vmoney
p91
(lp92
V0
p93
asVuid
p94
(lp95
V4
p96
astp97
Rp98
(dp99
g23
S'utf-8'
p100
sg25
(dp101
g91
g92
sg94
g95
ssS'_mutable'
p102
I00
sbg4
(g11
g12
(dp103
tp104
Rp105
(dp106
S'_encoding'
p107
g100
sg25
(dp108
sg102
I00
sbtp109
sbsg35
(dp110
S'screen_name'
p111
VNakamura Yoshimasa
p112
sS'money'
p113
L0L
sS'last_login'
p114
S'2013-12-25T06:41:55+00:00'
p115
sS'exp'
p116
L0L
sS'gmail'
p117
Vaccount@nakamura.me.uk
p118
sS'id'
p119
L5L
sS'date_joined'
p120
S'2013-12-19T00:00:00+00:00'
p121
ssba(iutil.request_logging
SimpleRequest
p122
(dp123
g3
g4
(g5
g6
Ntp124
Rp125
(dp126
g10
(g4
(g11
g12
(dp127
Vmoney
p128
(lp129
V0
p130
asVuid
p131
(lp132
V4
p133
astp134
Rp135
(dp136
g23
S'utf-8'
p137
sg25
(dp138
g128
g129
sg131
g132
ssS'_mutable'
p139
I00
sbg4
(g11
g12
(dp140
tp141
Rp142
(dp143
S'_encoding'
p144
g137
sg25
(dp145
sg139
I00
sbtp146
sbsg35
(dp147
S'screen_name'
p148
VNakamura Yoshimasa
p149
sS'money'
p150
L0L
sS'last_login'
p151
S'2013-12-25T06:51:02+00:00'
p152
sS'exp'
p153
L0L
sS'date_joined'
p154
S'2013-12-19T00:00:00+00:00'
p155
sS'id'
p156
L5L
sS'gmail'
p157
Vaccount@nakamura.me.uk
p158
ssba(iutil.request_logging
SimpleRequest
p159
(dp160
g3
g4
(g5
g6
Ntp161
Rp162
(dp163
g10
(g4
(g11
g12
(dp164
Vmoney
p165
(lp166
V0
p167
asVuid
p168
(lp169
V1
p170
astp171
Rp172
(dp173
g23
S'utf-8'
p174
sg25
(dp175
g165
g166
sg168
g169
ssS'_mutable'
p176
I00
sbg4
(g11
g12
(dp177
tp178
Rp179
(dp180
S'_encoding'
p181
g174
sg25
(dp182
sg176
I00
sbtp183
sbsg35
(dp184
S'screen_name'
p185
VTikuwa 7
p186
sS'money'
p187
L0L
sS'last_login'
p188
S'2013-12-25T06:53:18+00:00'
p189
sS'exp'
p190
L0L
sS'gmail'
p191
Vtikuwa.tester.no7@gmail.com
p192
sS'id'
p193
L13L
sS'date_joined'
p194
S'2013-12-25T06:53:18+00:00'
p195
ssba(iutil.request_logging
SimpleRequest
p196
(dp197
g3
g4
(g5
g6
Ntp198
Rp199
(dp200
g10
(g4
(g11
g12
(dp201
Vmoney
p202
(lp203
V0
p204
asVuid
p205
(lp206
V1
p207
astp208
Rp209
(dp210
g23
S'utf-8'
p211
sg25
(dp212
g202
g203
sg205
g206
ssS'_mutable'
p213
I00
sbg4
(g11
g12
(dp214
tp215
Rp216
(dp217
S'_encoding'
p218
g211
sg25
(dp219
sg213
I00
sbtp220
sbsg35
(dp221
S'screen_name'
p222
VTikuwa 7
p223
sS'money'
p224
L0L
sS'last_login'
p225
S'2013-12-25T06:55:00+00:00'
p226
sS'exp'
p227
L0L
sS'date_joined'
p228
S'2013-12-25T06:53:18+00:00'
p229
sS'id'
p230
L13L
sS'gmail'
p231
Vtikuwa.tester.no7@gmail.com
p232
ssba(iutil.request_logging
SimpleRequest
p233
(dp234
g3
g4
(g5
g6
Ntp235
Rp236
(dp237
g10
(g4
(g11
g12
(dp238
Vmoney
p239
(lp240
V0
p241
asVuid
p242
(lp243
V6
p244
astp245
Rp246
(dp247
g23
S'utf-8'
p248
sg25
(dp249
g239
g240
sg242
g243
ssS'_mutable'
p250
I00
sbg4
(g11
g12
(dp251
tp252
Rp253
(dp254
S'_encoding'
p255
g248
sg25
(dp256
sg250
I00
sbtp257
sbsg35
(dp258
S'screen_name'
p259
VNakamura Yoshimasa
p260
sS'money'
p261
L0L
sS'last_login'
p262
S'2013-12-25T07:01:14+00:00'
p263
sS'exp'
p264
L0L
sS'gmail'
p265
Vaccount@nakamura.me.uk
p266
sS'id'
p267
L5L
sS'date_joined'
p268
S'2013-12-19T00:00:00+00:00'
p269
ssba(iutil.request_logging
SimpleRequest
p270
(dp271
g3
g4
(g5
g6
Ntp272
Rp273
(dp274
g10
(g4
(g11
g12
(dp275
Vmoney
p276
(lp277
V0
p278
asVuid
p279
(lp280
V6
p281
astp282
Rp283
(dp284
g23
S'utf-8'
p285
sg25
(dp286
g276
g277
sg279
g280
ssS'_mutable'
p287
I00
sbg4
(g11
g12
(dp288
tp289
Rp290
(dp291
S'_encoding'
p292
g285
sg25
(dp293
sg287
I00
sbtp294
sbsg35
(dp295
S'screen_name'
p296
VNakamura Yoshimasa
p297
sS'money'
p298
L0L
sS'last_login'
p299
S'2013-12-25T07:01:52+00:00'
p300
sS'exp'
p301
L0L
sS'date_joined'
p302
S'2013-12-19T00:00:00+00:00'
p303
sS'id'
p304
L5L
sS'gmail'
p305
Vaccount@nakamura.me.uk
p306
ssba(iutil.request_logging
SimpleRequest
p307
(dp308
g3
g4
(g5
g6
Ntp309
Rp310
(dp311
g10
(g4
(g11
g12
(dp312
Vmoney
p313
(lp314
V0
p315
asVuid
p316
(lp317
V1
p318
astp319
Rp320
(dp321
g23
S'utf-8'
p322
sg25
(dp323
g313
g314
sg316
g317
ssS'_mutable'
p324
I00
sbg4
(g11
g12
(dp325
tp326
Rp327
(dp328
S'_encoding'
p329
g322
sg25
(dp330
sg324
I00
sbtp331
sbsg35
(dp332
S'screen_name'
p333
VNakamura Yoshimasa
p334
sS'money'
p335
L0L
sS'last_login'
p336
S'2013-12-25T07:15:49+00:00'
p337
sS'exp'
p338
L0L
sS'gmail'
p339
Vaccount@nakamura.me.uk
p340
sS'id'
p341
L5L
sS'date_joined'
p342
S'2013-12-19T00:00:00+00:00'
p343
ssba(iutil.request_logging
SimpleRequest
p344
(dp345
g3
g4
(g5
g6
Ntp346
Rp347
(dp348
g10
(g4
(g11
g12
(dp349
Vmoney
p350
(lp351
V0
p352
asVuid
p353
(lp354
V1
p355
astp356
Rp357
(dp358
g23
S'utf-8'
p359
sg25
(dp360
g350
g351
sg353
g354
ssS'_mutable'
p361
I00
sbg4
(g11
g12
(dp362
tp363
Rp364
(dp365
S'_encoding'
p366
g359
sg25
(dp367
sg361
I00
sbtp368
sbsg35
(dp369
S'screen_name'
p370
VNakamura Yoshimasa
p371
sS'money'
p372
L0L
sS'last_login'
p373
S'2013-12-25T07:17:13+00:00'
p374
sS'exp'
p375
L0L
sS'date_joined'
p376
S'2013-12-19T00:00:00+00:00'
p377
sS'id'
p378
L5L
sS'gmail'
p379
Vaccount@nakamura.me.uk
p380
ssba(iutil.request_logging
SimpleRequest
p381
(dp382
g3
g4
(g5
g6
Ntp383
Rp384
(dp385
g10
(g4
(g11
g12
(dp386
Vmoney
p387
(lp388
V0
p389
asVuid
p390
(lp391
V1
p392
astp393
Rp394
(dp395
g23
S'utf-8'
p396
sg25
(dp397
g387
g388
sg390
g391
ssS'_mutable'
p398
I00
sbg4
(g11
g12
(dp399
tp400
Rp401
(dp402
S'_encoding'
p403
g396
sg25
(dp404
sg398
I00
sbtp405
sbsg35
(dp406
S'screen_name'
p407
VTikuwa 7
p408
sS'money'
p409
L0L
sS'last_login'
p410
S'2013-12-25T08:20:52+00:00'
p411
sS'exp'
p412
L0L
sS'gmail'
p413
Vtikuwa.tester.no7@gmail.com
p414
sS'id'
p415
L13L
sS'date_joined'
p416
S'2013-12-25T06:53:18+00:00'
p417
ssba(iutil.request_logging
SimpleRequest
p418
(dp419
g3
g4
(g5
g6
Ntp420
Rp421
(dp422
g10
(g4
(g11
g12
(dp423
Vmoney
p424
(lp425
V0
p426
asVuid
p427
(lp428
V1
p429
astp430
Rp431
(dp432
g23
S'utf-8'
p433
sg25
(dp434
g424
g425
sg427
g428
ssS'_mutable'
p435
I00
sbg4
(g11
g12
(dp436
tp437
Rp438
(dp439
S'_encoding'
p440
g433
sg25
(dp441
sg435
I00
sbtp442
sbsg35
(dp443
S'screen_name'
p444
VTikuwa 7
p445
sS'money'
p446
L0L
sS'last_login'
p447
S'2013-12-25T11:11:38+00:00'
p448
sS'exp'
p449
L0L
sS'date_joined'
p450
S'2013-12-25T06:53:18+00:00'
p451
sS'id'
p452
L13L
sS'gmail'
p453
Vtikuwa.tester.no7@gmail.com
p454
ssba(iutil.request_logging
SimpleRequest
p455
(dp456
g3
g4
(g5
g6
Ntp457
Rp458
(dp459
g10
(g4
(g11
g12
(dp460
Vmoney
p461
(lp462
V0
p463
asVuid
p464
(lp465
V6
p466
astp467
Rp468
(dp469
g23
S'utf-8'
p470
sg25
(dp471
g461
g462
sg464
g465
ssS'_mutable'
p472
I00
sbg4
(g11
g12
(dp473
tp474
Rp475
(dp476
S'_encoding'
p477
g470
sg25
(dp478
sg472
I00
sbtp479
sbsg35
(dp480
S'screen_name'
p481
VNakamura Yoshimasa
p482
sS'money'
p483
L0L
sS'last_login'
p484
S'2013-12-25T11:14:53+00:00'
p485
sS'exp'
p486
L0L
sS'gmail'
p487
Vaccount@nakamura.me.uk
p488
sS'id'
p489
L5L
sS'date_joined'
p490
S'2013-12-19T00:00:00+00:00'
p491
ssba(iutil.request_logging
SimpleRequest
p492
(dp493
g3
g4
(g5
g6
Ntp494
Rp495
(dp496
g10
(g4
(g11
g12
(dp497
Vmoney
p498
(lp499
V0
p500
asVuid
p501
(lp502
V6
p503
astp504
Rp505
(dp506
g23
S'utf-8'
p507
sg25
(dp508
g498
g499
sg501
g502
ssS'_mutable'
p509
I00
sbg4
(g11
g12
(dp510
tp511
Rp512
(dp513
S'_encoding'
p514
g507
sg25
(dp515
sg509
I00
sbtp516
sbsg35
(dp517
S'screen_name'
p518
Vkan.webmail@gmail.com
p519
sS'money'
p520
L0L
sS'last_login'
p521
S'2013-12-25T11:43:09+00:00'
p522
sS'exp'
p523
L0L
sS'date_joined'
p524
S'2013-12-24T10:26:53+00:00'
p525
sS'id'
p526
L12L
sS'gmail'
p527
Vkan.webmail@gmail.com
p528
ssba(iutil.request_logging
SimpleRequest
p529
(dp530
g3
g4
(g5
g6
Ntp531
Rp532
(dp533
g10
(g4
(g11
g12
(dp534
Vmoney
p535
(lp536
V0
p537
asVuid
p538
(lp539
V8
p540
astp541
Rp542
(dp543
g23
S'utf-8'
p544
sg25
(dp545
g535
g536
sg538
g539
ssS'_mutable'
p546
I00
sbg4
(g11
g12
(dp547
tp548
Rp549
(dp550
S'_encoding'
p551
g544
sg25
(dp552
sg546
I00
sbtp553
sbsg35
(dp554
S'screen_name'
p555
Vkan.webmail@gmail.com
p556
sS'money'
p557
L0L
sS'last_login'
p558
S'2013-12-25T11:49:14+00:00'
p559
sS'exp'
p560
L0L
sS'gmail'
p561
Vkan.webmail@gmail.com
p562
sS'id'
p563
L12L
sS'date_joined'
p564
S'2013-12-24T10:26:53+00:00'
p565
ssba(iutil.request_logging
SimpleRequest
p566
(dp567
g3
g4
(g5
g6
Ntp568
Rp569
(dp570
g10
(g4
(g11
g12
(dp571
Vmoney
p572
(lp573
V0
p574
asVuid
p575
(lp576
V8
p577
astp578
Rp579
(dp580
g23
S'utf-8'
p581
sg25
(dp582
g572
g573
sg575
g576
ssS'_mutable'
p583
I00
sbg4
(g11
g12
(dp584
tp585
Rp586
(dp587
S'_encoding'
p588
g581
sg25
(dp589
sg583
I00
sbtp590
sbsg35
(dp591
S'screen_name'
p592
Vkan.webmail@gmail.com
p593
sS'money'
p594
L0L
sS'last_login'
p595
S'2013-12-25T11:56:05+00:00'
p596
sS'exp'
p597
L0L
sS'date_joined'
p598
S'2013-12-24T10:26:53+00:00'
p599
sS'id'
p600
L12L
sS'gmail'
p601
Vkan.webmail@gmail.com
p602
ssba(iutil.request_logging
SimpleRequest
p603
(dp604
g3
g4
(g5
g6
Ntp605
Rp606
(dp607
g10
(g4
(g11
g12
(dp608
Vmoney
p609
(lp610
V0
p611
asVuid
p612
(lp613
V5
p614
astp615
Rp616
(dp617
g23
S'utf-8'
p618
sg25
(dp619
g609
g610
sg612
g613
ssS'_mutable'
p620
I00
sbg4
(g11
g12
(dp621
tp622
Rp623
(dp624
S'_encoding'
p625
g618
sg25
(dp626
sg620
I00
sbtp627
sbsg35
(dp628
S'screen_name'
p629
Vkan.webmail@gmail.com
p630
sS'money'
p631
L0L
sS'last_login'
p632
S'2013-12-25T15:49:55+00:00'
p633
sS'exp'
p634
L0L
sS'gmail'
p635
Vkan.webmail@gmail.com
p636
sS'id'
p637
L12L
sS'date_joined'
p638
S'2013-12-24T10:26:53+00:00'
p639
ssba(iutil.request_logging
SimpleRequest
p640
(dp641
g3
g4
(g5
g6
Ntp642
Rp643
(dp644
g10
(g4
(g11
g12
(dp645
Vmoney
p646
(lp647
V0
p648
asVuid
p649
(lp650
V5
p651
astp652
Rp653
(dp654
g23
S'utf-8'
p655
sg25
(dp656
g646
g647
sg649
g650
ssS'_mutable'
p657
I00
sbg4
(g11
g12
(dp658
tp659
Rp660
(dp661
S'_encoding'
p662
g655
sg25
(dp663
sg657
I00
sbtp664
sbsg35
(dp665
S'screen_name'
p666
Vkan.webmail@gmail.com
p667
sS'money'
p668
L0L
sS'last_login'
p669
S'2013-12-25T15:50:33+00:00'
p670
sS'exp'
p671
L0L
sS'date_joined'
p672
S'2013-12-24T10:26:53+00:00'
p673
sS'id'
p674
L12L
sS'gmail'
p675
Vkan.webmail@gmail.com
p676
ssba(iutil.request_logging
SimpleRequest
p677
(dp678
g3
g4
(g5
g6
Ntp679
Rp680
(dp681
g10
(g4
(g11
g12
(dp682
Vmoney
p683
(lp684
V0
p685
asVuid
p686
(lp687
V6
p688
astp689
Rp690
(dp691
g23
S'utf-8'
p692
sg25
(dp693
g683
g684
sg686
g687
ssS'_mutable'
p694
I00
sbg4
(g11
g12
(dp695
tp696
Rp697
(dp698
S'_encoding'
p699
g692
sg25
(dp700
sg694
I00
sbtp701
sbsg35
(dp702
S'screen_name'
p703
Vkan.webmail@gmail.com
p704
sS'money'
p705
L0L
sS'last_login'
p706
S'2013-12-25T15:51:05+00:00'
p707
sS'exp'
p708
L0L
sS'gmail'
p709
Vkan.webmail@gmail.com
p710
sS'id'
p711
L12L
sS'date_joined'
p712
S'2013-12-24T10:26:53+00:00'
p713
ssba(iutil.request_logging
SimpleRequest
p714
(dp715
g3
g4
(g5
g6
Ntp716
Rp717
(dp718
g10
(g4
(g11
g12
(dp719
Vmoney
p720
(lp721
V0
p722
asVuid
p723
(lp724
V6
p725
astp726
Rp727
(dp728
g23
S'utf-8'
p729
sg25
(dp730
g720
g721
sg723
g724
ssS'_mutable'
p731
I00
sbg4
(g11
g12
(dp732
tp733
Rp734
(dp735
S'_encoding'
p736
g729
sg25
(dp737
sg731
I00
sbtp738
sbsg35
(dp739
S'screen_name'
p740
Vkan.webmail@gmail.com
p741
sS'money'
p742
L0L
sS'last_login'
p743
S'2013-12-25T15:51:31+00:00'
p744
sS'exp'
p745
L0L
sS'date_joined'
p746
S'2013-12-24T10:26:53+00:00'
p747
sS'id'
p748
L12L
sS'gmail'
p749
Vkan.webmail@gmail.com
p750
ssba(iutil.request_logging
SimpleRequest
p751
(dp752
g3
g4
(g5
g6
Ntp753
Rp754
(dp755
g10
(g4
(g11
g12
(dp756
Vmoney
p757
(lp758
V0
p759
asVuid
p760
(lp761
V6
p762
astp763
Rp764
(dp765
g23
S'utf-8'
p766
sg25
(dp767
g757
g758
sg760
g761
ssS'_mutable'
p768
I00
sbg4
(g11
g12
(dp769
tp770
Rp771
(dp772
g23
g766
sg25
(dp773
sg768
I00
sbtp774
sbsg35
(dp775
S'last_login'
p776
S'2013-12-25T16:46:01+00:00'
p777
sS'screen_name'
p778
Vkan.webmail@gmail.com
p779
sS'exp'
p780
L0L
sS'money'
p781
L0L
sS'gmail'
p782
Vkan.webmail@gmail.com
p783
sS'id'
p784
L12L
sS'date_joined'
p785
S'2013-12-24T10:26:53+00:00'
p786
ssba.