(lp0
(iutil.request_logging
SimpleRequest
p1
(dp2
S'REQUEST'
p3
ccopy_reg
_reconstructor
p4
(cdjango.utils.datastructures
MergeDict
p5
c__builtin__
object
p6
Ntp7
Rp8
(dp9
S'dicts'
p10
(g4
(cdjango.http.request
QueryDict
p11
c__builtin__
dict
p12
(dp13
Vmoney
p14
(lp15
V0
p16
asVuid
p17
(lp18
V1
p19
astp20
Rp21
(dp22
S'_encoding'
p23
S'utf-8'
p24
sS'_data'
p25
(dp26
g14
g15
sg17
g18
ssS'_mutable'
p27
I00
sbg4
(g11
g12
(dp28
tp29
Rp30
(dp31
S'_encoding'
p32
g24
sg25
(dp33
sg27
I00
sbtp34
sbsS'user'
p35
(dp36
S'screen_name'
p37
V\u6749\u8b19
p38
sS'money'
p39
L0L
sS'last_login'
p40
S'2013-12-24T09:27:02+00:00'
p41
sS'exp'
p42
L0L
sS'gmail'
p43
Vnirvana.kurt.940405@gmail.com
p44
sS'id'
p45
L4L
sS'date_joined'
p46
S'2013-12-19T00:00:00+00:00'
p47
ssba(iutil.request_logging
SimpleRequest
p48
(dp49
g3
g4
(g5
g6
Ntp50
Rp51
(dp52
g10
(g4
(g11
g12
(dp53
Vmoney
p54
(lp55
V0
p56
asVuid
p57
(lp58
V11
p59
astp60
Rp61
(dp62
g23
S'utf-8'
p63
sg25
(dp64
g54
g55
sg57
g58
ssS'_mutable'
p65
I00
sbg4
(g11
g12
(dp66
tp67
Rp68
(dp69
S'_encoding'
p70
g63
sg25
(dp71
sg65
I00
sbtp72
sbsg35
(dp73
S'screen_name'
p74
Vkan.webmail@gmail.com
p75
sS'money'
p76
L0L
sS'last_login'
p77
S'2013-12-24T10:26:53+00:00'
p78
sS'exp'
p79
L0L
sS'gmail'
p80
Vkan.webmail@gmail.com
p81
sS'id'
p82
L12L
sS'date_joined'
p83
S'2013-12-24T10:26:53+00:00'
p84
ssba(iutil.request_logging
SimpleRequest
p85
(dp86
g3
g4
(g5
g6
Ntp87
Rp88
(dp89
g10
(g4
(g11
g12
(dp90
Vmoney
p91
(lp92
V0
p93
asVuid
p94
(lp95
V1
p96
astp97
Rp98
(dp99
g23
S'utf-8'
p100
sg25
(dp101
g91
g92
sg94
g95
ssS'_mutable'
p102
I00
sbg4
(g11
g12
(dp103
tp104
Rp105
(dp106
S'_encoding'
p107
g100
sg25
(dp108
sg102
I00
sbtp109
sbsg35
(dp110
S'screen_name'
p111
Vkan.webmail@gmail.com
p112
sS'money'
p113
L0L
sS'last_login'
p114
S'2013-12-24T10:28:18+00:00'
p115
sS'exp'
p116
L0L
sS'gmail'
p117
Vkan.webmail@gmail.com
p118
sS'id'
p119
L12L
sS'date_joined'
p120
S'2013-12-24T10:26:53+00:00'
p121
ssba(iutil.request_logging
SimpleRequest
p122
(dp123
g3
g4
(g5
g6
Ntp124
Rp125
(dp126
g10
(g4
(g11
g12
(dp127
Vmoney
p128
(lp129
V0
p130
asVuid
p131
(lp132
V11
p133
astp134
Rp135
(dp136
g23
S'utf-8'
p137
sg25
(dp138
g128
g129
sg131
g132
ssS'_mutable'
p139
I00
sbg4
(g11
g12
(dp140
tp141
Rp142
(dp143
S'_encoding'
p144
g137
sg25
(dp145
sg139
I00
sbtp146
sbsg35
(dp147
S'screen_name'
p148
Vkan.webmail@gmail.com
p149
sS'money'
p150
L0L
sS'last_login'
p151
S'2013-12-24T10:42:42+00:00'
p152
sS'exp'
p153
L0L
sS'gmail'
p154
Vkan.webmail@gmail.com
p155
sS'id'
p156
L12L
sS'date_joined'
p157
S'2013-12-24T10:26:53+00:00'
p158
ssba(iutil.request_logging
SimpleRequest
p159
(dp160
g3
g4
(g5
g6
Ntp161
Rp162
(dp163
g10
(g4
(g11
g12
(dp164
Vmoney
p165
(lp166
V0
p167
asVuid
p168
(lp169
V11
p170
astp171
Rp172
(dp173
g23
S'utf-8'
p174
sg25
(dp175
g165
g166
sg168
g169
ssS'_mutable'
p176
I00
sbg4
(g11
g12
(dp177
tp178
Rp179
(dp180
S'_encoding'
p181
g174
sg25
(dp182
sg176
I00
sbtp183
sbsg35
(dp184
S'screen_name'
p185
Vkan.webmail@gmail.com
p186
sS'money'
p187
L0L
sS'last_login'
p188
S'2013-12-24T10:44:45+00:00'
p189
sS'exp'
p190
L0L
sS'gmail'
p191
Vkan.webmail@gmail.com
p192
sS'id'
p193
L12L
sS'date_joined'
p194
S'2013-12-24T10:26:53+00:00'
p195
ssba(iutil.request_logging
SimpleRequest
p196
(dp197
g3
g4
(g5
g6
Ntp198
Rp199
(dp200
g10
(g4
(g11
g12
(dp201
Vmoney
p202
(lp203
V0
p204
asVuid
p205
(lp206
V11
p207
astp208
Rp209
(dp210
g23
S'utf-8'
p211
sg25
(dp212
g202
g203
sg205
g206
ssS'_mutable'
p213
I00
sbg4
(g11
g12
(dp214
tp215
Rp216
(dp217
S'_encoding'
p218
g211
sg25
(dp219
sg213
I00
sbtp220
sbsg35
(dp221
S'screen_name'
p222
Vkan.webmail@gmail.com
p223
sS'money'
p224
L0L
sS'last_login'
p225
S'2013-12-24T10:45:44+00:00'
p226
sS'exp'
p227
L0L
sS'gmail'
p228
Vkan.webmail@gmail.com
p229
sS'id'
p230
L12L
sS'date_joined'
p231
S'2013-12-24T10:26:53+00:00'
p232
ssba(iutil.request_logging
SimpleRequest
p233
(dp234
g3
g4
(g5
g6
Ntp235
Rp236
(dp237
g10
(g4
(g11
g12
(dp238
Vmoney
p239
(lp240
V0
p241
asVuid
p242
(lp243
V10
p244
astp245
Rp246
(dp247
g23
S'utf-8'
p248
sg25
(dp249
g239
g240
sg242
g243
ssS'_mutable'
p250
I00
sbg4
(g11
g12
(dp251
tp252
Rp253
(dp254
S'_encoding'
p255
g248
sg25
(dp256
sg250
I00
sbtp257
sbsg35
(dp258
S'screen_name'
p259
V\u51a8\u7530\u88d5\u5b50
p260
sS'money'
p261
L0L
sS'last_login'
p262
S'2013-12-24T10:45:45+00:00'
p263
sS'exp'
p264
L0L
sS'gmail'
p265
Vpreferire@gmail.com
p266
sS'id'
p267
L8L
sS'date_joined'
p268
S'2013-12-19T07:41:15+00:00'
p269
ssba(iutil.request_logging
SimpleRequest
p270
(dp271
g3
g4
(g5
g6
Ntp272
Rp273
(dp274
g10
(g4
(g11
g12
(dp275
Vmoney
p276
(lp277
V0
p278
asVuid
p279
(lp280
V11
p281
astp282
Rp283
(dp284
g23
S'utf-8'
p285
sg25
(dp286
g276
g277
sg279
g280
ssS'_mutable'
p287
I00
sbg4
(g11
g12
(dp288
tp289
Rp290
(dp291
S'_encoding'
p292
g285
sg25
(dp293
sg287
I00
sbtp294
sbsg35
(dp295
S'screen_name'
p296
Vkan.webmail@gmail.com
p297
sS'money'
p298
L0L
sS'last_login'
p299
S'2013-12-24T10:54:48+00:00'
p300
sS'exp'
p301
L0L
sS'gmail'
p302
Vkan.webmail@gmail.com
p303
sS'id'
p304
L12L
sS'date_joined'
p305
S'2013-12-24T10:26:53+00:00'
p306
ssba(iutil.request_logging
SimpleRequest
p307
(dp308
g3
g4
(g5
g6
Ntp309
Rp310
(dp311
g10
(g4
(g11
g12
(dp312
Vmoney
p313
(lp314
V0
p315
asVuid
p316
(lp317
V1
p318
astp319
Rp320
(dp321
g23
S'utf-8'
p322
sg25
(dp323
g313
g314
sg316
g317
ssS'_mutable'
p324
I00
sbg4
(g11
g12
(dp325
tp326
Rp327
(dp328
S'_encoding'
p329
g322
sg25
(dp330
sg324
I00
sbtp331
sbsg35
(dp332
S'screen_name'
p333
Vkan.webmail@gmail.com
p334
sS'money'
p335
L0L
sS'last_login'
p336
S'2013-12-24T10:56:45+00:00'
p337
sS'exp'
p338
L0L
sS'gmail'
p339
Vkan.webmail@gmail.com
p340
sS'id'
p341
L12L
sS'date_joined'
p342
S'2013-12-24T10:26:53+00:00'
p343
ssba(iutil.request_logging
SimpleRequest
p344
(dp345
g3
g4
(g5
g6
Ntp346
Rp347
(dp348
g10
(g4
(g11
g12
(dp349
Vmoney
p350
(lp351
V0
p352
asVuid
p353
(lp354
V11
p355
astp356
Rp357
(dp358
g23
S'utf-8'
p359
sg25
(dp360
g350
g351
sg353
g354
ssS'_mutable'
p361
I00
sbg4
(g11
g12
(dp362
tp363
Rp364
(dp365
S'_encoding'
p366
g359
sg25
(dp367
sg361
I00
sbtp368
sbsg35
(dp369
S'screen_name'
p370
Vkan.webmail@gmail.com
p371
sS'money'
p372
L0L
sS'last_login'
p373
S'2013-12-24T11:04:56+00:00'
p374
sS'exp'
p375
L0L
sS'gmail'
p376
Vkan.webmail@gmail.com
p377
sS'id'
p378
L12L
sS'date_joined'
p379
S'2013-12-24T10:26:53+00:00'
p380
ssba(iutil.request_logging
SimpleRequest
p381
(dp382
g3
g4
(g5
g6
Ntp383
Rp384
(dp385
g10
(g4
(g11
g12
(dp386
Vmoney
p387
(lp388
V0
p389
asVuid
p390
(lp391
V11
p392
astp393
Rp394
(dp395
g23
S'utf-8'
p396
sg25
(dp397
g387
g388
sg390
g391
ssS'_mutable'
p398
I00
sbg4
(g11
g12
(dp399
tp400
Rp401
(dp402
S'_encoding'
p403
g396
sg25
(dp404
sg398
I00
sbtp405
sbsg35
(dp406
S'screen_name'
p407
Vkan.webmail@gmail.com
p408
sS'money'
p409
L0L
sS'last_login'
p410
S'2013-12-24T11:08:57+00:00'
p411
sS'exp'
p412
L0L
sS'gmail'
p413
Vkan.webmail@gmail.com
p414
sS'id'
p415
L12L
sS'date_joined'
p416
S'2013-12-24T10:26:53+00:00'
p417
ssba(iutil.request_logging
SimpleRequest
p418
(dp419
g3
g4
(g5
g6
Ntp420
Rp421
(dp422
g10
(g4
(g11
g12
(dp423
Vmoney
p424
(lp425
V0
p426
asVuid
p427
(lp428
V1
p429
astp430
Rp431
(dp432
g23
S'utf-8'
p433
sg25
(dp434
g424
g425
sg427
g428
ssS'_mutable'
p435
I00
sbg4
(g11
g12
(dp436
tp437
Rp438
(dp439
S'_encoding'
p440
g433
sg25
(dp441
sg435
I00
sbtp442
sbsg35
(dp443
S'screen_name'
p444
VTikuwa 2
p445
sS'money'
p446
L0L
sS'last_login'
p447
S'2013-12-24T11:18:41+00:00'
p448
sS'exp'
p449
L0L
sS'gmail'
p450
Vtikuwa.tester.no2@gmail.com
p451
sS'id'
p452
L6L
sS'date_joined'
p453
S'2013-12-19T00:00:00+00:00'
p454
ssba(iutil.request_logging
SimpleRequest
p455
(dp456
g3
g4
(g5
g6
Ntp457
Rp458
(dp459
g10
(g4
(g11
g12
(dp460
Vmoney
p461
(lp462
V0
p463
asVuid
p464
(lp465
V1
p466
astp467
Rp468
(dp469
g23
S'utf-8'
p470
sg25
(dp471
g461
g462
sg464
g465
ssS'_mutable'
p472
I00
sbg4
(g11
g12
(dp473
tp474
Rp475
(dp476
S'_encoding'
p477
g470
sg25
(dp478
sg472
I00
sbtp479
sbsg35
(dp480
S'screen_name'
p481
Vkan.webmail@gmail.com
p482
sS'money'
p483
L0L
sS'last_login'
p484
S'2013-12-24T11:27:50+00:00'
p485
sS'exp'
p486
L0L
sS'gmail'
p487
Vkan.webmail@gmail.com
p488
sS'id'
p489
L12L
sS'date_joined'
p490
S'2013-12-24T10:26:53+00:00'
p491
ssba(iutil.request_logging
SimpleRequest
p492
(dp493
g3
g4
(g5
g6
Ntp494
Rp495
(dp496
g10
(g4
(g11
g12
(dp497
Vmoney
p498
(lp499
V0
p500
asVuid
p501
(lp502
V1
p503
astp504
Rp505
(dp506
g23
S'utf-8'
p507
sg25
(dp508
g498
g499
sg501
g502
ssS'_mutable'
p509
I00
sbg4
(g11
g12
(dp510
tp511
Rp512
(dp513
S'_encoding'
p514
g507
sg25
(dp515
sg509
I00
sbtp516
sbsg35
(dp517
S'screen_name'
p518
Vkan.webmail@gmail.com
p519
sS'money'
p520
L0L
sS'last_login'
p521
S'2013-12-24T11:32:50+00:00'
p522
sS'exp'
p523
L0L
sS'gmail'
p524
Vkan.webmail@gmail.com
p525
sS'id'
p526
L12L
sS'date_joined'
p527
S'2013-12-24T10:26:53+00:00'
p528
ssba(iutil.request_logging
SimpleRequest
p529
(dp530
g3
g4
(g5
g6
Ntp531
Rp532
(dp533
g10
(g4
(g11
g12
(dp534
Vmoney
p535
(lp536
V0
p537
asVuid
p538
(lp539
V1
p540
astp541
Rp542
(dp543
g23
S'utf-8'
p544
sg25
(dp545
g535
g536
sg538
g539
ssS'_mutable'
p546
I00
sbg4
(g11
g12
(dp547
tp548
Rp549
(dp550
S'_encoding'
p551
g544
sg25
(dp552
sg546
I00
sbtp553
sbsg35
(dp554
S'screen_name'
p555
VNakamura Yoshimasa
p556
sS'money'
p557
L0L
sS'last_login'
p558
S'2013-12-24T11:39:42+00:00'
p559
sS'exp'
p560
L0L
sS'gmail'
p561
Vaccount@nakamura.me.uk
p562
sS'id'
p563
L5L
sS'date_joined'
p564
S'2013-12-19T00:00:00+00:00'
p565
ssba(iutil.request_logging
SimpleRequest
p566
(dp567
g3
g4
(g5
g6
Ntp568
Rp569
(dp570
g10
(g4
(g11
g12
(dp571
Vmoney
p572
(lp573
V0
p574
asVuid
p575
(lp576
V1
p577
astp578
Rp579
(dp580
g23
S'utf-8'
p581
sg25
(dp582
g572
g573
sg575
g576
ssS'_mutable'
p583
I00
sbg4
(g11
g12
(dp584
tp585
Rp586
(dp587
S'_encoding'
p588
g581
sg25
(dp589
sg583
I00
sbtp590
sbsg35
(dp591
S'screen_name'
p592
VNakamura Yoshimasa
p593
sS'money'
p594
L0L
sS'last_login'
p595
S'2013-12-24T11:44:26+00:00'
p596
sS'exp'
p597
L0L
sS'gmail'
p598
Vaccount@nakamura.me.uk
p599
sS'id'
p600
L5L
sS'date_joined'
p601
S'2013-12-19T00:00:00+00:00'
p602
ssba(iutil.request_logging
SimpleRequest
p603
(dp604
g3
g4
(g5
g6
Ntp605
Rp606
(dp607
g10
(g4
(g11
g12
(dp608
Vmoney
p609
(lp610
V0
p611
asVuid
p612
(lp613
V1
p614
astp615
Rp616
(dp617
g23
S'utf-8'
p618
sg25
(dp619
g609
g610
sg612
g613
ssS'_mutable'
p620
I00
sbg4
(g11
g12
(dp621
tp622
Rp623
(dp624
S'_encoding'
p625
g618
sg25
(dp626
sg620
I00
sbtp627
sbsg35
(dp628
S'screen_name'
p629
VTikuwa 2
p630
sS'money'
p631
L0L
sS'last_login'
p632
S'2013-12-24T13:18:22+00:00'
p633
sS'exp'
p634
L0L
sS'gmail'
p635
Vtikuwa.tester.no2@gmail.com
p636
sS'id'
p637
L6L
sS'date_joined'
p638
S'2013-12-19T00:00:00+00:00'
p639
ssba(iutil.request_logging
SimpleRequest
p640
(dp641
g3
g4
(g5
g6
Ntp642
Rp643
(dp644
g10
(g4
(g11
g12
(dp645
Vmoney
p646
(lp647
V0
p648
asVuid
p649
(lp650
V1
p651
astp652
Rp653
(dp654
g23
S'utf-8'
p655
sg25
(dp656
g646
g647
sg649
g650
ssS'_mutable'
p657
I00
sbg4
(g11
g12
(dp658
tp659
Rp660
(dp661
S'_encoding'
p662
g655
sg25
(dp663
sg657
I00
sbtp664
sbsg35
(dp665
S'screen_name'
p666
VTikuwa 2
p667
sS'money'
p668
L0L
sS'last_login'
p669
S'2013-12-24T13:19:19+00:00'
p670
sS'exp'
p671
L0L
sS'gmail'
p672
Vtikuwa.tester.no2@gmail.com
p673
sS'id'
p674
L6L
sS'date_joined'
p675
S'2013-12-19T00:00:00+00:00'
p676
ssba(iutil.request_logging
SimpleRequest
p677
(dp678
g3
g4
(g5
g6
Ntp679
Rp680
(dp681
g10
(g4
(g11
g12
(dp682
Vmoney
p683
(lp684
V0
p685
asVuid
p686
(lp687
V1
p688
astp689
Rp690
(dp691
g23
S'utf-8'
p692
sg25
(dp693
g683
g684
sg686
g687
ssS'_mutable'
p694
I00
sbg4
(g11
g12
(dp695
tp696
Rp697
(dp698
S'_encoding'
p699
g692
sg25
(dp700
sg694
I00
sbtp701
sbsg35
(dp702
S'screen_name'
p703
VTikuwa 2
p704
sS'money'
p705
L0L
sS'last_login'
p706
S'2013-12-24T13:20:07+00:00'
p707
sS'exp'
p708
L0L
sS'gmail'
p709
Vtikuwa.tester.no2@gmail.com
p710
sS'id'
p711
L6L
sS'date_joined'
p712
S'2013-12-19T00:00:00+00:00'
p713
ssba(iutil.request_logging
SimpleRequest
p714
(dp715
g3
g4
(g5
g6
Ntp716
Rp717
(dp718
g10
(g4
(g11
g12
(dp719
Vmoney
p720
(lp721
V0
p722
asVuid
p723
(lp724
V1
p725
astp726
Rp727
(dp728
g23
S'utf-8'
p729
sg25
(dp730
g720
g721
sg723
g724
ssS'_mutable'
p731
I00
sbg4
(g11
g12
(dp732
tp733
Rp734
(dp735
S'_encoding'
p736
g729
sg25
(dp737
sg731
I00
sbtp738
sbsg35
(dp739
S'screen_name'
p740
VTikuwa 2
p741
sS'money'
p742
L0L
sS'last_login'
p743
S'2013-12-24T14:21:19+00:00'
p744
sS'exp'
p745
L0L
sS'gmail'
p746
Vtikuwa.tester.no2@gmail.com
p747
sS'id'
p748
L6L
sS'date_joined'
p749
S'2013-12-19T00:00:00+00:00'
p750
ssba(iutil.request_logging
SimpleRequest
p751
(dp752
g3
g4
(g5
g6
Ntp753
Rp754
(dp755
g10
(g4
(g11
g12
(dp756
Vmoney
p757
(lp758
V0
p759
asVuid
p760
(lp761
V1
p762
astp763
Rp764
(dp765
g23
S'utf-8'
p766
sg25
(dp767
g757
g758
sg760
g761
ssS'_mutable'
p768
I00
sbg4
(g11
g12
(dp769
tp770
Rp771
(dp772
S'_encoding'
p773
g766
sg25
(dp774
sg768
I00
sbtp775
sbsg35
(dp776
S'screen_name'
p777
VTikuwa 2
p778
sS'money'
p779
L0L
sS'last_login'
p780
S'2013-12-24T14:22:03+00:00'
p781
sS'exp'
p782
L0L
sS'gmail'
p783
Vtikuwa.tester.no2@gmail.com
p784
sS'id'
p785
L6L
sS'date_joined'
p786
S'2013-12-19T00:00:00+00:00'
p787
ssba(iutil.request_logging
SimpleRequest
p788
(dp789
g3
g4
(g5
g6
Ntp790
Rp791
(dp792
g10
(g4
(g11
g12
(dp793
Vmoney
p794
(lp795
V0
p796
asVuid
p797
(lp798
V1
p799
astp800
Rp801
(dp802
g23
S'utf-8'
p803
sg25
(dp804
g794
g795
sg797
g798
ssS'_mutable'
p805
I00
sbg4
(g11
g12
(dp806
tp807
Rp808
(dp809
S'_encoding'
p810
g803
sg25
(dp811
sg805
I00
sbtp812
sbsg35
(dp813
S'screen_name'
p814
VTikuwa 2
p815
sS'money'
p816
L0L
sS'last_login'
p817
S'2013-12-24T15:13:06+00:00'
p818
sS'exp'
p819
L0L
sS'gmail'
p820
Vtikuwa.tester.no2@gmail.com
p821
sS'id'
p822
L6L
sS'date_joined'
p823
S'2013-12-19T00:00:00+00:00'
p824
ssba(iutil.request_logging
SimpleRequest
p825
(dp826
g3
g4
(g5
g6
Ntp827
Rp828
(dp829
g10
(g4
(g11
g12
(dp830
Vmoney
p831
(lp832
V0
p833
asVuid
p834
(lp835
V1
p836
astp837
Rp838
(dp839
g23
S'utf-8'
p840
sg25
(dp841
g831
g832
sg834
g835
ssS'_mutable'
p842
I00
sbg4
(g11
g12
(dp843
tp844
Rp845
(dp846
S'_encoding'
p847
g840
sg25
(dp848
sg842
I00
sbtp849
sbsg35
(dp850
S'screen_name'
p851
VTikuwa 2
p852
sS'money'
p853
L0L
sS'last_login'
p854
S'2013-12-24T15:13:49+00:00'
p855
sS'exp'
p856
L0L
sS'gmail'
p857
Vtikuwa.tester.no2@gmail.com
p858
sS'id'
p859
L6L
sS'date_joined'
p860
S'2013-12-19T00:00:00+00:00'
p861
ssba(iutil.request_logging
SimpleRequest
p862
(dp863
g3
g4
(g5
g6
Ntp864
Rp865
(dp866
g10
(g4
(g11
g12
(dp867
Vmoney
p868
(lp869
V0
p870
asVuid
p871
(lp872
V1
p873
astp874
Rp875
(dp876
g23
S'utf-8'
p877
sg25
(dp878
g868
g869
sg871
g872
ssS'_mutable'
p879
I00
sbg4
(g11
g12
(dp880
tp881
Rp882
(dp883
S'_encoding'
p884
g877
sg25
(dp885
sg879
I00
sbtp886
sbsg35
(dp887
S'screen_name'
p888
Vkan.webmail@gmail.com
p889
sS'money'
p890
L0L
sS'last_login'
p891
S'2013-12-24T15:38:31+00:00'
p892
sS'exp'
p893
L0L
sS'gmail'
p894
Vkan.webmail@gmail.com
p895
sS'id'
p896
L12L
sS'date_joined'
p897
S'2013-12-24T10:26:53+00:00'
p898
ssba(iutil.request_logging
SimpleRequest
p899
(dp900
g3
g4
(g5
g6
Ntp901
Rp902
(dp903
g10
(g4
(g11
g12
(dp904
Vmoney
p905
(lp906
V0
p907
asVuid
p908
(lp909
V1
p910
astp911
Rp912
(dp913
g23
S'utf-8'
p914
sg25
(dp915
g905
g906
sg908
g909
ssS'_mutable'
p916
I00
sbg4
(g11
g12
(dp917
tp918
Rp919
(dp920
S'_encoding'
p921
g914
sg25
(dp922
sg916
I00
sbtp923
sbsg35
(dp924
S'screen_name'
p925
Vkan.webmail@gmail.com
p926
sS'money'
p927
L0L
sS'last_login'
p928
S'2013-12-24T15:40:15+00:00'
p929
sS'exp'
p930
L0L
sS'gmail'
p931
Vkan.webmail@gmail.com
p932
sS'id'
p933
L12L
sS'date_joined'
p934
S'2013-12-24T10:26:53+00:00'
p935
ssba(iutil.request_logging
SimpleRequest
p936
(dp937
g3
g4
(g5
g6
Ntp938
Rp939
(dp940
g10
(g4
(g11
g12
(dp941
Vmoney
p942
(lp943
V0
p944
asVuid
p945
(lp946
V1
p947
astp948
Rp949
(dp950
g23
S'utf-8'
p951
sg25
(dp952
g942
g943
sg945
g946
ssS'_mutable'
p953
I00
sbg4
(g11
g12
(dp954
tp955
Rp956
(dp957
S'_encoding'
p958
g951
sg25
(dp959
sg953
I00
sbtp960
sbsg35
(dp961
S'screen_name'
p962
V\u51a8\u7530\u88d5\u5b50
p963
sS'money'
p964
L0L
sS'last_login'
p965
S'2013-12-24T16:18:59+00:00'
p966
sS'exp'
p967
L0L
sS'gmail'
p968
Vpreferire@gmail.com
p969
sS'id'
p970
L8L
sS'date_joined'
p971
S'2013-12-19T07:41:15+00:00'
p972
ssba(iutil.request_logging
SimpleRequest
p973
(dp974
g3
g4
(g5
g6
Ntp975
Rp976
(dp977
g10
(g4
(g11
g12
(dp978
Vmoney
p979
(lp980
V0
p981
asVuid
p982
(lp983
V1
p984
astp985
Rp986
(dp987
g23
S'utf-8'
p988
sg25
(dp989
g979
g980
sg982
g983
ssS'_mutable'
p990
I00
sbg4
(g11
g12
(dp991
tp992
Rp993
(dp994
S'_encoding'
p995
g988
sg25
(dp996
sg990
I00
sbtp997
sbsg35
(dp998
S'screen_name'
p999
Vkan.webmail@gmail.com
p1000
sS'money'
p1001
L0L
sS'last_login'
p1002
S'2013-12-24T16:49:48+00:00'
p1003
sS'exp'
p1004
L0L
sS'gmail'
p1005
Vkan.webmail@gmail.com
p1006
sS'id'
p1007
L12L
sS'date_joined'
p1008
S'2013-12-24T10:26:53+00:00'
p1009
ssba(iutil.request_logging
SimpleRequest
p1010
(dp1011
g3
g4
(g5
g6
Ntp1012
Rp1013
(dp1014
g10
(g4
(g11
g12
(dp1015
Vmoney
p1016
(lp1017
V0
p1018
asVuid
p1019
(lp1020
V1
p1021
astp1022
Rp1023
(dp1024
g23
S'utf-8'
p1025
sg25
(dp1026
g1016
g1017
sg1019
g1020
ssS'_mutable'
p1027
I00
sbg4
(g11
g12
(dp1028
tp1029
Rp1030
(dp1031
S'_encoding'
p1032
g1025
sg25
(dp1033
sg1027
I00
sbtp1034
sbsg35
(dp1035
S'screen_name'
p1036
Vkan.webmail@gmail.com
p1037
sS'money'
p1038
L0L
sS'last_login'
p1039
S'2013-12-24T16:52:07+00:00'
p1040
sS'exp'
p1041
L0L
sS'gmail'
p1042
Vkan.webmail@gmail.com
p1043
sS'id'
p1044
L12L
sS'date_joined'
p1045
S'2013-12-24T10:26:53+00:00'
p1046
ssba(iutil.request_logging
SimpleRequest
p1047
(dp1048
g3
g4
(g5
g6
Ntp1049
Rp1050
(dp1051
g10
(g4
(g11
g12
(dp1052
Vmoney
p1053
(lp1054
V0
p1055
asVuid
p1056
(lp1057
V1
p1058
astp1059
Rp1060
(dp1061
g23
S'utf-8'
p1062
sg25
(dp1063
g1053
g1054
sg1056
g1057
ssS'_mutable'
p1064
I00
sbg4
(g11
g12
(dp1065
tp1066
Rp1067
(dp1068
S'_encoding'
p1069
g1062
sg25
(dp1070
sg1064
I00
sbtp1071
sbsg35
(dp1072
S'screen_name'
p1073
Vkan.webmail@gmail.com
p1074
sS'money'
p1075
L0L
sS'last_login'
p1076
S'2013-12-24T16:54:10+00:00'
p1077
sS'exp'
p1078
L0L
sS'gmail'
p1079
Vkan.webmail@gmail.com
p1080
sS'id'
p1081
L12L
sS'date_joined'
p1082
S'2013-12-24T10:26:53+00:00'
p1083
ssba(iutil.request_logging
SimpleRequest
p1084
(dp1085
g3
g4
(g5
g6
Ntp1086
Rp1087
(dp1088
g10
(g4
(g11
g12
(dp1089
Vmoney
p1090
(lp1091
V0
p1092
asVuid
p1093
(lp1094
V1
p1095
astp1096
Rp1097
(dp1098
g23
S'utf-8'
p1099
sg25
(dp1100
g1090
g1091
sg1093
g1094
ssS'_mutable'
p1101
I00
sbg4
(g11
g12
(dp1102
tp1103
Rp1104
(dp1105
S'_encoding'
p1106
g1099
sg25
(dp1107
sg1101
I00
sbtp1108
sbsg35
(dp1109
S'screen_name'
p1110
VTikuwa 2
p1111
sS'money'
p1112
L0L
sS'last_login'
p1113
S'2013-12-24T17:01:51+00:00'
p1114
sS'exp'
p1115
L0L
sS'gmail'
p1116
Vtikuwa.tester.no2@gmail.com
p1117
sS'id'
p1118
L6L
sS'date_joined'
p1119
S'2013-12-19T00:00:00+00:00'
p1120
ssba(iutil.request_logging
SimpleRequest
p1121
(dp1122
g3
g4
(g5
g6
Ntp1123
Rp1124
(dp1125
g10
(g4
(g11
g12
(dp1126
Vmoney
p1127
(lp1128
V0
p1129
asVuid
p1130
(lp1131
V1
p1132
astp1133
Rp1134
(dp1135
g23
S'utf-8'
p1136
sg25
(dp1137
g1127
g1128
sg1130
g1131
ssS'_mutable'
p1138
I00
sbg4
(g11
g12
(dp1139
tp1140
Rp1141
(dp1142
S'_encoding'
p1143
g1136
sg25
(dp1144
sg1138
I00
sbtp1145
sbsg35
(dp1146
S'screen_name'
p1147
VTikuwa 2
p1148
sS'money'
p1149
L0L
sS'last_login'
p1150
S'2013-12-24T17:03:22+00:00'
p1151
sS'exp'
p1152
L0L
sS'gmail'
p1153
Vtikuwa.tester.no2@gmail.com
p1154
sS'id'
p1155
L6L
sS'date_joined'
p1156
S'2013-12-19T00:00:00+00:00'
p1157
ssba(iutil.request_logging
SimpleRequest
p1158
(dp1159
g3
g4
(g5
g6
Ntp1160
Rp1161
(dp1162
g10
(g4
(g11
g12
(dp1163
Vmoney
p1164
(lp1165
V0
p1166
asVuid
p1167
(lp1168
V1
p1169
astp1170
Rp1171
(dp1172
g23
S'utf-8'
p1173
sg25
(dp1174
g1164
g1165
sg1167
g1168
ssS'_mutable'
p1175
I00
sbg4
(g11
g12
(dp1176
tp1177
Rp1178
(dp1179
S'_encoding'
p1180
g1173
sg25
(dp1181
sg1175
I00
sbtp1182
sbsg35
(dp1183
S'screen_name'
p1184
VTikuwa 2
p1185
sS'money'
p1186
L0L
sS'last_login'
p1187
S'2013-12-24T17:03:53+00:00'
p1188
sS'exp'
p1189
L0L
sS'gmail'
p1190
Vtikuwa.tester.no2@gmail.com
p1191
sS'id'
p1192
L6L
sS'date_joined'
p1193
S'2013-12-19T00:00:00+00:00'
p1194
ssba(iutil.request_logging
SimpleRequest
p1195
(dp1196
g3
g4
(g5
g6
Ntp1197
Rp1198
(dp1199
g10
(g4
(g11
g12
(dp1200
Vmoney
p1201
(lp1202
V0
p1203
asVuid
p1204
(lp1205
V1
p1206
astp1207
Rp1208
(dp1209
g23
S'utf-8'
p1210
sg25
(dp1211
g1201
g1202
sg1204
g1205
ssS'_mutable'
p1212
I00
sbg4
(g11
g12
(dp1213
tp1214
Rp1215
(dp1216
S'_encoding'
p1217
g1210
sg25
(dp1218
sg1212
I00
sbtp1219
sbsg35
(dp1220
S'screen_name'
p1221
Vkan.webmail@gmail.com
p1222
sS'money'
p1223
L0L
sS'last_login'
p1224
S'2013-12-24T17:44:41+00:00'
p1225
sS'exp'
p1226
L0L
sS'gmail'
p1227
Vkan.webmail@gmail.com
p1228
sS'id'
p1229
L12L
sS'date_joined'
p1230
S'2013-12-24T10:26:53+00:00'
p1231
ssba(iutil.request_logging
SimpleRequest
p1232
(dp1233
g3
g4
(g5
g6
Ntp1234
Rp1235
(dp1236
g10
(g4
(g11
g12
(dp1237
Vmoney
p1238
(lp1239
V0
p1240
asVuid
p1241
(lp1242
V1
p1243
astp1244
Rp1245
(dp1246
g23
S'utf-8'
p1247
sg25
(dp1248
g1238
g1239
sg1241
g1242
ssS'_mutable'
p1249
I00
sbg4
(g11
g12
(dp1250
tp1251
Rp1252
(dp1253
S'_encoding'
p1254
g1247
sg25
(dp1255
sg1249
I00
sbtp1256
sbsg35
(dp1257
S'screen_name'
p1258
Vkan.webmail@gmail.com
p1259
sS'money'
p1260
L0L
sS'last_login'
p1261
S'2013-12-24T17:45:39+00:00'
p1262
sS'exp'
p1263
L0L
sS'gmail'
p1264
Vkan.webmail@gmail.com
p1265
sS'id'
p1266
L12L
sS'date_joined'
p1267
S'2013-12-24T10:26:53+00:00'
p1268
ssba(iutil.request_logging
SimpleRequest
p1269
(dp1270
g3
g4
(g5
g6
Ntp1271
Rp1272
(dp1273
g10
(g4
(g11
g12
(dp1274
Vmoney
p1275
(lp1276
V0
p1277
asVuid
p1278
(lp1279
V5
p1280
astp1281
Rp1282
(dp1283
g23
S'utf-8'
p1284
sg25
(dp1285
g1275
g1276
sg1278
g1279
ssS'_mutable'
p1286
I00
sbg4
(g11
g12
(dp1287
tp1288
Rp1289
(dp1290
S'_encoding'
p1291
g1284
sg25
(dp1292
sg1286
I00
sbtp1293
sbsg35
(dp1294
S'screen_name'
p1295
Vkan.webmail@gmail.com
p1296
sS'money'
p1297
L0L
sS'last_login'
p1298
S'2013-12-24T17:47:59+00:00'
p1299
sS'exp'
p1300
L0L
sS'gmail'
p1301
Vkan.webmail@gmail.com
p1302
sS'id'
p1303
L12L
sS'date_joined'
p1304
S'2013-12-24T10:26:53+00:00'
p1305
ssba(iutil.request_logging
SimpleRequest
p1306
(dp1307
g3
g4
(g5
g6
Ntp1308
Rp1309
(dp1310
g10
(g4
(g11
g12
(dp1311
Vmoney
p1312
(lp1313
V0
p1314
asVuid
p1315
(lp1316
V5
p1317
astp1318
Rp1319
(dp1320
g23
S'utf-8'
p1321
sg25
(dp1322
g1312
g1313
sg1315
g1316
ssS'_mutable'
p1323
I00
sbg4
(g11
g12
(dp1324
tp1325
Rp1326
(dp1327
S'_encoding'
p1328
g1321
sg25
(dp1329
sg1323
I00
sbtp1330
sbsg35
(dp1331
S'screen_name'
p1332
Vkan.webmail@gmail.com
p1333
sS'money'
p1334
L0L
sS'last_login'
p1335
S'2013-12-24T19:26:04+00:00'
p1336
sS'exp'
p1337
L0L
sS'gmail'
p1338
Vkan.webmail@gmail.com
p1339
sS'id'
p1340
L12L
sS'date_joined'
p1341
S'2013-12-24T10:26:53+00:00'
p1342
ssba(iutil.request_logging
SimpleRequest
p1343
(dp1344
g3
g4
(g5
g6
Ntp1345
Rp1346
(dp1347
g10
(g4
(g11
g12
(dp1348
Vmoney
p1349
(lp1350
V0
p1351
asVuid
p1352
(lp1353
V5
p1354
astp1355
Rp1356
(dp1357
g23
S'utf-8'
p1358
sg25
(dp1359
g1349
g1350
sg1352
g1353
ssS'_mutable'
p1360
I00
sbg4
(g11
g12
(dp1361
tp1362
Rp1363
(dp1364
S'_encoding'
p1365
g1358
sg25
(dp1366
sg1360
I00
sbtp1367
sbsg35
(dp1368
S'screen_name'
p1369
Vkan.webmail@gmail.com
p1370
sS'money'
p1371
L0L
sS'last_login'
p1372
S'2013-12-24T19:30:29+00:00'
p1373
sS'exp'
p1374
L0L
sS'gmail'
p1375
Vkan.webmail@gmail.com
p1376
sS'id'
p1377
L12L
sS'date_joined'
p1378
S'2013-12-24T10:26:53+00:00'
p1379
ssba.