(lp0
(iutil.request_logging
SimpleRequest
p1
(dp2
S'REQUEST'
p3
ccopy_reg
_reconstructor
p4
(cdjango.utils.datastructures
MergeDict
p5
c__builtin__
object
p6
Ntp7
Rp8
(dp9
S'dicts'
p10
(g4
(cdjango.http.request
QueryDict
p11
c__builtin__
dict
p12
(dp13
Vtid
p14
(lp15
V1
p16
asVhasnum
p17
(lp18
V0
p19
astp20
Rp21
(dp22
S'_encoding'
p23
S'utf-8'
p24
sS'_data'
p25
(dp26
g14
g15
sg17
g18
ssS'_mutable'
p27
I00
sbg4
(g11
g12
(dp28
tp29
Rp30
(dp31
S'_encoding'
p32
g24
sg25
(dp33
sg27
I00
sbtp34
sbsS'user'
p35
(dp36
S'screen_name'
p37
V\u51a8\u7530\u88d5\u5b50
p38
sS'money'
p39
L0L
sS'last_login'
p40
S'2013-12-28T10:17:07+00:00'
p41
sS'exp'
p42
L0L
sS'gmail'
p43
Vpreferire@gmail.com
p44
sS'id'
p45
L8L
sS'date_joined'
p46
S'2013-12-19T07:41:15+00:00'
p47
ssba(iutil.request_logging
SimpleRequest
p48
(dp49
g3
g4
(g5
g6
Ntp50
Rp51
(dp52
g10
(g4
(g11
g12
(dp53
Vtid
p54
(lp55
V2
p56
asVhasnum
p57
(lp58
V56
p59
astp60
Rp61
(dp62
g23
S'utf-8'
p63
sg25
(dp64
g54
g55
sg57
g58
ssS'_mutable'
p65
I00
sbg4
(g11
g12
(dp66
tp67
Rp68
(dp69
S'_encoding'
p70
g63
sg25
(dp71
sg65
I00
sbtp72
sbsg35
(dp73
S'screen_name'
p74
V\u51a8\u7530\u88d5\u5b50
p75
sS'money'
p76
L0L
sS'last_login'
p77
S'2013-12-28T10:17:07+00:00'
p78
sS'exp'
p79
L0L
sS'date_joined'
p80
S'2013-12-19T07:41:15+00:00'
p81
sS'id'
p82
L8L
sS'gmail'
p83
Vpreferire@gmail.com
p84
ssba(iutil.request_logging
SimpleRequest
p85
(dp86
g3
g4
(g5
g6
Ntp87
Rp88
(dp89
g10
(g4
(g11
g12
(dp90
Vtid
p91
(lp92
V3
p93
asVhasnum
p94
(lp95
V87
p96
astp97
Rp98
(dp99
g23
S'utf-8'
p100
sg25
(dp101
g91
g92
sg94
g95
ssS'_mutable'
p102
I00
sbg4
(g11
g12
(dp103
tp104
Rp105
(dp106
S'_encoding'
p107
g100
sg25
(dp108
sg102
I00
sbtp109
sbsg35
(dp110
S'screen_name'
p111
V\u51a8\u7530\u88d5\u5b50
p112
sS'money'
p113
L0L
sS'last_login'
p114
S'2013-12-28T10:17:07+00:00'
p115
sS'exp'
p116
L0L
sS'gmail'
p117
Vpreferire@gmail.com
p118
sS'id'
p119
L8L
sS'date_joined'
p120
S'2013-12-19T07:41:15+00:00'
p121
ssba(iutil.request_logging
SimpleRequest
p122
(dp123
g3
g4
(g5
g6
Ntp124
Rp125
(dp126
g10
(g4
(g11
g12
(dp127
Vtid
p128
(lp129
V4
p130
asVhasnum
p131
(lp132
V2
p133
astp134
Rp135
(dp136
g23
S'utf-8'
p137
sg25
(dp138
g128
g129
sg131
g132
ssS'_mutable'
p139
I00
sbg4
(g11
g12
(dp140
tp141
Rp142
(dp143
S'_encoding'
p144
g137
sg25
(dp145
sg139
I00
sbtp146
sbsg35
(dp147
S'screen_name'
p148
V\u51a8\u7530\u88d5\u5b50
p149
sS'money'
p150
L0L
sS'last_login'
p151
S'2013-12-28T10:17:07+00:00'
p152
sS'exp'
p153
L0L
sS'date_joined'
p154
S'2013-12-19T07:41:15+00:00'
p155
sS'id'
p156
L8L
sS'gmail'
p157
Vpreferire@gmail.com
p158
ssba(iutil.request_logging
SimpleRequest
p159
(dp160
g3
g4
(g5
g6
Ntp161
Rp162
(dp163
g10
(g4
(g11
g12
(dp164
Vtid
p165
(lp166
V12
p167
asVhasnum
p168
(lp169
V4
p170
astp171
Rp172
(dp173
g23
S'utf-8'
p174
sg25
(dp175
g165
g166
sg168
g169
ssS'_mutable'
p176
I00
sbg4
(g11
g12
(dp177
tp178
Rp179
(dp180
S'_encoding'
p181
g174
sg25
(dp182
sg176
I00
sbtp183
sbsg35
(dp184
S'screen_name'
p185
V\u51a8\u7530\u88d5\u5b50
p186
sS'money'
p187
L0L
sS'last_login'
p188
S'2013-12-28T10:17:07+00:00'
p189
sS'exp'
p190
L0L
sS'gmail'
p191
Vpreferire@gmail.com
p192
sS'id'
p193
L8L
sS'date_joined'
p194
S'2013-12-19T07:41:15+00:00'
p195
ssba(iutil.request_logging
SimpleRequest
p196
(dp197
g3
g4
(g5
g6
Ntp198
Rp199
(dp200
g10
(g4
(g11
g12
(dp201
Vtid
p202
(lp203
V3
p204
asVhasnum
p205
(lp206
V26
p207
astp208
Rp209
(dp210
g23
S'utf-8'
p211
sg25
(dp212
g202
g203
sg205
g206
ssS'_mutable'
p213
I00
sbg4
(g11
g12
(dp214
tp215
Rp216
(dp217
S'_encoding'
p218
g211
sg25
(dp219
sg213
I00
sbtp220
sbsg35
(dp221
S'screen_name'
p222
Vkan.webmail@gmail.com
p223
sS'money'
p224
L0L
sS'last_login'
p225
S'2013-12-28T10:17:05+00:00'
p226
sS'exp'
p227
L0L
sS'date_joined'
p228
S'2013-12-24T10:26:53+00:00'
p229
sS'id'
p230
L12L
sS'gmail'
p231
Vkan.webmail@gmail.com
p232
ssba(iutil.request_logging
SimpleRequest
p233
(dp234
g3
g4
(g5
g6
Ntp235
Rp236
(dp237
g10
(g4
(g11
g12
(dp238
Vtid
p239
(lp240
V4
p241
asVhasnum
p242
(lp243
V2
p244
astp245
Rp246
(dp247
g23
S'utf-8'
p248
sg25
(dp249
g239
g240
sg242
g243
ssS'_mutable'
p250
I00
sbg4
(g11
g12
(dp251
tp252
Rp253
(dp254
S'_encoding'
p255
g248
sg25
(dp256
sg250
I00
sbtp257
sbsg35
(dp258
S'screen_name'
p259
Vkan.webmail@gmail.com
p260
sS'money'
p261
L0L
sS'last_login'
p262
S'2013-12-28T10:17:05+00:00'
p263
sS'exp'
p264
L0L
sS'gmail'
p265
Vkan.webmail@gmail.com
p266
sS'id'
p267
L12L
sS'date_joined'
p268
S'2013-12-24T10:26:53+00:00'
p269
ssba(iutil.request_logging
SimpleRequest
p270
(dp271
g3
g4
(g5
g6
Ntp272
Rp273
(dp274
g10
(g4
(g11
g12
(dp275
Vtid
p276
(lp277
V0
p278
asVhasnum
p279
(lp280
V71
p281
astp282
Rp283
(dp284
g23
S'utf-8'
p285
sg25
(dp286
g276
g277
sg279
g280
ssS'_mutable'
p287
I00
sbg4
(g11
g12
(dp288
tp289
Rp290
(dp291
S'_encoding'
p292
g285
sg25
(dp293
sg287
I00
sbtp294
sbsg35
(dp295
S'screen_name'
p296
Vkan.webmail@gmail.com
p297
sS'money'
p298
L0L
sS'last_login'
p299
S'2013-12-28T10:17:32+00:00'
p300
sS'exp'
p301
L0L
sS'date_joined'
p302
S'2013-12-24T10:26:53+00:00'
p303
sS'id'
p304
L12L
sS'gmail'
p305
Vkan.webmail@gmail.com
p306
ssba(iutil.request_logging
SimpleRequest
p307
(dp308
g3
g4
(g5
g6
Ntp309
Rp310
(dp311
g10
(g4
(g11
g12
(dp312
Vtid
p313
(lp314
V1
p315
asVhasnum
p316
(lp317
V12
p318
astp319
Rp320
(dp321
g23
S'utf-8'
p322
sg25
(dp323
g313
g314
sg316
g317
ssS'_mutable'
p324
I00
sbg4
(g11
g12
(dp325
tp326
Rp327
(dp328
S'_encoding'
p329
g322
sg25
(dp330
sg324
I00
sbtp331
sbsg35
(dp332
S'screen_name'
p333
Vkan.webmail@gmail.com
p334
sS'money'
p335
L0L
sS'last_login'
p336
S'2013-12-28T10:17:32+00:00'
p337
sS'exp'
p338
L0L
sS'gmail'
p339
Vkan.webmail@gmail.com
p340
sS'id'
p341
L12L
sS'date_joined'
p342
S'2013-12-24T10:26:53+00:00'
p343
ssba(iutil.request_logging
SimpleRequest
p344
(dp345
g3
g4
(g5
g6
Ntp346
Rp347
(dp348
g10
(g4
(g11
g12
(dp349
Vtid
p350
(lp351
V2
p352
asVhasnum
p353
(lp354
V29
p355
astp356
Rp357
(dp358
g23
S'utf-8'
p359
sg25
(dp360
g350
g351
sg353
g354
ssS'_mutable'
p361
I00
sbg4
(g11
g12
(dp362
tp363
Rp364
(dp365
S'_encoding'
p366
g359
sg25
(dp367
sg361
I00
sbtp368
sbsg35
(dp369
S'screen_name'
p370
Vkan.webmail@gmail.com
p371
sS'money'
p372
L0L
sS'last_login'
p373
S'2013-12-28T10:17:32+00:00'
p374
sS'exp'
p375
L0L
sS'date_joined'
p376
S'2013-12-24T10:26:53+00:00'
p377
sS'id'
p378
L12L
sS'gmail'
p379
Vkan.webmail@gmail.com
p380
ssba(iutil.request_logging
SimpleRequest
p381
(dp382
g3
g4
(g5
g6
Ntp383
Rp384
(dp385
g10
(g4
(g11
g12
(dp386
Vtid
p387
(lp388
V3
p389
asVhasnum
p390
(lp391
V26
p392
astp393
Rp394
(dp395
g23
S'utf-8'
p396
sg25
(dp397
g387
g388
sg390
g391
ssS'_mutable'
p398
I00
sbg4
(g11
g12
(dp399
tp400
Rp401
(dp402
S'_encoding'
p403
g396
sg25
(dp404
sg398
I00
sbtp405
sbsg35
(dp406
S'screen_name'
p407
Vkan.webmail@gmail.com
p408
sS'money'
p409
L0L
sS'last_login'
p410
S'2013-12-28T10:17:32+00:00'
p411
sS'exp'
p412
L0L
sS'gmail'
p413
Vkan.webmail@gmail.com
p414
sS'id'
p415
L12L
sS'date_joined'
p416
S'2013-12-24T10:26:53+00:00'
p417
ssba(iutil.request_logging
SimpleRequest
p418
(dp419
g3
g4
(g5
g6
Ntp420
Rp421
(dp422
g10
(g4
(g11
g12
(dp423
Vtid
p424
(lp425
V4
p426
asVhasnum
p427
(lp428
V2
p429
astp430
Rp431
(dp432
g23
S'utf-8'
p433
sg25
(dp434
g424
g425
sg427
g428
ssS'_mutable'
p435
I00
sbg4
(g11
g12
(dp436
tp437
Rp438
(dp439
S'_encoding'
p440
g433
sg25
(dp441
sg435
I00
sbtp442
sbsg35
(dp443
S'screen_name'
p444
Vkan.webmail@gmail.com
p445
sS'money'
p446
L0L
sS'last_login'
p447
S'2013-12-28T10:17:32+00:00'
p448
sS'exp'
p449
L0L
sS'date_joined'
p450
S'2013-12-24T10:26:53+00:00'
p451
sS'id'
p452
L12L
sS'gmail'
p453
Vkan.webmail@gmail.com
p454
ssba(iutil.request_logging
SimpleRequest
p455
(dp456
g3
g4
(g5
g6
Ntp457
Rp458
(dp459
g10
(g4
(g11
g12
(dp460
Vtid
p461
(lp462
V3
p463
asVhasnum
p464
(lp465
V1
p466
astp467
Rp468
(dp469
g23
S'utf-8'
p470
sg25
(dp471
g461
g462
sg464
g465
ssS'_mutable'
p472
I00
sbg4
(g11
g12
(dp473
tp474
Rp475
(dp476
S'_encoding'
p477
g470
sg25
(dp478
sg472
I00
sbtp479
sbsg35
(dp480
S'screen_name'
p481
Vkan.webmail@gmail.com
p482
sS'money'
p483
L0L
sS'last_login'
p484
S'2013-12-28T10:17:32+00:00'
p485
sS'exp'
p486
L0L
sS'gmail'
p487
Vkan.webmail@gmail.com
p488
sS'id'
p489
L12L
sS'date_joined'
p490
S'2013-12-24T10:26:53+00:00'
p491
ssba(iutil.request_logging
SimpleRequest
p492
(dp493
g3
g4
(g5
g6
Ntp494
Rp495
(dp496
g10
(g4
(g11
g12
(dp497
Vtid
p498
(lp499
V0
p500
asVhasnum
p501
(lp502
V71
p503
astp504
Rp505
(dp506
g23
S'utf-8'
p507
sg25
(dp508
g498
g499
sg501
g502
ssS'_mutable'
p509
I00
sbg4
(g11
g12
(dp510
tp511
Rp512
(dp513
S'_encoding'
p514
g507
sg25
(dp515
sg509
I00
sbtp516
sbsg35
(dp517
S'screen_name'
p518
Vkan.webmail@gmail.com
p519
sS'money'
p520
L0L
sS'last_login'
p521
S'2013-12-28T10:18:35+00:00'
p522
sS'exp'
p523
L0L
sS'date_joined'
p524
S'2013-12-24T10:26:53+00:00'
p525
sS'id'
p526
L12L
sS'gmail'
p527
Vkan.webmail@gmail.com
p528
ssba(iutil.request_logging
SimpleRequest
p529
(dp530
g3
g4
(g5
g6
Ntp531
Rp532
(dp533
g10
(g4
(g11
g12
(dp534
Vtid
p535
(lp536
V1
p537
asVhasnum
p538
(lp539
V12
p540
astp541
Rp542
(dp543
g23
S'utf-8'
p544
sg25
(dp545
g535
g536
sg538
g539
ssS'_mutable'
p546
I00
sbg4
(g11
g12
(dp547
tp548
Rp549
(dp550
S'_encoding'
p551
g544
sg25
(dp552
sg546
I00
sbtp553
sbsg35
(dp554
S'screen_name'
p555
Vkan.webmail@gmail.com
p556
sS'money'
p557
L0L
sS'last_login'
p558
S'2013-12-28T10:18:35+00:00'
p559
sS'exp'
p560
L0L
sS'gmail'
p561
Vkan.webmail@gmail.com
p562
sS'id'
p563
L12L
sS'date_joined'
p564
S'2013-12-24T10:26:53+00:00'
p565
ssba(iutil.request_logging
SimpleRequest
p566
(dp567
g3
g4
(g5
g6
Ntp568
Rp569
(dp570
g10
(g4
(g11
g12
(dp571
Vtid
p572
(lp573
V2
p574
asVhasnum
p575
(lp576
V29
p577
astp578
Rp579
(dp580
g23
S'utf-8'
p581
sg25
(dp582
g572
g573
sg575
g576
ssS'_mutable'
p583
I00
sbg4
(g11
g12
(dp584
tp585
Rp586
(dp587
S'_encoding'
p588
g581
sg25
(dp589
sg583
I00
sbtp590
sbsg35
(dp591
S'screen_name'
p592
Vkan.webmail@gmail.com
p593
sS'money'
p594
L0L
sS'last_login'
p595
S'2013-12-28T10:18:35+00:00'
p596
sS'exp'
p597
L0L
sS'date_joined'
p598
S'2013-12-24T10:26:53+00:00'
p599
sS'id'
p600
L12L
sS'gmail'
p601
Vkan.webmail@gmail.com
p602
ssba(iutil.request_logging
SimpleRequest
p603
(dp604
g3
g4
(g5
g6
Ntp605
Rp606
(dp607
g10
(g4
(g11
g12
(dp608
Vtid
p609
(lp610
V3
p611
asVhasnum
p612
(lp613
V26
p614
astp615
Rp616
(dp617
g23
S'utf-8'
p618
sg25
(dp619
g609
g610
sg612
g613
ssS'_mutable'
p620
I00
sbg4
(g11
g12
(dp621
tp622
Rp623
(dp624
S'_encoding'
p625
g618
sg25
(dp626
sg620
I00
sbtp627
sbsg35
(dp628
S'screen_name'
p629
Vkan.webmail@gmail.com
p630
sS'money'
p631
L0L
sS'last_login'
p632
S'2013-12-28T10:18:35+00:00'
p633
sS'exp'
p634
L0L
sS'gmail'
p635
Vkan.webmail@gmail.com
p636
sS'id'
p637
L12L
sS'date_joined'
p638
S'2013-12-24T10:26:53+00:00'
p639
ssba(iutil.request_logging
SimpleRequest
p640
(dp641
g3
g4
(g5
g6
Ntp642
Rp643
(dp644
g10
(g4
(g11
g12
(dp645
Vtid
p646
(lp647
V4
p648
asVhasnum
p649
(lp650
V4
p651
astp652
Rp653
(dp654
g23
S'utf-8'
p655
sg25
(dp656
g646
g647
sg649
g650
ssS'_mutable'
p657
I00
sbg4
(g11
g12
(dp658
tp659
Rp660
(dp661
S'_encoding'
p662
g655
sg25
(dp663
sg657
I00
sbtp664
sbsg35
(dp665
S'screen_name'
p666
Vkan.webmail@gmail.com
p667
sS'money'
p668
L0L
sS'last_login'
p669
S'2013-12-28T10:18:35+00:00'
p670
sS'exp'
p671
L0L
sS'date_joined'
p672
S'2013-12-24T10:26:53+00:00'
p673
sS'id'
p674
L12L
sS'gmail'
p675
Vkan.webmail@gmail.com
p676
ssba(iutil.request_logging
SimpleRequest
p677
(dp678
g3
g4
(g5
g6
Ntp679
Rp680
(dp681
g10
(g4
(g11
g12
(dp682
Vtid
p683
(lp684
V0
p685
asVhasnum
p686
(lp687
V71
p688
astp689
Rp690
(dp691
g23
S'utf-8'
p692
sg25
(dp693
g683
g684
sg686
g687
ssS'_mutable'
p694
I00
sbg4
(g11
g12
(dp695
tp696
Rp697
(dp698
S'_encoding'
p699
g692
sg25
(dp700
sg694
I00
sbtp701
sbsg35
(dp702
S'screen_name'
p703
Vkan.webmail@gmail.com
p704
sS'money'
p705
L0L
sS'last_login'
p706
S'2013-12-28T10:22:52+00:00'
p707
sS'exp'
p708
L0L
sS'gmail'
p709
Vkan.webmail@gmail.com
p710
sS'id'
p711
L12L
sS'date_joined'
p712
S'2013-12-24T10:26:53+00:00'
p713
ssba(iutil.request_logging
SimpleRequest
p714
(dp715
g3
g4
(g5
g6
Ntp716
Rp717
(dp718
g10
(g4
(g11
g12
(dp719
Vtid
p720
(lp721
V1
p722
asVhasnum
p723
(lp724
V12
p725
astp726
Rp727
(dp728
g23
S'utf-8'
p729
sg25
(dp730
g720
g721
sg723
g724
ssS'_mutable'
p731
I00
sbg4
(g11
g12
(dp732
tp733
Rp734
(dp735
S'_encoding'
p736
g729
sg25
(dp737
sg731
I00
sbtp738
sbsg35
(dp739
S'screen_name'
p740
Vkan.webmail@gmail.com
p741
sS'money'
p742
L0L
sS'last_login'
p743
S'2013-12-28T10:22:52+00:00'
p744
sS'exp'
p745
L0L
sS'date_joined'
p746
S'2013-12-24T10:26:53+00:00'
p747
sS'id'
p748
L12L
sS'gmail'
p749
Vkan.webmail@gmail.com
p750
ssba(iutil.request_logging
SimpleRequest
p751
(dp752
g3
g4
(g5
g6
Ntp753
Rp754
(dp755
g10
(g4
(g11
g12
(dp756
Vtid
p757
(lp758
V2
p759
asVhasnum
p760
(lp761
V29
p762
astp763
Rp764
(dp765
g23
S'utf-8'
p766
sg25
(dp767
g757
g758
sg760
g761
ssS'_mutable'
p768
I00
sbg4
(g11
g12
(dp769
tp770
Rp771
(dp772
S'_encoding'
p773
g766
sg25
(dp774
sg768
I00
sbtp775
sbsg35
(dp776
S'screen_name'
p777
Vkan.webmail@gmail.com
p778
sS'money'
p779
L0L
sS'last_login'
p780
S'2013-12-28T10:22:52+00:00'
p781
sS'exp'
p782
L0L
sS'gmail'
p783
Vkan.webmail@gmail.com
p784
sS'id'
p785
L12L
sS'date_joined'
p786
S'2013-12-24T10:26:53+00:00'
p787
ssba(iutil.request_logging
SimpleRequest
p788
(dp789
g3
g4
(g5
g6
Ntp790
Rp791
(dp792
g10
(g4
(g11
g12
(dp793
Vtid
p794
(lp795
V3
p796
asVhasnum
p797
(lp798
V26
p799
astp800
Rp801
(dp802
g23
S'utf-8'
p803
sg25
(dp804
g794
g795
sg797
g798
ssS'_mutable'
p805
I00
sbg4
(g11
g12
(dp806
tp807
Rp808
(dp809
S'_encoding'
p810
g803
sg25
(dp811
sg805
I00
sbtp812
sbsg35
(dp813
S'screen_name'
p814
Vkan.webmail@gmail.com
p815
sS'money'
p816
L0L
sS'last_login'
p817
S'2013-12-28T10:22:52+00:00'
p818
sS'exp'
p819
L0L
sS'date_joined'
p820
S'2013-12-24T10:26:53+00:00'
p821
sS'id'
p822
L12L
sS'gmail'
p823
Vkan.webmail@gmail.com
p824
ssba(iutil.request_logging
SimpleRequest
p825
(dp826
g3
g4
(g5
g6
Ntp827
Rp828
(dp829
g10
(g4
(g11
g12
(dp830
Vtid
p831
(lp832
V4
p833
asVhasnum
p834
(lp835
V4
p836
astp837
Rp838
(dp839
g23
S'utf-8'
p840
sg25
(dp841
g831
g832
sg834
g835
ssS'_mutable'
p842
I00
sbg4
(g11
g12
(dp843
tp844
Rp845
(dp846
S'_encoding'
p847
g840
sg25
(dp848
sg842
I00
sbtp849
sbsg35
(dp850
S'screen_name'
p851
Vkan.webmail@gmail.com
p852
sS'money'
p853
L0L
sS'last_login'
p854
S'2013-12-28T10:22:52+00:00'
p855
sS'exp'
p856
L0L
sS'gmail'
p857
Vkan.webmail@gmail.com
p858
sS'id'
p859
L12L
sS'date_joined'
p860
S'2013-12-24T10:26:53+00:00'
p861
ssba(iutil.request_logging
SimpleRequest
p862
(dp863
g3
g4
(g5
g6
Ntp864
Rp865
(dp866
g10
(g4
(g11
g12
(dp867
Vtid
p868
(lp869
V0
p870
asVhasnum
p871
(lp872
V71
p873
astp874
Rp875
(dp876
g23
S'utf-8'
p877
sg25
(dp878
g868
g869
sg871
g872
ssS'_mutable'
p879
I00
sbg4
(g11
g12
(dp880
tp881
Rp882
(dp883
S'_encoding'
p884
g877
sg25
(dp885
sg879
I00
sbtp886
sbsg35
(dp887
S'screen_name'
p888
Vkan.webmail@gmail.com
p889
sS'money'
p890
L0L
sS'last_login'
p891
S'2013-12-28T10:27:15+00:00'
p892
sS'exp'
p893
L0L
sS'date_joined'
p894
S'2013-12-24T10:26:53+00:00'
p895
sS'id'
p896
L12L
sS'gmail'
p897
Vkan.webmail@gmail.com
p898
ssba(iutil.request_logging
SimpleRequest
p899
(dp900
g3
g4
(g5
g6
Ntp901
Rp902
(dp903
g10
(g4
(g11
g12
(dp904
Vtid
p905
(lp906
V1
p907
asVhasnum
p908
(lp909
V12
p910
astp911
Rp912
(dp913
g23
S'utf-8'
p914
sg25
(dp915
g905
g906
sg908
g909
ssS'_mutable'
p916
I00
sbg4
(g11
g12
(dp917
tp918
Rp919
(dp920
S'_encoding'
p921
g914
sg25
(dp922
sg916
I00
sbtp923
sbsg35
(dp924
S'screen_name'
p925
Vkan.webmail@gmail.com
p926
sS'money'
p927
L0L
sS'last_login'
p928
S'2013-12-28T10:27:15+00:00'
p929
sS'exp'
p930
L0L
sS'gmail'
p931
Vkan.webmail@gmail.com
p932
sS'id'
p933
L12L
sS'date_joined'
p934
S'2013-12-24T10:26:53+00:00'
p935
ssba(iutil.request_logging
SimpleRequest
p936
(dp937
g3
g4
(g5
g6
Ntp938
Rp939
(dp940
g10
(g4
(g11
g12
(dp941
Vtid
p942
(lp943
V2
p944
asVhasnum
p945
(lp946
V29
p947
astp948
Rp949
(dp950
g23
S'utf-8'
p951
sg25
(dp952
g942
g943
sg945
g946
ssS'_mutable'
p953
I00
sbg4
(g11
g12
(dp954
tp955
Rp956
(dp957
S'_encoding'
p958
g951
sg25
(dp959
sg953
I00
sbtp960
sbsg35
(dp961
S'screen_name'
p962
Vkan.webmail@gmail.com
p963
sS'money'
p964
L0L
sS'last_login'
p965
S'2013-12-28T10:27:15+00:00'
p966
sS'exp'
p967
L0L
sS'date_joined'
p968
S'2013-12-24T10:26:53+00:00'
p969
sS'id'
p970
L12L
sS'gmail'
p971
Vkan.webmail@gmail.com
p972
ssba(iutil.request_logging
SimpleRequest
p973
(dp974
g3
g4
(g5
g6
Ntp975
Rp976
(dp977
g10
(g4
(g11
g12
(dp978
Vtid
p979
(lp980
V3
p981
asVhasnum
p982
(lp983
V26
p984
astp985
Rp986
(dp987
g23
S'utf-8'
p988
sg25
(dp989
g979
g980
sg982
g983
ssS'_mutable'
p990
I00
sbg4
(g11
g12
(dp991
tp992
Rp993
(dp994
S'_encoding'
p995
g988
sg25
(dp996
sg990
I00
sbtp997
sbsg35
(dp998
S'screen_name'
p999
Vkan.webmail@gmail.com
p1000
sS'money'
p1001
L0L
sS'last_login'
p1002
S'2013-12-28T10:27:15+00:00'
p1003
sS'exp'
p1004
L0L
sS'gmail'
p1005
Vkan.webmail@gmail.com
p1006
sS'id'
p1007
L12L
sS'date_joined'
p1008
S'2013-12-24T10:26:53+00:00'
p1009
ssba(iutil.request_logging
SimpleRequest
p1010
(dp1011
g3
g4
(g5
g6
Ntp1012
Rp1013
(dp1014
g10
(g4
(g11
g12
(dp1015
Vtid
p1016
(lp1017
V4
p1018
asVhasnum
p1019
(lp1020
V3
p1021
astp1022
Rp1023
(dp1024
g23
S'utf-8'
p1025
sg25
(dp1026
g1016
g1017
sg1019
g1020
ssS'_mutable'
p1027
I00
sbg4
(g11
g12
(dp1028
tp1029
Rp1030
(dp1031
S'_encoding'
p1032
g1025
sg25
(dp1033
sg1027
I00
sbtp1034
sbsg35
(dp1035
S'screen_name'
p1036
Vkan.webmail@gmail.com
p1037
sS'money'
p1038
L0L
sS'last_login'
p1039
S'2013-12-28T10:27:15+00:00'
p1040
sS'exp'
p1041
L0L
sS'date_joined'
p1042
S'2013-12-24T10:26:53+00:00'
p1043
sS'id'
p1044
L12L
sS'gmail'
p1045
Vkan.webmail@gmail.com
p1046
ssba(iutil.request_logging
SimpleRequest
p1047
(dp1048
g3
g4
(g5
g6
Ntp1049
Rp1050
(dp1051
g10
(g4
(g11
g12
(dp1052
Vtid
p1053
(lp1054
V2
p1055
asVhasnum
p1056
(lp1057
V2
p1058
astp1059
Rp1060
(dp1061
g23
S'utf-8'
p1062
sg25
(dp1063
g1053
g1054
sg1056
g1057
ssS'_mutable'
p1064
I00
sbg4
(g11
g12
(dp1065
tp1066
Rp1067
(dp1068
S'_encoding'
p1069
g1062
sg25
(dp1070
sg1064
I00
sbtp1071
sbsg35
(dp1072
S'screen_name'
p1073
Vkan.webmail@gmail.com
p1074
sS'money'
p1075
L0L
sS'last_login'
p1076
S'2013-12-28T10:27:15+00:00'
p1077
sS'exp'
p1078
L0L
sS'gmail'
p1079
Vkan.webmail@gmail.com
p1080
sS'id'
p1081
L12L
sS'date_joined'
p1082
S'2013-12-24T10:26:53+00:00'
p1083
ssba(iutil.request_logging
SimpleRequest
p1084
(dp1085
g3
g4
(g5
g6
Ntp1086
Rp1087
(dp1088
g10
(g4
(g11
g12
(dp1089
Vtid
p1090
(lp1091
V0
p1092
asVhasnum
p1093
(lp1094
V71
p1095
astp1096
Rp1097
(dp1098
g23
S'utf-8'
p1099
sg25
(dp1100
g1090
g1091
sg1093
g1094
ssS'_mutable'
p1101
I00
sbg4
(g11
g12
(dp1102
tp1103
Rp1104
(dp1105
S'_encoding'
p1106
g1099
sg25
(dp1107
sg1101
I00
sbtp1108
sbsg35
(dp1109
S'screen_name'
p1110
Vkan.webmail@gmail.com
p1111
sS'money'
p1112
L0L
sS'last_login'
p1113
S'2013-12-28T10:28:27+00:00'
p1114
sS'exp'
p1115
L0L
sS'date_joined'
p1116
S'2013-12-24T10:26:53+00:00'
p1117
sS'id'
p1118
L12L
sS'gmail'
p1119
Vkan.webmail@gmail.com
p1120
ssba(iutil.request_logging
SimpleRequest
p1121
(dp1122
g3
g4
(g5
g6
Ntp1123
Rp1124
(dp1125
g10
(g4
(g11
g12
(dp1126
Vtid
p1127
(lp1128
V1
p1129
asVhasnum
p1130
(lp1131
V12
p1132
astp1133
Rp1134
(dp1135
g23
S'utf-8'
p1136
sg25
(dp1137
g1127
g1128
sg1130
g1131
ssS'_mutable'
p1138
I00
sbg4
(g11
g12
(dp1139
tp1140
Rp1141
(dp1142
S'_encoding'
p1143
g1136
sg25
(dp1144
sg1138
I00
sbtp1145
sbsg35
(dp1146
S'screen_name'
p1147
Vkan.webmail@gmail.com
p1148
sS'money'
p1149
L0L
sS'last_login'
p1150
S'2013-12-28T10:28:27+00:00'
p1151
sS'exp'
p1152
L0L
sS'gmail'
p1153
Vkan.webmail@gmail.com
p1154
sS'id'
p1155
L12L
sS'date_joined'
p1156
S'2013-12-24T10:26:53+00:00'
p1157
ssba(iutil.request_logging
SimpleRequest
p1158
(dp1159
g3
g4
(g5
g6
Ntp1160
Rp1161
(dp1162
g10
(g4
(g11
g12
(dp1163
Vtid
p1164
(lp1165
V2
p1166
asVhasnum
p1167
(lp1168
V33
p1169
astp1170
Rp1171
(dp1172
g23
S'utf-8'
p1173
sg25
(dp1174
g1164
g1165
sg1167
g1168
ssS'_mutable'
p1175
I00
sbg4
(g11
g12
(dp1176
tp1177
Rp1178
(dp1179
S'_encoding'
p1180
g1173
sg25
(dp1181
sg1175
I00
sbtp1182
sbsg35
(dp1183
S'screen_name'
p1184
Vkan.webmail@gmail.com
p1185
sS'money'
p1186
L0L
sS'last_login'
p1187
S'2013-12-28T10:28:27+00:00'
p1188
sS'exp'
p1189
L0L
sS'date_joined'
p1190
S'2013-12-24T10:26:53+00:00'
p1191
sS'id'
p1192
L12L
sS'gmail'
p1193
Vkan.webmail@gmail.com
p1194
ssba(iutil.request_logging
SimpleRequest
p1195
(dp1196
g3
g4
(g5
g6
Ntp1197
Rp1198
(dp1199
g10
(g4
(g11
g12
(dp1200
Vtid
p1201
(lp1202
V3
p1203
asVhasnum
p1204
(lp1205
V26
p1206
astp1207
Rp1208
(dp1209
g23
S'utf-8'
p1210
sg25
(dp1211
g1201
g1202
sg1204
g1205
ssS'_mutable'
p1212
I00
sbg4
(g11
g12
(dp1213
tp1214
Rp1215
(dp1216
S'_encoding'
p1217
g1210
sg25
(dp1218
sg1212
I00
sbtp1219
sbsg35
(dp1220
S'screen_name'
p1221
Vkan.webmail@gmail.com
p1222
sS'money'
p1223
L0L
sS'last_login'
p1224
S'2013-12-28T10:28:27+00:00'
p1225
sS'exp'
p1226
L0L
sS'gmail'
p1227
Vkan.webmail@gmail.com
p1228
sS'id'
p1229
L12L
sS'date_joined'
p1230
S'2013-12-24T10:26:53+00:00'
p1231
ssba(iutil.request_logging
SimpleRequest
p1232
(dp1233
g3
g4
(g5
g6
Ntp1234
Rp1235
(dp1236
g10
(g4
(g11
g12
(dp1237
Vtid
p1238
(lp1239
V4
p1240
asVhasnum
p1241
(lp1242
V3
p1243
astp1244
Rp1245
(dp1246
g23
S'utf-8'
p1247
sg25
(dp1248
g1238
g1239
sg1241
g1242
ssS'_mutable'
p1249
I00
sbg4
(g11
g12
(dp1250
tp1251
Rp1252
(dp1253
S'_encoding'
p1254
g1247
sg25
(dp1255
sg1249
I00
sbtp1256
sbsg35
(dp1257
S'screen_name'
p1258
Vkan.webmail@gmail.com
p1259
sS'money'
p1260
L0L
sS'last_login'
p1261
S'2013-12-28T10:28:27+00:00'
p1262
sS'exp'
p1263
L0L
sS'date_joined'
p1264
S'2013-12-24T10:26:53+00:00'
p1265
sS'id'
p1266
L12L
sS'gmail'
p1267
Vkan.webmail@gmail.com
p1268
ssba(iutil.request_logging
SimpleRequest
p1269
(dp1270
g3
g4
(g5
g6
Ntp1271
Rp1272
(dp1273
g10
(g4
(g11
g12
(dp1274
Vtid
p1275
(lp1276
V0
p1277
asVhasnum
p1278
(lp1279
V18
p1280
astp1281
Rp1282
(dp1283
g23
S'utf-8'
p1284
sg25
(dp1285
g1275
g1276
sg1278
g1279
ssS'_mutable'
p1286
I00
sbg4
(g11
g12
(dp1287
tp1288
Rp1289
(dp1290
S'_encoding'
p1291
g1284
sg25
(dp1292
sg1286
I00
sbtp1293
sbsg35
(dp1294
S'screen_name'
p1295
V\u51a8\u7530\u88d5\u5b50
p1296
sS'money'
p1297
L0L
sS'last_login'
p1298
S'2013-12-28T10:52:13+00:00'
p1299
sS'exp'
p1300
L0L
sS'gmail'
p1301
Vpreferire@gmail.com
p1302
sS'id'
p1303
L8L
sS'date_joined'
p1304
S'2013-12-19T07:41:15+00:00'
p1305
ssba(iutil.request_logging
SimpleRequest
p1306
(dp1307
g3
g4
(g5
g6
Ntp1308
Rp1309
(dp1310
g10
(g4
(g11
g12
(dp1311
Vtid
p1312
(lp1313
V1
p1314
asVhasnum
p1315
(lp1316
V0
p1317
astp1318
Rp1319
(dp1320
g23
S'utf-8'
p1321
sg25
(dp1322
g1312
g1313
sg1315
g1316
ssS'_mutable'
p1323
I00
sbg4
(g11
g12
(dp1324
tp1325
Rp1326
(dp1327
S'_encoding'
p1328
g1321
sg25
(dp1329
sg1323
I00
sbtp1330
sbsg35
(dp1331
S'screen_name'
p1332
V\u51a8\u7530\u88d5\u5b50
p1333
sS'money'
p1334
L0L
sS'last_login'
p1335
S'2013-12-28T10:52:13+00:00'
p1336
sS'exp'
p1337
L0L
sS'date_joined'
p1338
S'2013-12-19T07:41:15+00:00'
p1339
sS'id'
p1340
L8L
sS'gmail'
p1341
Vpreferire@gmail.com
p1342
ssba(iutil.request_logging
SimpleRequest
p1343
(dp1344
g3
g4
(g5
g6
Ntp1345
Rp1346
(dp1347
g10
(g4
(g11
g12
(dp1348
Vtid
p1349
(lp1350
V2
p1351
asVhasnum
p1352
(lp1353
V56
p1354
astp1355
Rp1356
(dp1357
g23
S'utf-8'
p1358
sg25
(dp1359
g1349
g1350
sg1352
g1353
ssS'_mutable'
p1360
I00
sbg4
(g11
g12
(dp1361
tp1362
Rp1363
(dp1364
S'_encoding'
p1365
g1358
sg25
(dp1366
sg1360
I00
sbtp1367
sbsg35
(dp1368
S'screen_name'
p1369
V\u51a8\u7530\u88d5\u5b50
p1370
sS'money'
p1371
L0L
sS'last_login'
p1372
S'2013-12-28T10:52:13+00:00'
p1373
sS'exp'
p1374
L0L
sS'gmail'
p1375
Vpreferire@gmail.com
p1376
sS'id'
p1377
L8L
sS'date_joined'
p1378
S'2013-12-19T07:41:15+00:00'
p1379
ssba(iutil.request_logging
SimpleRequest
p1380
(dp1381
g3
g4
(g5
g6
Ntp1382
Rp1383
(dp1384
g10
(g4
(g11
g12
(dp1385
Vtid
p1386
(lp1387
V3
p1388
asVhasnum
p1389
(lp1390
V87
p1391
astp1392
Rp1393
(dp1394
g23
S'utf-8'
p1395
sg25
(dp1396
g1386
g1387
sg1389
g1390
ssS'_mutable'
p1397
I00
sbg4
(g11
g12
(dp1398
tp1399
Rp1400
(dp1401
S'_encoding'
p1402
g1395
sg25
(dp1403
sg1397
I00
sbtp1404
sbsg35
(dp1405
S'screen_name'
p1406
V\u51a8\u7530\u88d5\u5b50
p1407
sS'money'
p1408
L0L
sS'last_login'
p1409
S'2013-12-28T10:52:13+00:00'
p1410
sS'exp'
p1411
L0L
sS'date_joined'
p1412
S'2013-12-19T07:41:15+00:00'
p1413
sS'id'
p1414
L8L
sS'gmail'
p1415
Vpreferire@gmail.com
p1416
ssba(iutil.request_logging
SimpleRequest
p1417
(dp1418
g3
g4
(g5
g6
Ntp1419
Rp1420
(dp1421
g10
(g4
(g11
g12
(dp1422
Vtid
p1423
(lp1424
V4
p1425
asVhasnum
p1426
(lp1427
V2
p1428
astp1429
Rp1430
(dp1431
g23
S'utf-8'
p1432
sg25
(dp1433
g1423
g1424
sg1426
g1427
ssS'_mutable'
p1434
I00
sbg4
(g11
g12
(dp1435
tp1436
Rp1437
(dp1438
S'_encoding'
p1439
g1432
sg25
(dp1440
sg1434
I00
sbtp1441
sbsg35
(dp1442
S'screen_name'
p1443
V\u51a8\u7530\u88d5\u5b50
p1444
sS'money'
p1445
L0L
sS'last_login'
p1446
S'2013-12-28T10:52:13+00:00'
p1447
sS'exp'
p1448
L0L
sS'gmail'
p1449
Vpreferire@gmail.com
p1450
sS'id'
p1451
L8L
sS'date_joined'
p1452
S'2013-12-19T07:41:15+00:00'
p1453
ssba(iutil.request_logging
SimpleRequest
p1454
(dp1455
g3
g4
(g5
g6
Ntp1456
Rp1457
(dp1458
g10
(g4
(g11
g12
(dp1459
Vtid
p1460
(lp1461
V12
p1462
asVhasnum
p1463
(lp1464
V4
p1465
astp1466
Rp1467
(dp1468
g23
S'utf-8'
p1469
sg25
(dp1470
g1460
g1461
sg1463
g1464
ssS'_mutable'
p1471
I00
sbg4
(g11
g12
(dp1472
tp1473
Rp1474
(dp1475
S'_encoding'
p1476
g1469
sg25
(dp1477
sg1471
I00
sbtp1478
sbsg35
(dp1479
S'screen_name'
p1480
V\u51a8\u7530\u88d5\u5b50
p1481
sS'money'
p1482
L0L
sS'last_login'
p1483
S'2013-12-28T10:52:13+00:00'
p1484
sS'exp'
p1485
L0L
sS'date_joined'
p1486
S'2013-12-19T07:41:15+00:00'
p1487
sS'id'
p1488
L8L
sS'gmail'
p1489
Vpreferire@gmail.com
p1490
ssba(iutil.request_logging
SimpleRequest
p1491
(dp1492
g3
g4
(g5
g6
Ntp1493
Rp1494
(dp1495
g10
(g4
(g11
g12
(dp1496
Vtid
p1497
(lp1498
V0
p1499
asVhasnum
p1500
(lp1501
V17
p1502
astp1503
Rp1504
(dp1505
g23
S'utf-8'
p1506
sg25
(dp1507
g1497
g1498
sg1500
g1501
ssS'_mutable'
p1508
I00
sbg4
(g11
g12
(dp1509
tp1510
Rp1511
(dp1512
S'_encoding'
p1513
g1506
sg25
(dp1514
sg1508
I00
sbtp1515
sbsg35
(dp1516
S'screen_name'
p1517
V\u51a8\u7530\u88d5\u5b50
p1518
sS'money'
p1519
L0L
sS'last_login'
p1520
S'2013-12-28T10:52:47+00:00'
p1521
sS'exp'
p1522
L0L
sS'gmail'
p1523
Vpreferire@gmail.com
p1524
sS'id'
p1525
L8L
sS'date_joined'
p1526
S'2013-12-19T07:41:15+00:00'
p1527
ssba(iutil.request_logging
SimpleRequest
p1528
(dp1529
g3
g4
(g5
g6
Ntp1530
Rp1531
(dp1532
g10
(g4
(g11
g12
(dp1533
Vtid
p1534
(lp1535
V1
p1536
asVhasnum
p1537
(lp1538
V0
p1539
astp1540
Rp1541
(dp1542
g23
S'utf-8'
p1543
sg25
(dp1544
g1534
g1535
sg1537
g1538
ssS'_mutable'
p1545
I00
sbg4
(g11
g12
(dp1546
tp1547
Rp1548
(dp1549
S'_encoding'
p1550
g1543
sg25
(dp1551
sg1545
I00
sbtp1552
sbsg35
(dp1553
S'screen_name'
p1554
V\u51a8\u7530\u88d5\u5b50
p1555
sS'money'
p1556
L0L
sS'last_login'
p1557
S'2013-12-28T10:52:47+00:00'
p1558
sS'exp'
p1559
L0L
sS'date_joined'
p1560
S'2013-12-19T07:41:15+00:00'
p1561
sS'id'
p1562
L8L
sS'gmail'
p1563
Vpreferire@gmail.com
p1564
ssba(iutil.request_logging
SimpleRequest
p1565
(dp1566
g3
g4
(g5
g6
Ntp1567
Rp1568
(dp1569
g10
(g4
(g11
g12
(dp1570
Vtid
p1571
(lp1572
V2
p1573
asVhasnum
p1574
(lp1575
V56
p1576
astp1577
Rp1578
(dp1579
g23
S'utf-8'
p1580
sg25
(dp1581
g1571
g1572
sg1574
g1575
ssS'_mutable'
p1582
I00
sbg4
(g11
g12
(dp1583
tp1584
Rp1585
(dp1586
S'_encoding'
p1587
g1580
sg25
(dp1588
sg1582
I00
sbtp1589
sbsg35
(dp1590
S'screen_name'
p1591
V\u51a8\u7530\u88d5\u5b50
p1592
sS'money'
p1593
L0L
sS'last_login'
p1594
S'2013-12-28T10:52:47+00:00'
p1595
sS'exp'
p1596
L0L
sS'gmail'
p1597
Vpreferire@gmail.com
p1598
sS'id'
p1599
L8L
sS'date_joined'
p1600
S'2013-12-19T07:41:15+00:00'
p1601
ssba(iutil.request_logging
SimpleRequest
p1602
(dp1603
g3
g4
(g5
g6
Ntp1604
Rp1605
(dp1606
g10
(g4
(g11
g12
(dp1607
Vtid
p1608
(lp1609
V3
p1610
asVhasnum
p1611
(lp1612
V87
p1613
astp1614
Rp1615
(dp1616
g23
S'utf-8'
p1617
sg25
(dp1618
g1608
g1609
sg1611
g1612
ssS'_mutable'
p1619
I00
sbg4
(g11
g12
(dp1620
tp1621
Rp1622
(dp1623
S'_encoding'
p1624
g1617
sg25
(dp1625
sg1619
I00
sbtp1626
sbsg35
(dp1627
S'screen_name'
p1628
V\u51a8\u7530\u88d5\u5b50
p1629
sS'money'
p1630
L0L
sS'last_login'
p1631
S'2013-12-28T10:52:47+00:00'
p1632
sS'exp'
p1633
L0L
sS'date_joined'
p1634
S'2013-12-19T07:41:15+00:00'
p1635
sS'id'
p1636
L8L
sS'gmail'
p1637
Vpreferire@gmail.com
p1638
ssba(iutil.request_logging
SimpleRequest
p1639
(dp1640
g3
g4
(g5
g6
Ntp1641
Rp1642
(dp1643
g10
(g4
(g11
g12
(dp1644
Vtid
p1645
(lp1646
V4
p1647
asVhasnum
p1648
(lp1649
V2
p1650
astp1651
Rp1652
(dp1653
g23
S'utf-8'
p1654
sg25
(dp1655
g1645
g1646
sg1648
g1649
ssS'_mutable'
p1656
I00
sbg4
(g11
g12
(dp1657
tp1658
Rp1659
(dp1660
S'_encoding'
p1661
g1654
sg25
(dp1662
sg1656
I00
sbtp1663
sbsg35
(dp1664
S'screen_name'
p1665
V\u51a8\u7530\u88d5\u5b50
p1666
sS'money'
p1667
L0L
sS'last_login'
p1668
S'2013-12-28T10:52:47+00:00'
p1669
sS'exp'
p1670
L0L
sS'gmail'
p1671
Vpreferire@gmail.com
p1672
sS'id'
p1673
L8L
sS'date_joined'
p1674
S'2013-12-19T07:41:15+00:00'
p1675
ssba(iutil.request_logging
SimpleRequest
p1676
(dp1677
g3
g4
(g5
g6
Ntp1678
Rp1679
(dp1680
g10
(g4
(g11
g12
(dp1681
Vtid
p1682
(lp1683
V12
p1684
asVhasnum
p1685
(lp1686
V4
p1687
astp1688
Rp1689
(dp1690
g23
S'utf-8'
p1691
sg25
(dp1692
g1682
g1683
sg1685
g1686
ssS'_mutable'
p1693
I00
sbg4
(g11
g12
(dp1694
tp1695
Rp1696
(dp1697
S'_encoding'
p1698
g1691
sg25
(dp1699
sg1693
I00
sbtp1700
sbsg35
(dp1701
S'screen_name'
p1702
V\u51a8\u7530\u88d5\u5b50
p1703
sS'money'
p1704
L0L
sS'last_login'
p1705
S'2013-12-28T10:52:47+00:00'
p1706
sS'exp'
p1707
L0L
sS'date_joined'
p1708
S'2013-12-19T07:41:15+00:00'
p1709
sS'id'
p1710
L8L
sS'gmail'
p1711
Vpreferire@gmail.com
p1712
ssba(iutil.request_logging
SimpleRequest
p1713
(dp1714
g3
g4
(g5
g6
Ntp1715
Rp1716
(dp1717
g10
(g4
(g11
g12
(dp1718
Vtid
p1719
(lp1720
V0
p1721
asVhasnum
p1722
(lp1723
V14
p1724
astp1725
Rp1726
(dp1727
g23
S'utf-8'
p1728
sg25
(dp1729
g1719
g1720
sg1722
g1723
ssS'_mutable'
p1730
I00
sbg4
(g11
g12
(dp1731
tp1732
Rp1733
(dp1734
S'_encoding'
p1735
g1728
sg25
(dp1736
sg1730
I00
sbtp1737
sbsg35
(dp1738
S'screen_name'
p1739
V\u51a8\u7530\u88d5\u5b50
p1740
sS'money'
p1741
L0L
sS'last_login'
p1742
S'2013-12-28T12:08:38+00:00'
p1743
sS'exp'
p1744
L0L
sS'gmail'
p1745
Vpreferire@gmail.com
p1746
sS'id'
p1747
L8L
sS'date_joined'
p1748
S'2013-12-19T07:41:15+00:00'
p1749
ssba(iutil.request_logging
SimpleRequest
p1750
(dp1751
g3
g4
(g5
g6
Ntp1752
Rp1753
(dp1754
g10
(g4
(g11
g12
(dp1755
Vtid
p1756
(lp1757
V1
p1758
asVhasnum
p1759
(lp1760
V0
p1761
astp1762
Rp1763
(dp1764
g23
S'utf-8'
p1765
sg25
(dp1766
g1756
g1757
sg1759
g1760
ssS'_mutable'
p1767
I00
sbg4
(g11
g12
(dp1768
tp1769
Rp1770
(dp1771
S'_encoding'
p1772
g1765
sg25
(dp1773
sg1767
I00
sbtp1774
sbsg35
(dp1775
S'screen_name'
p1776
V\u51a8\u7530\u88d5\u5b50
p1777
sS'money'
p1778
L0L
sS'last_login'
p1779
S'2013-12-28T12:08:38+00:00'
p1780
sS'exp'
p1781
L0L
sS'date_joined'
p1782
S'2013-12-19T07:41:15+00:00'
p1783
sS'id'
p1784
L8L
sS'gmail'
p1785
Vpreferire@gmail.com
p1786
ssba(iutil.request_logging
SimpleRequest
p1787
(dp1788
g3
g4
(g5
g6
Ntp1789
Rp1790
(dp1791
g10
(g4
(g11
g12
(dp1792
Vtid
p1793
(lp1794
V2
p1795
asVhasnum
p1796
(lp1797
V56
p1798
astp1799
Rp1800
(dp1801
g23
S'utf-8'
p1802
sg25
(dp1803
g1793
g1794
sg1796
g1797
ssS'_mutable'
p1804
I00
sbg4
(g11
g12
(dp1805
tp1806
Rp1807
(dp1808
S'_encoding'
p1809
g1802
sg25
(dp1810
sg1804
I00
sbtp1811
sbsg35
(dp1812
S'screen_name'
p1813
V\u51a8\u7530\u88d5\u5b50
p1814
sS'money'
p1815
L0L
sS'last_login'
p1816
S'2013-12-28T12:08:38+00:00'
p1817
sS'exp'
p1818
L0L
sS'gmail'
p1819
Vpreferire@gmail.com
p1820
sS'id'
p1821
L8L
sS'date_joined'
p1822
S'2013-12-19T07:41:15+00:00'
p1823
ssba(iutil.request_logging
SimpleRequest
p1824
(dp1825
g3
g4
(g5
g6
Ntp1826
Rp1827
(dp1828
g10
(g4
(g11
g12
(dp1829
Vtid
p1830
(lp1831
V3
p1832
asVhasnum
p1833
(lp1834
V87
p1835
astp1836
Rp1837
(dp1838
g23
S'utf-8'
p1839
sg25
(dp1840
g1830
g1831
sg1833
g1834
ssS'_mutable'
p1841
I00
sbg4
(g11
g12
(dp1842
tp1843
Rp1844
(dp1845
S'_encoding'
p1846
g1839
sg25
(dp1847
sg1841
I00
sbtp1848
sbsg35
(dp1849
S'screen_name'
p1850
V\u51a8\u7530\u88d5\u5b50
p1851
sS'money'
p1852
L0L
sS'last_login'
p1853
S'2013-12-28T12:08:38+00:00'
p1854
sS'exp'
p1855
L0L
sS'date_joined'
p1856
S'2013-12-19T07:41:15+00:00'
p1857
sS'id'
p1858
L8L
sS'gmail'
p1859
Vpreferire@gmail.com
p1860
ssba(iutil.request_logging
SimpleRequest
p1861
(dp1862
g3
g4
(g5
g6
Ntp1863
Rp1864
(dp1865
g10
(g4
(g11
g12
(dp1866
Vtid
p1867
(lp1868
V4
p1869
asVhasnum
p1870
(lp1871
V2
p1872
astp1873
Rp1874
(dp1875
g23
S'utf-8'
p1876
sg25
(dp1877
g1867
g1868
sg1870
g1871
ssS'_mutable'
p1878
I00
sbg4
(g11
g12
(dp1879
tp1880
Rp1881
(dp1882
S'_encoding'
p1883
g1876
sg25
(dp1884
sg1878
I00
sbtp1885
sbsg35
(dp1886
S'screen_name'
p1887
V\u51a8\u7530\u88d5\u5b50
p1888
sS'money'
p1889
L0L
sS'last_login'
p1890
S'2013-12-28T12:08:38+00:00'
p1891
sS'exp'
p1892
L0L
sS'gmail'
p1893
Vpreferire@gmail.com
p1894
sS'id'
p1895
L8L
sS'date_joined'
p1896
S'2013-12-19T07:41:15+00:00'
p1897
ssba(iutil.request_logging
SimpleRequest
p1898
(dp1899
g3
g4
(g5
g6
Ntp1900
Rp1901
(dp1902
g10
(g4
(g11
g12
(dp1903
Vtid
p1904
(lp1905
V12
p1906
asVhasnum
p1907
(lp1908
V4
p1909
astp1910
Rp1911
(dp1912
g23
S'utf-8'
p1913
sg25
(dp1914
g1904
g1905
sg1907
g1908
ssS'_mutable'
p1915
I00
sbg4
(g11
g12
(dp1916
tp1917
Rp1918
(dp1919
S'_encoding'
p1920
g1913
sg25
(dp1921
sg1915
I00
sbtp1922
sbsg35
(dp1923
S'screen_name'
p1924
V\u51a8\u7530\u88d5\u5b50
p1925
sS'money'
p1926
L0L
sS'last_login'
p1927
S'2013-12-28T12:08:38+00:00'
p1928
sS'exp'
p1929
L0L
sS'date_joined'
p1930
S'2013-12-19T07:41:15+00:00'
p1931
sS'id'
p1932
L8L
sS'gmail'
p1933
Vpreferire@gmail.com
p1934
ssba(iutil.request_logging
SimpleRequest
p1935
(dp1936
g3
g4
(g5
g6
Ntp1937
Rp1938
(dp1939
g10
(g4
(g11
g12
(dp1940
Vtid
p1941
(lp1942
V0
p1943
asVhasnum
p1944
(lp1945
V1
p1946
astp1947
Rp1948
(dp1949
g23
S'utf-8'
p1950
sg25
(dp1951
g1941
g1942
sg1944
g1945
ssS'_mutable'
p1952
I00
sbg4
(g11
g12
(dp1953
tp1954
Rp1955
(dp1956
S'_encoding'
p1957
g1950
sg25
(dp1958
sg1952
I00
sbtp1959
sbsg35
(dp1960
S'screen_name'
p1961
VTikuwa 2
p1962
sS'money'
p1963
L0L
sS'last_login'
p1964
S'2013-12-28T12:17:11+00:00'
p1965
sS'exp'
p1966
L0L
sS'gmail'
p1967
Vtikuwa.tester.no2@gmail.com
p1968
sS'id'
p1969
L6L
sS'date_joined'
p1970
S'2013-12-19T00:00:00+00:00'
p1971
ssba(iutil.request_logging
SimpleRequest
p1972
(dp1973
g3
g4
(g5
g6
Ntp1974
Rp1975
(dp1976
g10
(g4
(g11
g12
(dp1977
Vtid
p1978
(lp1979
V1
p1980
asVhasnum
p1981
(lp1982
V0
p1983
astp1984
Rp1985
(dp1986
g23
S'utf-8'
p1987
sg25
(dp1988
g1978
g1979
sg1981
g1982
ssS'_mutable'
p1989
I00
sbg4
(g11
g12
(dp1990
tp1991
Rp1992
(dp1993
S'_encoding'
p1994
g1987
sg25
(dp1995
sg1989
I00
sbtp1996
sbsg35
(dp1997
S'screen_name'
p1998
VTikuwa 2
p1999
sS'money'
p2000
L0L
sS'last_login'
p2001
S'2013-12-28T12:17:11+00:00'
p2002
sS'exp'
p2003
L0L
sS'date_joined'
p2004
S'2013-12-19T00:00:00+00:00'
p2005
sS'id'
p2006
L6L
sS'gmail'
p2007
Vtikuwa.tester.no2@gmail.com
p2008
ssba(iutil.request_logging
SimpleRequest
p2009
(dp2010
g3
g4
(g5
g6
Ntp2011
Rp2012
(dp2013
g10
(g4
(g11
g12
(dp2014
Vtid
p2015
(lp2016
V2
p2017
asVhasnum
p2018
(lp2019
V0
p2020
astp2021
Rp2022
(dp2023
g23
S'utf-8'
p2024
sg25
(dp2025
g2015
g2016
sg2018
g2019
ssS'_mutable'
p2026
I00
sbg4
(g11
g12
(dp2027
tp2028
Rp2029
(dp2030
S'_encoding'
p2031
g2024
sg25
(dp2032
sg2026
I00
sbtp2033
sbsg35
(dp2034
S'screen_name'
p2035
VTikuwa 2
p2036
sS'money'
p2037
L0L
sS'last_login'
p2038
S'2013-12-28T12:17:11+00:00'
p2039
sS'exp'
p2040
L0L
sS'gmail'
p2041
Vtikuwa.tester.no2@gmail.com
p2042
sS'id'
p2043
L6L
sS'date_joined'
p2044
S'2013-12-19T00:00:00+00:00'
p2045
ssba(iutil.request_logging
SimpleRequest
p2046
(dp2047
g3
g4
(g5
g6
Ntp2048
Rp2049
(dp2050
g10
(g4
(g11
g12
(dp2051
Vtid
p2052
(lp2053
V3
p2054
asVhasnum
p2055
(lp2056
V0
p2057
astp2058
Rp2059
(dp2060
g23
S'utf-8'
p2061
sg25
(dp2062
g2052
g2053
sg2055
g2056
ssS'_mutable'
p2063
I00
sbg4
(g11
g12
(dp2064
tp2065
Rp2066
(dp2067
S'_encoding'
p2068
g2061
sg25
(dp2069
sg2063
I00
sbtp2070
sbsg35
(dp2071
S'screen_name'
p2072
VTikuwa 2
p2073
sS'money'
p2074
L0L
sS'last_login'
p2075
S'2013-12-28T12:17:11+00:00'
p2076
sS'exp'
p2077
L0L
sS'date_joined'
p2078
S'2013-12-19T00:00:00+00:00'
p2079
sS'id'
p2080
L6L
sS'gmail'
p2081
Vtikuwa.tester.no2@gmail.com
p2082
ssba(iutil.request_logging
SimpleRequest
p2083
(dp2084
g3
g4
(g5
g6
Ntp2085
Rp2086
(dp2087
g10
(g4
(g11
g12
(dp2088
Vtid
p2089
(lp2090
V0
p2091
asVhasnum
p2092
(lp2093
V4
p2094
astp2095
Rp2096
(dp2097
g23
S'utf-8'
p2098
sg25
(dp2099
g2089
g2090
sg2092
g2093
ssS'_mutable'
p2100
I00
sbg4
(g11
g12
(dp2101
tp2102
Rp2103
(dp2104
S'_encoding'
p2105
g2098
sg25
(dp2106
sg2100
I00
sbtp2107
sbsg35
(dp2108
S'screen_name'
p2109
V\u51a8\u7530\u88d5\u5b50
p2110
sS'money'
p2111
L0L
sS'last_login'
p2112
S'2013-12-28T12:37:40+00:00'
p2113
sS'exp'
p2114
L0L
sS'gmail'
p2115
Vpreferire@gmail.com
p2116
sS'id'
p2117
L8L
sS'date_joined'
p2118
S'2013-12-19T07:41:15+00:00'
p2119
ssba(iutil.request_logging
SimpleRequest
p2120
(dp2121
g3
g4
(g5
g6
Ntp2122
Rp2123
(dp2124
g10
(g4
(g11
g12
(dp2125
Vtid
p2126
(lp2127
V1
p2128
asVhasnum
p2129
(lp2130
V0
p2131
astp2132
Rp2133
(dp2134
g23
S'utf-8'
p2135
sg25
(dp2136
g2126
g2127
sg2129
g2130
ssS'_mutable'
p2137
I00
sbg4
(g11
g12
(dp2138
tp2139
Rp2140
(dp2141
S'_encoding'
p2142
g2135
sg25
(dp2143
sg2137
I00
sbtp2144
sbsg35
(dp2145
S'screen_name'
p2146
V\u51a8\u7530\u88d5\u5b50
p2147
sS'money'
p2148
L0L
sS'last_login'
p2149
S'2013-12-28T12:37:40+00:00'
p2150
sS'exp'
p2151
L0L
sS'date_joined'
p2152
S'2013-12-19T07:41:15+00:00'
p2153
sS'id'
p2154
L8L
sS'gmail'
p2155
Vpreferire@gmail.com
p2156
ssba(iutil.request_logging
SimpleRequest
p2157
(dp2158
g3
g4
(g5
g6
Ntp2159
Rp2160
(dp2161
g10
(g4
(g11
g12
(dp2162
Vtid
p2163
(lp2164
V2
p2165
asVhasnum
p2166
(lp2167
V56
p2168
astp2169
Rp2170
(dp2171
g23
S'utf-8'
p2172
sg25
(dp2173
g2163
g2164
sg2166
g2167
ssS'_mutable'
p2174
I00
sbg4
(g11
g12
(dp2175
tp2176
Rp2177
(dp2178
S'_encoding'
p2179
g2172
sg25
(dp2180
sg2174
I00
sbtp2181
sbsg35
(dp2182
S'screen_name'
p2183
V\u51a8\u7530\u88d5\u5b50
p2184
sS'money'
p2185
L0L
sS'last_login'
p2186
S'2013-12-28T12:37:40+00:00'
p2187
sS'exp'
p2188
L0L
sS'gmail'
p2189
Vpreferire@gmail.com
p2190
sS'id'
p2191
L8L
sS'date_joined'
p2192
S'2013-12-19T07:41:15+00:00'
p2193
ssba(iutil.request_logging
SimpleRequest
p2194
(dp2195
g3
g4
(g5
g6
Ntp2196
Rp2197
(dp2198
g10
(g4
(g11
g12
(dp2199
Vtid
p2200
(lp2201
V3
p2202
asVhasnum
p2203
(lp2204
V87
p2205
astp2206
Rp2207
(dp2208
g23
S'utf-8'
p2209
sg25
(dp2210
g2200
g2201
sg2203
g2204
ssS'_mutable'
p2211
I00
sbg4
(g11
g12
(dp2212
tp2213
Rp2214
(dp2215
S'_encoding'
p2216
g2209
sg25
(dp2217
sg2211
I00
sbtp2218
sbsg35
(dp2219
S'screen_name'
p2220
V\u51a8\u7530\u88d5\u5b50
p2221
sS'money'
p2222
L0L
sS'last_login'
p2223
S'2013-12-28T12:37:40+00:00'
p2224
sS'exp'
p2225
L0L
sS'date_joined'
p2226
S'2013-12-19T07:41:15+00:00'
p2227
sS'id'
p2228
L8L
sS'gmail'
p2229
Vpreferire@gmail.com
p2230
ssba(iutil.request_logging
SimpleRequest
p2231
(dp2232
g3
g4
(g5
g6
Ntp2233
Rp2234
(dp2235
g10
(g4
(g11
g12
(dp2236
Vtid
p2237
(lp2238
V4
p2239
asVhasnum
p2240
(lp2241
V2
p2242
astp2243
Rp2244
(dp2245
g23
S'utf-8'
p2246
sg25
(dp2247
g2237
g2238
sg2240
g2241
ssS'_mutable'
p2248
I00
sbg4
(g11
g12
(dp2249
tp2250
Rp2251
(dp2252
S'_encoding'
p2253
g2246
sg25
(dp2254
sg2248
I00
sbtp2255
sbsg35
(dp2256
S'screen_name'
p2257
V\u51a8\u7530\u88d5\u5b50
p2258
sS'money'
p2259
L0L
sS'last_login'
p2260
S'2013-12-28T12:37:40+00:00'
p2261
sS'exp'
p2262
L0L
sS'gmail'
p2263
Vpreferire@gmail.com
p2264
sS'id'
p2265
L8L
sS'date_joined'
p2266
S'2013-12-19T07:41:15+00:00'
p2267
ssba(iutil.request_logging
SimpleRequest
p2268
(dp2269
g3
g4
(g5
g6
Ntp2270
Rp2271
(dp2272
g10
(g4
(g11
g12
(dp2273
Vtid
p2274
(lp2275
V12
p2276
asVhasnum
p2277
(lp2278
V4
p2279
astp2280
Rp2281
(dp2282
g23
S'utf-8'
p2283
sg25
(dp2284
g2274
g2275
sg2277
g2278
ssS'_mutable'
p2285
I00
sbg4
(g11
g12
(dp2286
tp2287
Rp2288
(dp2289
S'_encoding'
p2290
g2283
sg25
(dp2291
sg2285
I00
sbtp2292
sbsg35
(dp2293
S'screen_name'
p2294
V\u51a8\u7530\u88d5\u5b50
p2295
sS'money'
p2296
L0L
sS'last_login'
p2297
S'2013-12-28T12:37:40+00:00'
p2298
sS'exp'
p2299
L0L
sS'date_joined'
p2300
S'2013-12-19T07:41:15+00:00'
p2301
sS'id'
p2302
L8L
sS'gmail'
p2303
Vpreferire@gmail.com
p2304
ssba(iutil.request_logging
SimpleRequest
p2305
(dp2306
g3
g4
(g5
g6
Ntp2307
Rp2308
(dp2309
g10
(g4
(g11
g12
(dp2310
Vtid
p2311
(lp2312
V0
p2313
asVhasnum
p2314
(lp2315
V1
p2316
astp2317
Rp2318
(dp2319
g23
S'utf-8'
p2320
sg25
(dp2321
g2311
g2312
sg2314
g2315
ssS'_mutable'
p2322
I00
sbg4
(g11
g12
(dp2323
tp2324
Rp2325
(dp2326
S'_encoding'
p2327
g2320
sg25
(dp2328
sg2322
I00
sbtp2329
sbsg35
(dp2330
S'screen_name'
p2331
V\u6a29\u85e4\u514b\u5f66
p2332
sS'money'
p2333
L0L
sS'last_login'
p2334
S'2013-12-28T12:40:24+00:00'
p2335
sS'exp'
p2336
L0L
sS'gmail'
p2337
Vgondow3@gmail.com
p2338
sS'id'
p2339
L15L
sS'date_joined'
p2340
S'2013-12-28T12:40:24+00:00'
p2341
ssba(iutil.request_logging
SimpleRequest
p2342
(dp2343
g3
g4
(g5
g6
Ntp2344
Rp2345
(dp2346
g10
(g4
(g11
g12
(dp2347
Vtid
p2348
(lp2349
V0
p2350
asVhasnum
p2351
(lp2352
V4
p2353
astp2354
Rp2355
(dp2356
g23
S'utf-8'
p2357
sg25
(dp2358
g2348
g2349
sg2351
g2352
ssS'_mutable'
p2359
I00
sbg4
(g11
g12
(dp2360
tp2361
Rp2362
(dp2363
S'_encoding'
p2364
g2357
sg25
(dp2365
sg2359
I00
sbtp2366
sbsg35
(dp2367
S'screen_name'
p2368
V\u51a8\u7530\u88d5\u5b50
p2369
sS'money'
p2370
L0L
sS'last_login'
p2371
S'2013-12-28T15:48:14+00:00'
p2372
sS'exp'
p2373
L0L
sS'date_joined'
p2374
S'2013-12-19T07:41:15+00:00'
p2375
sS'id'
p2376
L8L
sS'gmail'
p2377
Vpreferire@gmail.com
p2378
ssba(iutil.request_logging
SimpleRequest
p2379
(dp2380
g3
g4
(g5
g6
Ntp2381
Rp2382
(dp2383
g10
(g4
(g11
g12
(dp2384
Vtid
p2385
(lp2386
V1
p2387
asVhasnum
p2388
(lp2389
V0
p2390
astp2391
Rp2392
(dp2393
g23
S'utf-8'
p2394
sg25
(dp2395
g2385
g2386
sg2388
g2389
ssS'_mutable'
p2396
I00
sbg4
(g11
g12
(dp2397
tp2398
Rp2399
(dp2400
S'_encoding'
p2401
g2394
sg25
(dp2402
sg2396
I00
sbtp2403
sbsg35
(dp2404
S'screen_name'
p2405
V\u51a8\u7530\u88d5\u5b50
p2406
sS'money'
p2407
L0L
sS'last_login'
p2408
S'2013-12-28T15:48:14+00:00'
p2409
sS'exp'
p2410
L0L
sS'gmail'
p2411
Vpreferire@gmail.com
p2412
sS'id'
p2413
L8L
sS'date_joined'
p2414
S'2013-12-19T07:41:15+00:00'
p2415
ssba(iutil.request_logging
SimpleRequest
p2416
(dp2417
g3
g4
(g5
g6
Ntp2418
Rp2419
(dp2420
g10
(g4
(g11
g12
(dp2421
Vtid
p2422
(lp2423
V2
p2424
asVhasnum
p2425
(lp2426
V56
p2427
astp2428
Rp2429
(dp2430
g23
S'utf-8'
p2431
sg25
(dp2432
g2422
g2423
sg2425
g2426
ssS'_mutable'
p2433
I00
sbg4
(g11
g12
(dp2434
tp2435
Rp2436
(dp2437
S'_encoding'
p2438
g2431
sg25
(dp2439
sg2433
I00
sbtp2440
sbsg35
(dp2441
S'screen_name'
p2442
V\u51a8\u7530\u88d5\u5b50
p2443
sS'money'
p2444
L0L
sS'last_login'
p2445
S'2013-12-28T15:48:14+00:00'
p2446
sS'exp'
p2447
L0L
sS'date_joined'
p2448
S'2013-12-19T07:41:15+00:00'
p2449
sS'id'
p2450
L8L
sS'gmail'
p2451
Vpreferire@gmail.com
p2452
ssba(iutil.request_logging
SimpleRequest
p2453
(dp2454
g3
g4
(g5
g6
Ntp2455
Rp2456
(dp2457
g10
(g4
(g11
g12
(dp2458
Vtid
p2459
(lp2460
V3
p2461
asVhasnum
p2462
(lp2463
V87
p2464
astp2465
Rp2466
(dp2467
g23
S'utf-8'
p2468
sg25
(dp2469
g2459
g2460
sg2462
g2463
ssS'_mutable'
p2470
I00
sbg4
(g11
g12
(dp2471
tp2472
Rp2473
(dp2474
S'_encoding'
p2475
g2468
sg25
(dp2476
sg2470
I00
sbtp2477
sbsg35
(dp2478
S'screen_name'
p2479
V\u51a8\u7530\u88d5\u5b50
p2480
sS'money'
p2481
L0L
sS'last_login'
p2482
S'2013-12-28T15:48:14+00:00'
p2483
sS'exp'
p2484
L0L
sS'gmail'
p2485
Vpreferire@gmail.com
p2486
sS'id'
p2487
L8L
sS'date_joined'
p2488
S'2013-12-19T07:41:15+00:00'
p2489
ssba(iutil.request_logging
SimpleRequest
p2490
(dp2491
g3
g4
(g5
g6
Ntp2492
Rp2493
(dp2494
g10
(g4
(g11
g12
(dp2495
Vtid
p2496
(lp2497
V4
p2498
asVhasnum
p2499
(lp2500
V2
p2501
astp2502
Rp2503
(dp2504
g23
S'utf-8'
p2505
sg25
(dp2506
g2496
g2497
sg2499
g2500
ssS'_mutable'
p2507
I00
sbg4
(g11
g12
(dp2508
tp2509
Rp2510
(dp2511
S'_encoding'
p2512
g2505
sg25
(dp2513
sg2507
I00
sbtp2514
sbsg35
(dp2515
S'screen_name'
p2516
V\u51a8\u7530\u88d5\u5b50
p2517
sS'money'
p2518
L0L
sS'last_login'
p2519
S'2013-12-28T15:48:14+00:00'
p2520
sS'exp'
p2521
L0L
sS'date_joined'
p2522
S'2013-12-19T07:41:15+00:00'
p2523
sS'id'
p2524
L8L
sS'gmail'
p2525
Vpreferire@gmail.com
p2526
ssba(iutil.request_logging
SimpleRequest
p2527
(dp2528
g3
g4
(g5
g6
Ntp2529
Rp2530
(dp2531
g10
(g4
(g11
g12
(dp2532
Vtid
p2533
(lp2534
V12
p2535
asVhasnum
p2536
(lp2537
V4
p2538
astp2539
Rp2540
(dp2541
g23
S'utf-8'
p2542
sg25
(dp2543
g2533
g2534
sg2536
g2537
ssS'_mutable'
p2544
I00
sbg4
(g11
g12
(dp2545
tp2546
Rp2547
(dp2548
S'_encoding'
p2549
g2542
sg25
(dp2550
sg2544
I00
sbtp2551
sbsg35
(dp2552
S'screen_name'
p2553
V\u51a8\u7530\u88d5\u5b50
p2554
sS'money'
p2555
L0L
sS'last_login'
p2556
S'2013-12-28T15:48:14+00:00'
p2557
sS'exp'
p2558
L0L
sS'gmail'
p2559
Vpreferire@gmail.com
p2560
sS'id'
p2561
L8L
sS'date_joined'
p2562
S'2013-12-19T07:41:15+00:00'
p2563
ssba(iutil.request_logging
SimpleRequest
p2564
(dp2565
g3
g4
(g5
g6
Ntp2566
Rp2567
(dp2568
g10
(g4
(g11
g12
(dp2569
Vtid
p2570
(lp2571
V2
p2572
asVhasnum
p2573
(lp2574
V4
p2575
astp2576
Rp2577
(dp2578
g23
S'utf-8'
p2579
sg25
(dp2580
g2570
g2571
sg2573
g2574
ssS'_mutable'
p2581
I00
sbg4
(g11
g12
(dp2582
tp2583
Rp2584
(dp2585
S'_encoding'
p2586
g2579
sg25
(dp2587
sg2581
I00
sbtp2588
sbsg35
(dp2589
S'screen_name'
p2590
V\u51a8\u7530\u88d5\u5b50
p2591
sS'money'
p2592
L0L
sS'last_login'
p2593
S'2013-12-28T15:48:14+00:00'
p2594
sS'exp'
p2595
L0L
sS'date_joined'
p2596
S'2013-12-19T07:41:15+00:00'
p2597
sS'id'
p2598
L8L
sS'gmail'
p2599
Vpreferire@gmail.com
p2600
ssba(iutil.request_logging
SimpleRequest
p2601
(dp2602
g3
g4
(g5
g6
Ntp2603
Rp2604
(dp2605
g10
(g4
(g11
g12
(dp2606
Vtid
p2607
(lp2608
V0
p2609
asVhasnum
p2610
(lp2611
V22
p2612
astp2613
Rp2614
(dp2615
g23
S'utf-8'
p2616
sg25
(dp2617
g2607
g2608
sg2610
g2611
ssS'_mutable'
p2618
I00
sbg4
(g11
g12
(dp2619
tp2620
Rp2621
(dp2622
S'_encoding'
p2623
g2616
sg25
(dp2624
sg2618
I00
sbtp2625
sbsg35
(dp2626
S'screen_name'
p2627
V\u51a8\u7530\u88d5\u5b50
p2628
sS'money'
p2629
L0L
sS'last_login'
p2630
S'2013-12-28T15:48:57+00:00'
p2631
sS'exp'
p2632
L0L
sS'gmail'
p2633
Vpreferire@gmail.com
p2634
sS'id'
p2635
L8L
sS'date_joined'
p2636
S'2013-12-19T07:41:15+00:00'
p2637
ssba(iutil.request_logging
SimpleRequest
p2638
(dp2639
g3
g4
(g5
g6
Ntp2640
Rp2641
(dp2642
g10
(g4
(g11
g12
(dp2643
Vtid
p2644
(lp2645
V1
p2646
asVhasnum
p2647
(lp2648
V0
p2649
astp2650
Rp2651
(dp2652
g23
S'utf-8'
p2653
sg25
(dp2654
g2644
g2645
sg2647
g2648
ssS'_mutable'
p2655
I00
sbg4
(g11
g12
(dp2656
tp2657
Rp2658
(dp2659
S'_encoding'
p2660
g2653
sg25
(dp2661
sg2655
I00
sbtp2662
sbsg35
(dp2663
S'screen_name'
p2664
V\u51a8\u7530\u88d5\u5b50
p2665
sS'money'
p2666
L0L
sS'last_login'
p2667
S'2013-12-28T15:48:57+00:00'
p2668
sS'exp'
p2669
L0L
sS'date_joined'
p2670
S'2013-12-19T07:41:15+00:00'
p2671
sS'id'
p2672
L8L
sS'gmail'
p2673
Vpreferire@gmail.com
p2674
ssba(iutil.request_logging
SimpleRequest
p2675
(dp2676
g3
g4
(g5
g6
Ntp2677
Rp2678
(dp2679
g10
(g4
(g11
g12
(dp2680
Vtid
p2681
(lp2682
V2
p2683
asVhasnum
p2684
(lp2685
V56
p2686
astp2687
Rp2688
(dp2689
g23
S'utf-8'
p2690
sg25
(dp2691
g2681
g2682
sg2684
g2685
ssS'_mutable'
p2692
I00
sbg4
(g11
g12
(dp2693
tp2694
Rp2695
(dp2696
S'_encoding'
p2697
g2690
sg25
(dp2698
sg2692
I00
sbtp2699
sbsg35
(dp2700
S'screen_name'
p2701
V\u51a8\u7530\u88d5\u5b50
p2702
sS'money'
p2703
L0L
sS'last_login'
p2704
S'2013-12-28T15:48:57+00:00'
p2705
sS'exp'
p2706
L0L
sS'gmail'
p2707
Vpreferire@gmail.com
p2708
sS'id'
p2709
L8L
sS'date_joined'
p2710
S'2013-12-19T07:41:15+00:00'
p2711
ssba(iutil.request_logging
SimpleRequest
p2712
(dp2713
g3
g4
(g5
g6
Ntp2714
Rp2715
(dp2716
g10
(g4
(g11
g12
(dp2717
Vtid
p2718
(lp2719
V3
p2720
asVhasnum
p2721
(lp2722
V87
p2723
astp2724
Rp2725
(dp2726
g23
S'utf-8'
p2727
sg25
(dp2728
g2718
g2719
sg2721
g2722
ssS'_mutable'
p2729
I00
sbg4
(g11
g12
(dp2730
tp2731
Rp2732
(dp2733
S'_encoding'
p2734
g2727
sg25
(dp2735
sg2729
I00
sbtp2736
sbsg35
(dp2737
S'screen_name'
p2738
V\u51a8\u7530\u88d5\u5b50
p2739
sS'money'
p2740
L0L
sS'last_login'
p2741
S'2013-12-28T15:48:57+00:00'
p2742
sS'exp'
p2743
L0L
sS'date_joined'
p2744
S'2013-12-19T07:41:15+00:00'
p2745
sS'id'
p2746
L8L
sS'gmail'
p2747
Vpreferire@gmail.com
p2748
ssba(iutil.request_logging
SimpleRequest
p2749
(dp2750
g3
g4
(g5
g6
Ntp2751
Rp2752
(dp2753
g10
(g4
(g11
g12
(dp2754
Vtid
p2755
(lp2756
V4
p2757
asVhasnum
p2758
(lp2759
V2
p2760
astp2761
Rp2762
(dp2763
g23
S'utf-8'
p2764
sg25
(dp2765
g2755
g2756
sg2758
g2759
ssS'_mutable'
p2766
I00
sbg4
(g11
g12
(dp2767
tp2768
Rp2769
(dp2770
S'_encoding'
p2771
g2764
sg25
(dp2772
sg2766
I00
sbtp2773
sbsg35
(dp2774
S'screen_name'
p2775
V\u51a8\u7530\u88d5\u5b50
p2776
sS'money'
p2777
L0L
sS'last_login'
p2778
S'2013-12-28T15:48:57+00:00'
p2779
sS'exp'
p2780
L0L
sS'gmail'
p2781
Vpreferire@gmail.com
p2782
sS'id'
p2783
L8L
sS'date_joined'
p2784
S'2013-12-19T07:41:15+00:00'
p2785
ssba(iutil.request_logging
SimpleRequest
p2786
(dp2787
g3
g4
(g5
g6
Ntp2788
Rp2789
(dp2790
g10
(g4
(g11
g12
(dp2791
Vtid
p2792
(lp2793
V12
p2794
asVhasnum
p2795
(lp2796
V4
p2797
astp2798
Rp2799
(dp2800
g23
S'utf-8'
p2801
sg25
(dp2802
g2792
g2793
sg2795
g2796
ssS'_mutable'
p2803
I00
sbg4
(g11
g12
(dp2804
tp2805
Rp2806
(dp2807
S'_encoding'
p2808
g2801
sg25
(dp2809
sg2803
I00
sbtp2810
sbsg35
(dp2811
S'screen_name'
p2812
V\u51a8\u7530\u88d5\u5b50
p2813
sS'money'
p2814
L0L
sS'last_login'
p2815
S'2013-12-28T15:48:57+00:00'
p2816
sS'exp'
p2817
L0L
sS'date_joined'
p2818
S'2013-12-19T07:41:15+00:00'
p2819
sS'id'
p2820
L8L
sS'gmail'
p2821
Vpreferire@gmail.com
p2822
ssba(iutil.request_logging
SimpleRequest
p2823
(dp2824
g3
g4
(g5
g6
Ntp2825
Rp2826
(dp2827
g10
(g4
(g11
g12
(dp2828
Vtid
p2829
(lp2830
V2
p2831
asVhasnum
p2832
(lp2833
V5
p2834
astp2835
Rp2836
(dp2837
g23
S'utf-8'
p2838
sg25
(dp2839
g2829
g2830
sg2832
g2833
ssS'_mutable'
p2840
I00
sbg4
(g11
g12
(dp2841
tp2842
Rp2843
(dp2844
S'_encoding'
p2845
g2838
sg25
(dp2846
sg2840
I00
sbtp2847
sbsg35
(dp2848
S'screen_name'
p2849
V\u51a8\u7530\u88d5\u5b50
p2850
sS'money'
p2851
L0L
sS'last_login'
p2852
S'2013-12-28T15:48:57+00:00'
p2853
sS'exp'
p2854
L0L
sS'gmail'
p2855
Vpreferire@gmail.com
p2856
sS'id'
p2857
L8L
sS'date_joined'
p2858
S'2013-12-19T07:41:15+00:00'
p2859
ssba(iutil.request_logging
SimpleRequest
p2860
(dp2861
g3
g4
(g5
g6
Ntp2862
Rp2863
(dp2864
g10
(g4
(g11
g12
(dp2865
Vtid
p2866
(lp2867
V0
p2868
asVhasnum
p2869
(lp2870
V46
p2871
astp2872
Rp2873
(dp2874
g23
S'utf-8'
p2875
sg25
(dp2876
g2866
g2867
sg2869
g2870
ssS'_mutable'
p2877
I00
sbg4
(g11
g12
(dp2878
tp2879
Rp2880
(dp2881
S'_encoding'
p2882
g2875
sg25
(dp2883
sg2877
I00
sbtp2884
sbsg35
(dp2885
S'screen_name'
p2886
V\u51a8\u7530\u88d5\u5b50
p2887
sS'money'
p2888
L0L
sS'last_login'
p2889
S'2013-12-28T15:49:33+00:00'
p2890
sS'exp'
p2891
L0L
sS'date_joined'
p2892
S'2013-12-19T07:41:15+00:00'
p2893
sS'id'
p2894
L8L
sS'gmail'
p2895
Vpreferire@gmail.com
p2896
ssba(iutil.request_logging
SimpleRequest
p2897
(dp2898
g3
g4
(g5
g6
Ntp2899
Rp2900
(dp2901
g10
(g4
(g11
g12
(dp2902
Vtid
p2903
(lp2904
V1
p2905
asVhasnum
p2906
(lp2907
V0
p2908
astp2909
Rp2910
(dp2911
g23
S'utf-8'
p2912
sg25
(dp2913
g2903
g2904
sg2906
g2907
ssS'_mutable'
p2914
I00
sbg4
(g11
g12
(dp2915
tp2916
Rp2917
(dp2918
S'_encoding'
p2919
g2912
sg25
(dp2920
sg2914
I00
sbtp2921
sbsg35
(dp2922
S'screen_name'
p2923
V\u51a8\u7530\u88d5\u5b50
p2924
sS'money'
p2925
L0L
sS'last_login'
p2926
S'2013-12-28T15:49:33+00:00'
p2927
sS'exp'
p2928
L0L
sS'gmail'
p2929
Vpreferire@gmail.com
p2930
sS'id'
p2931
L8L
sS'date_joined'
p2932
S'2013-12-19T07:41:15+00:00'
p2933
ssba(iutil.request_logging
SimpleRequest
p2934
(dp2935
g3
g4
(g5
g6
Ntp2936
Rp2937
(dp2938
g10
(g4
(g11
g12
(dp2939
Vtid
p2940
(lp2941
V2
p2942
asVhasnum
p2943
(lp2944
V56
p2945
astp2946
Rp2947
(dp2948
g23
S'utf-8'
p2949
sg25
(dp2950
g2940
g2941
sg2943
g2944
ssS'_mutable'
p2951
I00
sbg4
(g11
g12
(dp2952
tp2953
Rp2954
(dp2955
S'_encoding'
p2956
g2949
sg25
(dp2957
sg2951
I00
sbtp2958
sbsg35
(dp2959
S'screen_name'
p2960
V\u51a8\u7530\u88d5\u5b50
p2961
sS'money'
p2962
L0L
sS'last_login'
p2963
S'2013-12-28T15:49:33+00:00'
p2964
sS'exp'
p2965
L0L
sS'date_joined'
p2966
S'2013-12-19T07:41:15+00:00'
p2967
sS'id'
p2968
L8L
sS'gmail'
p2969
Vpreferire@gmail.com
p2970
ssba(iutil.request_logging
SimpleRequest
p2971
(dp2972
g3
g4
(g5
g6
Ntp2973
Rp2974
(dp2975
g10
(g4
(g11
g12
(dp2976
Vtid
p2977
(lp2978
V3
p2979
asVhasnum
p2980
(lp2981
V87
p2982
astp2983
Rp2984
(dp2985
g23
S'utf-8'
p2986
sg25
(dp2987
g2977
g2978
sg2980
g2981
ssS'_mutable'
p2988
I00
sbg4
(g11
g12
(dp2989
tp2990
Rp2991
(dp2992
S'_encoding'
p2993
g2986
sg25
(dp2994
sg2988
I00
sbtp2995
sbsg35
(dp2996
S'screen_name'
p2997
V\u51a8\u7530\u88d5\u5b50
p2998
sS'money'
p2999
L0L
sS'last_login'
p3000
S'2013-12-28T15:49:33+00:00'
p3001
sS'exp'
p3002
L0L
sS'gmail'
p3003
Vpreferire@gmail.com
p3004
sS'id'
p3005
L8L
sS'date_joined'
p3006
S'2013-12-19T07:41:15+00:00'
p3007
ssba(iutil.request_logging
SimpleRequest
p3008
(dp3009
g3
g4
(g5
g6
Ntp3010
Rp3011
(dp3012
g10
(g4
(g11
g12
(dp3013
Vtid
p3014
(lp3015
V4
p3016
asVhasnum
p3017
(lp3018
V2
p3019
astp3020
Rp3021
(dp3022
g23
S'utf-8'
p3023
sg25
(dp3024
g3014
g3015
sg3017
g3018
ssS'_mutable'
p3025
I00
sbg4
(g11
g12
(dp3026
tp3027
Rp3028
(dp3029
S'_encoding'
p3030
g3023
sg25
(dp3031
sg3025
I00
sbtp3032
sbsg35
(dp3033
S'screen_name'
p3034
V\u51a8\u7530\u88d5\u5b50
p3035
sS'money'
p3036
L0L
sS'last_login'
p3037
S'2013-12-28T15:49:33+00:00'
p3038
sS'exp'
p3039
L0L
sS'date_joined'
p3040
S'2013-12-19T07:41:15+00:00'
p3041
sS'id'
p3042
L8L
sS'gmail'
p3043
Vpreferire@gmail.com
p3044
ssba(iutil.request_logging
SimpleRequest
p3045
(dp3046
g3
g4
(g5
g6
Ntp3047
Rp3048
(dp3049
g10
(g4
(g11
g12
(dp3050
Vtid
p3051
(lp3052
V12
p3053
asVhasnum
p3054
(lp3055
V4
p3056
astp3057
Rp3058
(dp3059
g23
S'utf-8'
p3060
sg25
(dp3061
g3051
g3052
sg3054
g3055
ssS'_mutable'
p3062
I00
sbg4
(g11
g12
(dp3063
tp3064
Rp3065
(dp3066
S'_encoding'
p3067
g3060
sg25
(dp3068
sg3062
I00
sbtp3069
sbsg35
(dp3070
S'screen_name'
p3071
V\u51a8\u7530\u88d5\u5b50
p3072
sS'money'
p3073
L0L
sS'last_login'
p3074
S'2013-12-28T15:49:33+00:00'
p3075
sS'exp'
p3076
L0L
sS'gmail'
p3077
Vpreferire@gmail.com
p3078
sS'id'
p3079
L8L
sS'date_joined'
p3080
S'2013-12-19T07:41:15+00:00'
p3081
ssba(iutil.request_logging
SimpleRequest
p3082
(dp3083
g3
g4
(g5
g6
Ntp3084
Rp3085
(dp3086
g10
(g4
(g11
g12
(dp3087
Vtid
p3088
(lp3089
V0
p3090
asVhasnum
p3091
(lp3092
V0
p3093
astp3094
Rp3095
(dp3096
g23
S'utf-8'
p3097
sg25
(dp3098
g3088
g3089
sg3091
g3092
ssS'_mutable'
p3099
I00
sbg4
(g11
g12
(dp3100
tp3101
Rp3102
(dp3103
S'_encoding'
p3104
g3097
sg25
(dp3105
sg3099
I00
sbtp3106
sbsg35
(dp3107
S'screen_name'
p3108
V\u51a8\u7530\u88d5\u5b50
p3109
sS'money'
p3110
L0L
sS'last_login'
p3111
S'2013-12-28T15:49:33+00:00'
p3112
sS'exp'
p3113
L0L
sS'date_joined'
p3114
S'2013-12-19T07:41:15+00:00'
p3115
sS'id'
p3116
L8L
sS'gmail'
p3117
Vpreferire@gmail.com
p3118
ssba(iutil.request_logging
SimpleRequest
p3119
(dp3120
g3
g4
(g5
g6
Ntp3121
Rp3122
(dp3123
g10
(g4
(g11
g12
(dp3124
Vtid
p3125
(lp3126
V0
p3127
asVhasnum
p3128
(lp3129
V33
p3130
astp3131
Rp3132
(dp3133
g23
S'utf-8'
p3134
sg25
(dp3135
g3125
g3126
sg3128
g3129
ssS'_mutable'
p3136
I00
sbg4
(g11
g12
(dp3137
tp3138
Rp3139
(dp3140
S'_encoding'
p3141
g3134
sg25
(dp3142
sg3136
I00
sbtp3143
sbsg35
(dp3144
S'screen_name'
p3145
V\u51a8\u7530\u88d5\u5b50
p3146
sS'money'
p3147
L0L
sS'last_login'
p3148
S'2013-12-28T16:03:16+00:00'
p3149
sS'exp'
p3150
L0L
sS'gmail'
p3151
Vpreferire@gmail.com
p3152
sS'id'
p3153
L8L
sS'date_joined'
p3154
S'2013-12-19T07:41:15+00:00'
p3155
ssba(iutil.request_logging
SimpleRequest
p3156
(dp3157
g3
g4
(g5
g6
Ntp3158
Rp3159
(dp3160
g10
(g4
(g11
g12
(dp3161
Vtid
p3162
(lp3163
V1
p3164
asVhasnum
p3165
(lp3166
V0
p3167
astp3168
Rp3169
(dp3170
g23
S'utf-8'
p3171
sg25
(dp3172
g3162
g3163
sg3165
g3166
ssS'_mutable'
p3173
I00
sbg4
(g11
g12
(dp3174
tp3175
Rp3176
(dp3177
S'_encoding'
p3178
g3171
sg25
(dp3179
sg3173
I00
sbtp3180
sbsg35
(dp3181
S'screen_name'
p3182
V\u51a8\u7530\u88d5\u5b50
p3183
sS'money'
p3184
L0L
sS'last_login'
p3185
S'2013-12-28T16:03:16+00:00'
p3186
sS'exp'
p3187
L0L
sS'date_joined'
p3188
S'2013-12-19T07:41:15+00:00'
p3189
sS'id'
p3190
L8L
sS'gmail'
p3191
Vpreferire@gmail.com
p3192
ssba(iutil.request_logging
SimpleRequest
p3193
(dp3194
g3
g4
(g5
g6
Ntp3195
Rp3196
(dp3197
g10
(g4
(g11
g12
(dp3198
Vtid
p3199
(lp3200
V2
p3201
asVhasnum
p3202
(lp3203
V70
p3204
astp3205
Rp3206
(dp3207
g23
S'utf-8'
p3208
sg25
(dp3209
g3199
g3200
sg3202
g3203
ssS'_mutable'
p3210
I00
sbg4
(g11
g12
(dp3211
tp3212
Rp3213
(dp3214
S'_encoding'
p3215
g3208
sg25
(dp3216
sg3210
I00
sbtp3217
sbsg35
(dp3218
S'screen_name'
p3219
V\u51a8\u7530\u88d5\u5b50
p3220
sS'money'
p3221
L0L
sS'last_login'
p3222
S'2013-12-28T16:03:16+00:00'
p3223
sS'exp'
p3224
L0L
sS'gmail'
p3225
Vpreferire@gmail.com
p3226
sS'id'
p3227
L8L
sS'date_joined'
p3228
S'2013-12-19T07:41:15+00:00'
p3229
ssba(iutil.request_logging
SimpleRequest
p3230
(dp3231
g3
g4
(g5
g6
Ntp3232
Rp3233
(dp3234
g10
(g4
(g11
g12
(dp3235
Vtid
p3236
(lp3237
V3
p3238
asVhasnum
p3239
(lp3240
V87
p3241
astp3242
Rp3243
(dp3244
g23
S'utf-8'
p3245
sg25
(dp3246
g3236
g3237
sg3239
g3240
ssS'_mutable'
p3247
I00
sbg4
(g11
g12
(dp3248
tp3249
Rp3250
(dp3251
S'_encoding'
p3252
g3245
sg25
(dp3253
sg3247
I00
sbtp3254
sbsg35
(dp3255
S'screen_name'
p3256
V\u51a8\u7530\u88d5\u5b50
p3257
sS'money'
p3258
L0L
sS'last_login'
p3259
S'2013-12-28T16:03:16+00:00'
p3260
sS'exp'
p3261
L0L
sS'date_joined'
p3262
S'2013-12-19T07:41:15+00:00'
p3263
sS'id'
p3264
L8L
sS'gmail'
p3265
Vpreferire@gmail.com
p3266
ssba(iutil.request_logging
SimpleRequest
p3267
(dp3268
g3
g4
(g5
g6
Ntp3269
Rp3270
(dp3271
g10
(g4
(g11
g12
(dp3272
Vtid
p3273
(lp3274
V4
p3275
asVhasnum
p3276
(lp3277
V2
p3278
astp3279
Rp3280
(dp3281
g23
S'utf-8'
p3282
sg25
(dp3283
g3273
g3274
sg3276
g3277
ssS'_mutable'
p3284
I00
sbg4
(g11
g12
(dp3285
tp3286
Rp3287
(dp3288
S'_encoding'
p3289
g3282
sg25
(dp3290
sg3284
I00
sbtp3291
sbsg35
(dp3292
S'screen_name'
p3293
V\u51a8\u7530\u88d5\u5b50
p3294
sS'money'
p3295
L0L
sS'last_login'
p3296
S'2013-12-28T16:03:16+00:00'
p3297
sS'exp'
p3298
L0L
sS'gmail'
p3299
Vpreferire@gmail.com
p3300
sS'id'
p3301
L8L
sS'date_joined'
p3302
S'2013-12-19T07:41:15+00:00'
p3303
ssba(iutil.request_logging
SimpleRequest
p3304
(dp3305
g3
g4
(g5
g6
Ntp3306
Rp3307
(dp3308
g10
(g4
(g11
g12
(dp3309
Vtid
p3310
(lp3311
V12
p3312
asVhasnum
p3313
(lp3314
V4
p3315
astp3316
Rp3317
(dp3318
g23
S'utf-8'
p3319
sg25
(dp3320
g3310
g3311
sg3313
g3314
ssS'_mutable'
p3321
I00
sbg4
(g11
g12
(dp3322
tp3323
Rp3324
(dp3325
S'_encoding'
p3326
g3319
sg25
(dp3327
sg3321
I00
sbtp3328
sbsg35
(dp3329
S'screen_name'
p3330
V\u51a8\u7530\u88d5\u5b50
p3331
sS'money'
p3332
L0L
sS'last_login'
p3333
S'2013-12-28T16:03:16+00:00'
p3334
sS'exp'
p3335
L0L
sS'date_joined'
p3336
S'2013-12-19T07:41:15+00:00'
p3337
sS'id'
p3338
L8L
sS'gmail'
p3339
Vpreferire@gmail.com
p3340
ssba(iutil.request_logging
SimpleRequest
p3341
(dp3342
g3
g4
(g5
g6
Ntp3343
Rp3344
(dp3345
g10
(g4
(g11
g12
(dp3346
Vtid
p3347
(lp3348
V0
p3349
asVhasnum
p3350
(lp3351
V0
p3352
astp3353
Rp3354
(dp3355
g23
S'utf-8'
p3356
sg25
(dp3357
g3347
g3348
sg3350
g3351
ssS'_mutable'
p3358
I00
sbg4
(g11
g12
(dp3359
tp3360
Rp3361
(dp3362
S'_encoding'
p3363
g3356
sg25
(dp3364
sg3358
I00
sbtp3365
sbsg35
(dp3366
S'screen_name'
p3367
V\u51a8\u7530\u88d5\u5b50
p3368
sS'money'
p3369
L0L
sS'last_login'
p3370
S'2013-12-28T16:03:16+00:00'
p3371
sS'exp'
p3372
L0L
sS'gmail'
p3373
Vpreferire@gmail.com
p3374
sS'id'
p3375
L8L
sS'date_joined'
p3376
S'2013-12-19T07:41:15+00:00'
p3377
ssba(iutil.request_logging
SimpleRequest
p3378
(dp3379
g3
g4
(g5
g6
Ntp3380
Rp3381
(dp3382
g10
(g4
(g11
g12
(dp3383
Vtid
p3384
(lp3385
V0
p3386
asVhasnum
p3387
(lp3388
V21
p3389
astp3390
Rp3391
(dp3392
g23
S'utf-8'
p3393
sg25
(dp3394
g3384
g3385
sg3387
g3388
ssS'_mutable'
p3395
I00
sbg4
(g11
g12
(dp3396
tp3397
Rp3398
(dp3399
S'_encoding'
p3400
g3393
sg25
(dp3401
sg3395
I00
sbtp3402
sbsg35
(dp3403
S'screen_name'
p3404
V\u51a8\u7530\u88d5\u5b50
p3405
sS'money'
p3406
L0L
sS'last_login'
p3407
S'2013-12-28T16:03:55+00:00'
p3408
sS'exp'
p3409
L0L
sS'date_joined'
p3410
S'2013-12-19T07:41:15+00:00'
p3411
sS'id'
p3412
L8L
sS'gmail'
p3413
Vpreferire@gmail.com
p3414
ssba(iutil.request_logging
SimpleRequest
p3415
(dp3416
g3
g4
(g5
g6
Ntp3417
Rp3418
(dp3419
g10
(g4
(g11
g12
(dp3420
Vtid
p3421
(lp3422
V1
p3423
asVhasnum
p3424
(lp3425
V0
p3426
astp3427
Rp3428
(dp3429
g23
S'utf-8'
p3430
sg25
(dp3431
g3421
g3422
sg3424
g3425
ssS'_mutable'
p3432
I00
sbg4
(g11
g12
(dp3433
tp3434
Rp3435
(dp3436
S'_encoding'
p3437
g3430
sg25
(dp3438
sg3432
I00
sbtp3439
sbsg35
(dp3440
S'screen_name'
p3441
V\u51a8\u7530\u88d5\u5b50
p3442
sS'money'
p3443
L0L
sS'last_login'
p3444
S'2013-12-28T16:03:55+00:00'
p3445
sS'exp'
p3446
L0L
sS'gmail'
p3447
Vpreferire@gmail.com
p3448
sS'id'
p3449
L8L
sS'date_joined'
p3450
S'2013-12-19T07:41:15+00:00'
p3451
ssba(iutil.request_logging
SimpleRequest
p3452
(dp3453
g3
g4
(g5
g6
Ntp3454
Rp3455
(dp3456
g10
(g4
(g11
g12
(dp3457
Vtid
p3458
(lp3459
V2
p3460
asVhasnum
p3461
(lp3462
V86
p3463
astp3464
Rp3465
(dp3466
g23
S'utf-8'
p3467
sg25
(dp3468
g3458
g3459
sg3461
g3462
ssS'_mutable'
p3469
I00
sbg4
(g11
g12
(dp3470
tp3471
Rp3472
(dp3473
S'_encoding'
p3474
g3467
sg25
(dp3475
sg3469
I00
sbtp3476
sbsg35
(dp3477
S'screen_name'
p3478
V\u51a8\u7530\u88d5\u5b50
p3479
sS'money'
p3480
L0L
sS'last_login'
p3481
S'2013-12-28T16:03:55+00:00'
p3482
sS'exp'
p3483
L0L
sS'date_joined'
p3484
S'2013-12-19T07:41:15+00:00'
p3485
sS'id'
p3486
L8L
sS'gmail'
p3487
Vpreferire@gmail.com
p3488
ssba(iutil.request_logging
SimpleRequest
p3489
(dp3490
g3
g4
(g5
g6
Ntp3491
Rp3492
(dp3493
g10
(g4
(g11
g12
(dp3494
Vtid
p3495
(lp3496
V3
p3497
asVhasnum
p3498
(lp3499
V87
p3500
astp3501
Rp3502
(dp3503
g23
S'utf-8'
p3504
sg25
(dp3505
g3495
g3496
sg3498
g3499
ssS'_mutable'
p3506
I00
sbg4
(g11
g12
(dp3507
tp3508
Rp3509
(dp3510
S'_encoding'
p3511
g3504
sg25
(dp3512
sg3506
I00
sbtp3513
sbsg35
(dp3514
S'screen_name'
p3515
V\u51a8\u7530\u88d5\u5b50
p3516
sS'money'
p3517
L0L
sS'last_login'
p3518
S'2013-12-28T16:03:55+00:00'
p3519
sS'exp'
p3520
L0L
sS'gmail'
p3521
Vpreferire@gmail.com
p3522
sS'id'
p3523
L8L
sS'date_joined'
p3524
S'2013-12-19T07:41:15+00:00'
p3525
ssba(iutil.request_logging
SimpleRequest
p3526
(dp3527
g3
g4
(g5
g6
Ntp3528
Rp3529
(dp3530
g10
(g4
(g11
g12
(dp3531
Vtid
p3532
(lp3533
V4
p3534
asVhasnum
p3535
(lp3536
V2
p3537
astp3538
Rp3539
(dp3540
g23
S'utf-8'
p3541
sg25
(dp3542
g3532
g3533
sg3535
g3536
ssS'_mutable'
p3543
I00
sbg4
(g11
g12
(dp3544
tp3545
Rp3546
(dp3547
S'_encoding'
p3548
g3541
sg25
(dp3549
sg3543
I00
sbtp3550
sbsg35
(dp3551
S'screen_name'
p3552
V\u51a8\u7530\u88d5\u5b50
p3553
sS'money'
p3554
L0L
sS'last_login'
p3555
S'2013-12-28T16:03:55+00:00'
p3556
sS'exp'
p3557
L0L
sS'date_joined'
p3558
S'2013-12-19T07:41:15+00:00'
p3559
sS'id'
p3560
L8L
sS'gmail'
p3561
Vpreferire@gmail.com
p3562
ssba(iutil.request_logging
SimpleRequest
p3563
(dp3564
g3
g4
(g5
g6
Ntp3565
Rp3566
(dp3567
g10
(g4
(g11
g12
(dp3568
Vtid
p3569
(lp3570
V12
p3571
asVhasnum
p3572
(lp3573
V4
p3574
astp3575
Rp3576
(dp3577
g23
S'utf-8'
p3578
sg25
(dp3579
g3569
g3570
sg3572
g3573
ssS'_mutable'
p3580
I00
sbg4
(g11
g12
(dp3581
tp3582
Rp3583
(dp3584
S'_encoding'
p3585
g3578
sg25
(dp3586
sg3580
I00
sbtp3587
sbsg35
(dp3588
S'screen_name'
p3589
V\u51a8\u7530\u88d5\u5b50
p3590
sS'money'
p3591
L0L
sS'last_login'
p3592
S'2013-12-28T16:03:55+00:00'
p3593
sS'exp'
p3594
L0L
sS'gmail'
p3595
Vpreferire@gmail.com
p3596
sS'id'
p3597
L8L
sS'date_joined'
p3598
S'2013-12-19T07:41:15+00:00'
p3599
ssba(iutil.request_logging
SimpleRequest
p3600
(dp3601
g3
g4
(g5
g6
Ntp3602
Rp3603
(dp3604
g10
(g4
(g11
g12
(dp3605
Vtid
p3606
(lp3607
V0
p3608
asVhasnum
p3609
(lp3610
V21
p3611
astp3612
Rp3613
(dp3614
g23
S'utf-8'
p3615
sg25
(dp3616
g3606
g3607
sg3609
g3610
ssS'_mutable'
p3617
I00
sbg4
(g11
g12
(dp3618
tp3619
Rp3620
(dp3621
S'_encoding'
p3622
g3615
sg25
(dp3623
sg3617
I00
sbtp3624
sbsg35
(dp3625
S'screen_name'
p3626
V\u51a8\u7530\u88d5\u5b50
p3627
sS'money'
p3628
L0L
sS'last_login'
p3629
S'2013-12-28T16:04:36+00:00'
p3630
sS'exp'
p3631
L0L
sS'date_joined'
p3632
S'2013-12-19T07:41:15+00:00'
p3633
sS'id'
p3634
L8L
sS'gmail'
p3635
Vpreferire@gmail.com
p3636
ssba(iutil.request_logging
SimpleRequest
p3637
(dp3638
g3
g4
(g5
g6
Ntp3639
Rp3640
(dp3641
g10
(g4
(g11
g12
(dp3642
Vtid
p3643
(lp3644
V1
p3645
asVhasnum
p3646
(lp3647
V0
p3648
astp3649
Rp3650
(dp3651
g23
S'utf-8'
p3652
sg25
(dp3653
g3643
g3644
sg3646
g3647
ssS'_mutable'
p3654
I00
sbg4
(g11
g12
(dp3655
tp3656
Rp3657
(dp3658
S'_encoding'
p3659
g3652
sg25
(dp3660
sg3654
I00
sbtp3661
sbsg35
(dp3662
S'screen_name'
p3663
V\u51a8\u7530\u88d5\u5b50
p3664
sS'money'
p3665
L0L
sS'last_login'
p3666
S'2013-12-28T16:04:36+00:00'
p3667
sS'exp'
p3668
L0L
sS'gmail'
p3669
Vpreferire@gmail.com
p3670
sS'id'
p3671
L8L
sS'date_joined'
p3672
S'2013-12-19T07:41:15+00:00'
p3673
ssba(iutil.request_logging
SimpleRequest
p3674
(dp3675
g3
g4
(g5
g6
Ntp3676
Rp3677
(dp3678
g10
(g4
(g11
g12
(dp3679
Vtid
p3680
(lp3681
V2
p3682
asVhasnum
p3683
(lp3684
V76
p3685
astp3686
Rp3687
(dp3688
g23
S'utf-8'
p3689
sg25
(dp3690
g3680
g3681
sg3683
g3684
ssS'_mutable'
p3691
I00
sbg4
(g11
g12
(dp3692
tp3693
Rp3694
(dp3695
S'_encoding'
p3696
g3689
sg25
(dp3697
sg3691
I00
sbtp3698
sbsg35
(dp3699
S'screen_name'
p3700
V\u51a8\u7530\u88d5\u5b50
p3701
sS'money'
p3702
L0L
sS'last_login'
p3703
S'2013-12-28T16:04:36+00:00'
p3704
sS'exp'
p3705
L0L
sS'date_joined'
p3706
S'2013-12-19T07:41:15+00:00'
p3707
sS'id'
p3708
L8L
sS'gmail'
p3709
Vpreferire@gmail.com
p3710
ssba(iutil.request_logging
SimpleRequest
p3711
(dp3712
g3
g4
(g5
g6
Ntp3713
Rp3714
(dp3715
g10
(g4
(g11
g12
(dp3716
Vtid
p3717
(lp3718
V3
p3719
asVhasnum
p3720
(lp3721
V87
p3722
astp3723
Rp3724
(dp3725
g23
S'utf-8'
p3726
sg25
(dp3727
g3717
g3718
sg3720
g3721
ssS'_mutable'
p3728
I00
sbg4
(g11
g12
(dp3729
tp3730
Rp3731
(dp3732
S'_encoding'
p3733
g3726
sg25
(dp3734
sg3728
I00
sbtp3735
sbsg35
(dp3736
S'screen_name'
p3737
V\u51a8\u7530\u88d5\u5b50
p3738
sS'money'
p3739
L0L
sS'last_login'
p3740
S'2013-12-28T16:04:36+00:00'
p3741
sS'exp'
p3742
L0L
sS'gmail'
p3743
Vpreferire@gmail.com
p3744
sS'id'
p3745
L8L
sS'date_joined'
p3746
S'2013-12-19T07:41:15+00:00'
p3747
ssba(iutil.request_logging
SimpleRequest
p3748
(dp3749
g3
g4
(g5
g6
Ntp3750
Rp3751
(dp3752
g10
(g4
(g11
g12
(dp3753
Vtid
p3754
(lp3755
V4
p3756
asVhasnum
p3757
(lp3758
V2
p3759
astp3760
Rp3761
(dp3762
g23
S'utf-8'
p3763
sg25
(dp3764
g3754
g3755
sg3757
g3758
ssS'_mutable'
p3765
I00
sbg4
(g11
g12
(dp3766
tp3767
Rp3768
(dp3769
S'_encoding'
p3770
g3763
sg25
(dp3771
sg3765
I00
sbtp3772
sbsg35
(dp3773
S'screen_name'
p3774
V\u51a8\u7530\u88d5\u5b50
p3775
sS'money'
p3776
L0L
sS'last_login'
p3777
S'2013-12-28T16:04:36+00:00'
p3778
sS'exp'
p3779
L0L
sS'date_joined'
p3780
S'2013-12-19T07:41:15+00:00'
p3781
sS'id'
p3782
L8L
sS'gmail'
p3783
Vpreferire@gmail.com
p3784
ssba(iutil.request_logging
SimpleRequest
p3785
(dp3786
g3
g4
(g5
g6
Ntp3787
Rp3788
(dp3789
g10
(g4
(g11
g12
(dp3790
Vtid
p3791
(lp3792
V12
p3793
asVhasnum
p3794
(lp3795
V4
p3796
astp3797
Rp3798
(dp3799
g23
S'utf-8'
p3800
sg25
(dp3801
g3791
g3792
sg3794
g3795
ssS'_mutable'
p3802
I00
sbg4
(g11
g12
(dp3803
tp3804
Rp3805
(dp3806
S'_encoding'
p3807
g3800
sg25
(dp3808
sg3802
I00
sbtp3809
sbsg35
(dp3810
S'screen_name'
p3811
V\u51a8\u7530\u88d5\u5b50
p3812
sS'money'
p3813
L0L
sS'last_login'
p3814
S'2013-12-28T16:04:36+00:00'
p3815
sS'exp'
p3816
L0L
sS'gmail'
p3817
Vpreferire@gmail.com
p3818
sS'id'
p3819
L8L
sS'date_joined'
p3820
S'2013-12-19T07:41:15+00:00'
p3821
ssba(iutil.request_logging
SimpleRequest
p3822
(dp3823
g3
g4
(g5
g6
Ntp3824
Rp3825
(dp3826
g10
(g4
(g11
g12
(dp3827
Vtid
p3828
(lp3829
V0
p3830
asVhasnum
p3831
(lp3832
V71
p3833
astp3834
Rp3835
(dp3836
g23
S'utf-8'
p3837
sg25
(dp3838
g3828
g3829
sg3831
g3832
ssS'_mutable'
p3839
I00
sbg4
(g11
g12
(dp3840
tp3841
Rp3842
(dp3843
S'_encoding'
p3844
g3837
sg25
(dp3845
sg3839
I00
sbtp3846
sbsg35
(dp3847
S'screen_name'
p3848
Vkan.webmail@gmail.com
p3849
sS'money'
p3850
L0L
sS'last_login'
p3851
S'2013-12-28T16:04:50+00:00'
p3852
sS'exp'
p3853
L0L
sS'date_joined'
p3854
S'2013-12-24T10:26:53+00:00'
p3855
sS'id'
p3856
L12L
sS'gmail'
p3857
Vkan.webmail@gmail.com
p3858
ssba(iutil.request_logging
SimpleRequest
p3859
(dp3860
g3
g4
(g5
g6
Ntp3861
Rp3862
(dp3863
g10
(g4
(g11
g12
(dp3864
Vtid
p3865
(lp3866
V1
p3867
asVhasnum
p3868
(lp3869
V12
p3870
astp3871
Rp3872
(dp3873
g23
S'utf-8'
p3874
sg25
(dp3875
g3865
g3866
sg3868
g3869
ssS'_mutable'
p3876
I00
sbg4
(g11
g12
(dp3877
tp3878
Rp3879
(dp3880
S'_encoding'
p3881
g3874
sg25
(dp3882
sg3876
I00
sbtp3883
sbsg35
(dp3884
S'screen_name'
p3885
Vkan.webmail@gmail.com
p3886
sS'money'
p3887
L0L
sS'last_login'
p3888
S'2013-12-28T16:04:50+00:00'
p3889
sS'exp'
p3890
L0L
sS'gmail'
p3891
Vkan.webmail@gmail.com
p3892
sS'id'
p3893
L12L
sS'date_joined'
p3894
S'2013-12-24T10:26:53+00:00'
p3895
ssba(iutil.request_logging
SimpleRequest
p3896
(dp3897
g3
g4
(g5
g6
Ntp3898
Rp3899
(dp3900
g10
(g4
(g11
g12
(dp3901
Vtid
p3902
(lp3903
V2
p3904
asVhasnum
p3905
(lp3906
V33
p3907
astp3908
Rp3909
(dp3910
g23
S'utf-8'
p3911
sg25
(dp3912
g3902
g3903
sg3905
g3906
ssS'_mutable'
p3913
I00
sbg4
(g11
g12
(dp3914
tp3915
Rp3916
(dp3917
S'_encoding'
p3918
g3911
sg25
(dp3919
sg3913
I00
sbtp3920
sbsg35
(dp3921
S'screen_name'
p3922
Vkan.webmail@gmail.com
p3923
sS'money'
p3924
L0L
sS'last_login'
p3925
S'2013-12-28T16:04:50+00:00'
p3926
sS'exp'
p3927
L0L
sS'date_joined'
p3928
S'2013-12-24T10:26:53+00:00'
p3929
sS'id'
p3930
L12L
sS'gmail'
p3931
Vkan.webmail@gmail.com
p3932
ssba(iutil.request_logging
SimpleRequest
p3933
(dp3934
g3
g4
(g5
g6
Ntp3935
Rp3936
(dp3937
g10
(g4
(g11
g12
(dp3938
Vtid
p3939
(lp3940
V3
p3941
asVhasnum
p3942
(lp3943
V26
p3944
astp3945
Rp3946
(dp3947
g23
S'utf-8'
p3948
sg25
(dp3949
g3939
g3940
sg3942
g3943
ssS'_mutable'
p3950
I00
sbg4
(g11
g12
(dp3951
tp3952
Rp3953
(dp3954
S'_encoding'
p3955
g3948
sg25
(dp3956
sg3950
I00
sbtp3957
sbsg35
(dp3958
S'screen_name'
p3959
Vkan.webmail@gmail.com
p3960
sS'money'
p3961
L0L
sS'last_login'
p3962
S'2013-12-28T16:04:50+00:00'
p3963
sS'exp'
p3964
L0L
sS'gmail'
p3965
Vkan.webmail@gmail.com
p3966
sS'id'
p3967
L12L
sS'date_joined'
p3968
S'2013-12-24T10:26:53+00:00'
p3969
ssba(iutil.request_logging
SimpleRequest
p3970
(dp3971
g3
g4
(g5
g6
Ntp3972
Rp3973
(dp3974
g10
(g4
(g11
g12
(dp3975
Vtid
p3976
(lp3977
V4
p3978
asVhasnum
p3979
(lp3980
V3
p3981
astp3982
Rp3983
(dp3984
g23
S'utf-8'
p3985
sg25
(dp3986
g3976
g3977
sg3979
g3980
ssS'_mutable'
p3987
I00
sbg4
(g11
g12
(dp3988
tp3989
Rp3990
(dp3991
S'_encoding'
p3992
g3985
sg25
(dp3993
sg3987
I00
sbtp3994
sbsg35
(dp3995
S'screen_name'
p3996
Vkan.webmail@gmail.com
p3997
sS'money'
p3998
L0L
sS'last_login'
p3999
S'2013-12-28T16:04:50+00:00'
p4000
sS'exp'
p4001
L0L
sS'date_joined'
p4002
S'2013-12-24T10:26:53+00:00'
p4003
sS'id'
p4004
L12L
sS'gmail'
p4005
Vkan.webmail@gmail.com
p4006
ssba(iutil.request_logging
SimpleRequest
p4007
(dp4008
g3
g4
(g5
g6
Ntp4009
Rp4010
(dp4011
g10
(g4
(g11
g12
(dp4012
Vtid
p4013
(lp4014
V0
p4015
asVhasnum
p4016
(lp4017
V16
p4018
astp4019
Rp4020
(dp4021
g23
S'utf-8'
p4022
sg25
(dp4023
g4013
g4014
sg4016
g4017
ssS'_mutable'
p4024
I00
sbg4
(g11
g12
(dp4025
tp4026
Rp4027
(dp4028
S'_encoding'
p4029
g4022
sg25
(dp4030
sg4024
I00
sbtp4031
sbsg35
(dp4032
S'screen_name'
p4033
V\u51a8\u7530\u88d5\u5b50
p4034
sS'money'
p4035
L0L
sS'last_login'
p4036
S'2013-12-28T16:05:02+00:00'
p4037
sS'exp'
p4038
L0L
sS'gmail'
p4039
Vpreferire@gmail.com
p4040
sS'id'
p4041
L8L
sS'date_joined'
p4042
S'2013-12-19T07:41:15+00:00'
p4043
ssba(iutil.request_logging
SimpleRequest
p4044
(dp4045
g3
g4
(g5
g6
Ntp4046
Rp4047
(dp4048
g10
(g4
(g11
g12
(dp4049
Vtid
p4050
(lp4051
V1
p4052
asVhasnum
p4053
(lp4054
V0
p4055
astp4056
Rp4057
(dp4058
g23
S'utf-8'
p4059
sg25
(dp4060
g4050
g4051
sg4053
g4054
ssS'_mutable'
p4061
I00
sbg4
(g11
g12
(dp4062
tp4063
Rp4064
(dp4065
S'_encoding'
p4066
g4059
sg25
(dp4067
sg4061
I00
sbtp4068
sbsg35
(dp4069
S'screen_name'
p4070
V\u51a8\u7530\u88d5\u5b50
p4071
sS'money'
p4072
L0L
sS'last_login'
p4073
S'2013-12-28T16:05:02+00:00'
p4074
sS'exp'
p4075
L0L
sS'date_joined'
p4076
S'2013-12-19T07:41:15+00:00'
p4077
sS'id'
p4078
L8L
sS'gmail'
p4079
Vpreferire@gmail.com
p4080
ssba(iutil.request_logging
SimpleRequest
p4081
(dp4082
g3
g4
(g5
g6
Ntp4083
Rp4084
(dp4085
g10
(g4
(g11
g12
(dp4086
Vtid
p4087
(lp4088
V2
p4089
asVhasnum
p4090
(lp4091
V76
p4092
astp4093
Rp4094
(dp4095
g23
S'utf-8'
p4096
sg25
(dp4097
g4087
g4088
sg4090
g4091
ssS'_mutable'
p4098
I00
sbg4
(g11
g12
(dp4099
tp4100
Rp4101
(dp4102
S'_encoding'
p4103
g4096
sg25
(dp4104
sg4098
I00
sbtp4105
sbsg35
(dp4106
S'screen_name'
p4107
V\u51a8\u7530\u88d5\u5b50
p4108
sS'money'
p4109
L0L
sS'last_login'
p4110
S'2013-12-28T16:05:02+00:00'
p4111
sS'exp'
p4112
L0L
sS'gmail'
p4113
Vpreferire@gmail.com
p4114
sS'id'
p4115
L8L
sS'date_joined'
p4116
S'2013-12-19T07:41:15+00:00'
p4117
ssba(iutil.request_logging
SimpleRequest
p4118
(dp4119
g3
g4
(g5
g6
Ntp4120
Rp4121
(dp4122
g10
(g4
(g11
g12
(dp4123
Vtid
p4124
(lp4125
V0
p4126
asVhasnum
p4127
(lp4128
V4
p4129
astp4130
Rp4131
(dp4132
g23
S'utf-8'
p4133
sg25
(dp4134
g4124
g4125
sg4127
g4128
ssS'_mutable'
p4135
I00
sbg4
(g11
g12
(dp4136
tp4137
Rp4138
(dp4139
S'_encoding'
p4140
g4133
sg25
(dp4141
sg4135
I00
sbtp4142
sbsg35
(dp4143
S'screen_name'
p4144
Vkan.webmail@gmail.com
p4145
sS'money'
p4146
L0L
sS'last_login'
p4147
S'2013-12-28T16:04:50+00:00'
p4148
sS'exp'
p4149
L0L
sS'date_joined'
p4150
S'2013-12-24T10:26:53+00:00'
p4151
sS'id'
p4152
L12L
sS'gmail'
p4153
Vkan.webmail@gmail.com
p4154
ssba(iutil.request_logging
SimpleRequest
p4155
(dp4156
g3
g4
(g5
g6
Ntp4157
Rp4158
(dp4159
g10
(g4
(g11
g12
(dp4160
Vtid
p4161
(lp4162
V3
p4163
asVhasnum
p4164
(lp4165
V87
p4166
astp4167
Rp4168
(dp4169
g23
S'utf-8'
p4170
sg25
(dp4171
g4161
g4162
sg4164
g4165
ssS'_mutable'
p4172
I00
sbg4
(g11
g12
(dp4173
tp4174
Rp4175
(dp4176
S'_encoding'
p4177
g4170
sg25
(dp4178
sg4172
I00
sbtp4179
sbsg35
(dp4180
S'screen_name'
p4181
V\u51a8\u7530\u88d5\u5b50
p4182
sS'money'
p4183
L0L
sS'last_login'
p4184
S'2013-12-28T16:05:02+00:00'
p4185
sS'exp'
p4186
L0L
sS'gmail'
p4187
Vpreferire@gmail.com
p4188
sS'id'
p4189
L8L
sS'date_joined'
p4190
S'2013-12-19T07:41:15+00:00'
p4191
ssba(iutil.request_logging
SimpleRequest
p4192
(dp4193
g3
g4
(g5
g6
Ntp4194
Rp4195
(dp4196
g10
(g4
(g11
g12
(dp4197
Vtid
p4198
(lp4199
V4
p4200
asVhasnum
p4201
(lp4202
V2
p4203
astp4204
Rp4205
(dp4206
g23
S'utf-8'
p4207
sg25
(dp4208
g4198
g4199
sg4201
g4202
ssS'_mutable'
p4209
I00
sbg4
(g11
g12
(dp4210
tp4211
Rp4212
(dp4213
S'_encoding'
p4214
g4207
sg25
(dp4215
sg4209
I00
sbtp4216
sbsg35
(dp4217
S'screen_name'
p4218
V\u51a8\u7530\u88d5\u5b50
p4219
sS'money'
p4220
L0L
sS'last_login'
p4221
S'2013-12-28T16:05:02+00:00'
p4222
sS'exp'
p4223
L0L
sS'date_joined'
p4224
S'2013-12-19T07:41:15+00:00'
p4225
sS'id'
p4226
L8L
sS'gmail'
p4227
Vpreferire@gmail.com
p4228
ssba(iutil.request_logging
SimpleRequest
p4229
(dp4230
g3
g4
(g5
g6
Ntp4231
Rp4232
(dp4233
g10
(g4
(g11
g12
(dp4234
Vtid
p4235
(lp4236
V0
p4237
asVhasnum
p4238
(lp4239
V126
p4240
astp4241
Rp4242
(dp4243
g23
S'utf-8'
p4244
sg25
(dp4245
g4235
g4236
sg4238
g4239
ssS'_mutable'
p4246
I00
sbg4
(g11
g12
(dp4247
tp4248
Rp4249
(dp4250
S'_encoding'
p4251
g4244
sg25
(dp4252
sg4246
I00
sbtp4253
sbsg35
(dp4254
S'screen_name'
p4255
Vkan.webmail@gmail.com
p4256
sS'money'
p4257
L0L
sS'last_login'
p4258
S'2013-12-28T16:05:15+00:00'
p4259
sS'exp'
p4260
L0L
sS'gmail'
p4261
Vkan.webmail@gmail.com
p4262
sS'id'
p4263
L12L
sS'date_joined'
p4264
S'2013-12-24T10:26:53+00:00'
p4265
ssba(iutil.request_logging
SimpleRequest
p4266
(dp4267
g3
g4
(g5
g6
Ntp4268
Rp4269
(dp4270
g10
(g4
(g11
g12
(dp4271
Vtid
p4272
(lp4273
V1
p4274
asVhasnum
p4275
(lp4276
V12
p4277
astp4278
Rp4279
(dp4280
g23
S'utf-8'
p4281
sg25
(dp4282
g4272
g4273
sg4275
g4276
ssS'_mutable'
p4283
I00
sbg4
(g11
g12
(dp4284
tp4285
Rp4286
(dp4287
S'_encoding'
p4288
g4281
sg25
(dp4289
sg4283
I00
sbtp4290
sbsg35
(dp4291
S'screen_name'
p4292
Vkan.webmail@gmail.com
p4293
sS'money'
p4294
L0L
sS'last_login'
p4295
S'2013-12-28T16:05:15+00:00'
p4296
sS'exp'
p4297
L0L
sS'date_joined'
p4298
S'2013-12-24T10:26:53+00:00'
p4299
sS'id'
p4300
L12L
sS'gmail'
p4301
Vkan.webmail@gmail.com
p4302
ssba(iutil.request_logging
SimpleRequest
p4303
(dp4304
g3
g4
(g5
g6
Ntp4305
Rp4306
(dp4307
g10
(g4
(g11
g12
(dp4308
Vtid
p4309
(lp4310
V2
p4311
asVhasnum
p4312
(lp4313
V33
p4314
astp4315
Rp4316
(dp4317
g23
S'utf-8'
p4318
sg25
(dp4319
g4309
g4310
sg4312
g4313
ssS'_mutable'
p4320
I00
sbg4
(g11
g12
(dp4321
tp4322
Rp4323
(dp4324
S'_encoding'
p4325
g4318
sg25
(dp4326
sg4320
I00
sbtp4327
sbsg35
(dp4328
S'screen_name'
p4329
Vkan.webmail@gmail.com
p4330
sS'money'
p4331
L0L
sS'last_login'
p4332
S'2013-12-28T16:05:15+00:00'
p4333
sS'exp'
p4334
L0L
sS'gmail'
p4335
Vkan.webmail@gmail.com
p4336
sS'id'
p4337
L12L
sS'date_joined'
p4338
S'2013-12-24T10:26:53+00:00'
p4339
ssba(iutil.request_logging
SimpleRequest
p4340
(dp4341
g3
g4
(g5
g6
Ntp4342
Rp4343
(dp4344
g10
(g4
(g11
g12
(dp4345
Vtid
p4346
(lp4347
V3
p4348
asVhasnum
p4349
(lp4350
V26
p4351
astp4352
Rp4353
(dp4354
g23
S'utf-8'
p4355
sg25
(dp4356
g4346
g4347
sg4349
g4350
ssS'_mutable'
p4357
I00
sbg4
(g11
g12
(dp4358
tp4359
Rp4360
(dp4361
S'_encoding'
p4362
g4355
sg25
(dp4363
sg4357
I00
sbtp4364
sbsg35
(dp4365
S'screen_name'
p4366
Vkan.webmail@gmail.com
p4367
sS'money'
p4368
L0L
sS'last_login'
p4369
S'2013-12-28T16:05:15+00:00'
p4370
sS'exp'
p4371
L0L
sS'date_joined'
p4372
S'2013-12-24T10:26:53+00:00'
p4373
sS'id'
p4374
L12L
sS'gmail'
p4375
Vkan.webmail@gmail.com
p4376
ssba(iutil.request_logging
SimpleRequest
p4377
(dp4378
g3
g4
(g5
g6
Ntp4379
Rp4380
(dp4381
g10
(g4
(g11
g12
(dp4382
Vtid
p4383
(lp4384
V4
p4385
asVhasnum
p4386
(lp4387
V3
p4388
astp4389
Rp4390
(dp4391
g23
S'utf-8'
p4392
sg25
(dp4393
g4383
g4384
sg4386
g4387
ssS'_mutable'
p4394
I00
sbg4
(g11
g12
(dp4395
tp4396
Rp4397
(dp4398
S'_encoding'
p4399
g4392
sg25
(dp4400
sg4394
I00
sbtp4401
sbsg35
(dp4402
S'screen_name'
p4403
Vkan.webmail@gmail.com
p4404
sS'money'
p4405
L0L
sS'last_login'
p4406
S'2013-12-28T16:05:15+00:00'
p4407
sS'exp'
p4408
L0L
sS'gmail'
p4409
Vkan.webmail@gmail.com
p4410
sS'id'
p4411
L12L
sS'date_joined'
p4412
S'2013-12-24T10:26:53+00:00'
p4413
ssba(iutil.request_logging
SimpleRequest
p4414
(dp4415
g3
g4
(g5
g6
Ntp4416
Rp4417
(dp4418
g10
(g4
(g11
g12
(dp4419
Vtid
p4420
(lp4421
V12
p4422
asVhasnum
p4423
(lp4424
V4
p4425
astp4426
Rp4427
(dp4428
g23
S'utf-8'
p4429
sg25
(dp4430
g4420
g4421
sg4423
g4424
ssS'_mutable'
p4431
I00
sbg4
(g11
g12
(dp4432
tp4433
Rp4434
(dp4435
S'_encoding'
p4436
g4429
sg25
(dp4437
sg4431
I00
sbtp4438
sbsg35
(dp4439
S'screen_name'
p4440
V\u51a8\u7530\u88d5\u5b50
p4441
sS'money'
p4442
L0L
sS'last_login'
p4443
S'2013-12-28T16:05:02+00:00'
p4444
sS'exp'
p4445
L0L
sS'date_joined'
p4446
S'2013-12-19T07:41:15+00:00'
p4447
sS'id'
p4448
L8L
sS'gmail'
p4449
Vpreferire@gmail.com
p4450
ssba(iutil.request_logging
SimpleRequest
p4451
(dp4452
g3
g4
(g5
g6
Ntp4453
Rp4454
(dp4455
g10
(g4
(g11
g12
(dp4456
Vtid
p4457
(lp4458
V0
p4459
asVhasnum
p4460
(lp4461
V1
p4462
astp4463
Rp4464
(dp4465
g23
S'utf-8'
p4466
sg25
(dp4467
g4457
g4458
sg4460
g4461
ssS'_mutable'
p4468
I00
sbg4
(g11
g12
(dp4469
tp4470
Rp4471
(dp4472
S'_encoding'
p4473
g4466
sg25
(dp4474
sg4468
I00
sbtp4475
sbsg35
(dp4476
S'screen_name'
p4477
V\u51a8\u7530\u88d5\u5b50
p4478
sS'money'
p4479
L0L
sS'last_login'
p4480
S'2013-12-28T16:05:02+00:00'
p4481
sS'exp'
p4482
L0L
sS'gmail'
p4483
Vpreferire@gmail.com
p4484
sS'id'
p4485
L8L
sS'date_joined'
p4486
S'2013-12-19T07:41:15+00:00'
p4487
ssba(iutil.request_logging
SimpleRequest
p4488
(dp4489
g3
g4
(g5
g6
Ntp4490
Rp4491
(dp4492
g10
(g4
(g11
g12
(dp4493
Vtid
p4494
(lp4495
V0
p4496
asVhasnum
p4497
(lp4498
V16
p4499
astp4500
Rp4501
(dp4502
g23
S'utf-8'
p4503
sg25
(dp4504
g4494
g4495
sg4497
g4498
ssS'_mutable'
p4505
I00
sbg4
(g11
g12
(dp4506
tp4507
Rp4508
(dp4509
S'_encoding'
p4510
g4503
sg25
(dp4511
sg4505
I00
sbtp4512
sbsg35
(dp4513
S'screen_name'
p4514
V\u51a8\u7530\u88d5\u5b50
p4515
sS'money'
p4516
L0L
sS'last_login'
p4517
S'2013-12-28T16:05:36+00:00'
p4518
sS'exp'
p4519
L0L
sS'date_joined'
p4520
S'2013-12-19T07:41:15+00:00'
p4521
sS'id'
p4522
L8L
sS'gmail'
p4523
Vpreferire@gmail.com
p4524
ssba(iutil.request_logging
SimpleRequest
p4525
(dp4526
g3
g4
(g5
g6
Ntp4527
Rp4528
(dp4529
g10
(g4
(g11
g12
(dp4530
Vtid
p4531
(lp4532
V1
p4533
asVhasnum
p4534
(lp4535
V0
p4536
astp4537
Rp4538
(dp4539
g23
S'utf-8'
p4540
sg25
(dp4541
g4531
g4532
sg4534
g4535
ssS'_mutable'
p4542
I00
sbg4
(g11
g12
(dp4543
tp4544
Rp4545
(dp4546
S'_encoding'
p4547
g4540
sg25
(dp4548
sg4542
I00
sbtp4549
sbsg35
(dp4550
S'screen_name'
p4551
V\u51a8\u7530\u88d5\u5b50
p4552
sS'money'
p4553
L0L
sS'last_login'
p4554
S'2013-12-28T16:05:36+00:00'
p4555
sS'exp'
p4556
L0L
sS'gmail'
p4557
Vpreferire@gmail.com
p4558
sS'id'
p4559
L8L
sS'date_joined'
p4560
S'2013-12-19T07:41:15+00:00'
p4561
ssba(iutil.request_logging
SimpleRequest
p4562
(dp4563
g3
g4
(g5
g6
Ntp4564
Rp4565
(dp4566
g10
(g4
(g11
g12
(dp4567
Vtid
p4568
(lp4569
V2
p4570
asVhasnum
p4571
(lp4572
V80
p4573
astp4574
Rp4575
(dp4576
g23
S'utf-8'
p4577
sg25
(dp4578
g4568
g4569
sg4571
g4572
ssS'_mutable'
p4579
I00
sbg4
(g11
g12
(dp4580
tp4581
Rp4582
(dp4583
S'_encoding'
p4584
g4577
sg25
(dp4585
sg4579
I00
sbtp4586
sbsg35
(dp4587
S'screen_name'
p4588
V\u51a8\u7530\u88d5\u5b50
p4589
sS'money'
p4590
L0L
sS'last_login'
p4591
S'2013-12-28T16:05:36+00:00'
p4592
sS'exp'
p4593
L0L
sS'date_joined'
p4594
S'2013-12-19T07:41:15+00:00'
p4595
sS'id'
p4596
L8L
sS'gmail'
p4597
Vpreferire@gmail.com
p4598
ssba(iutil.request_logging
SimpleRequest
p4599
(dp4600
g3
g4
(g5
g6
Ntp4601
Rp4602
(dp4603
g10
(g4
(g11
g12
(dp4604
Vtid
p4605
(lp4606
V3
p4607
asVhasnum
p4608
(lp4609
V87
p4610
astp4611
Rp4612
(dp4613
g23
S'utf-8'
p4614
sg25
(dp4615
g4605
g4606
sg4608
g4609
ssS'_mutable'
p4616
I00
sbg4
(g11
g12
(dp4617
tp4618
Rp4619
(dp4620
S'_encoding'
p4621
g4614
sg25
(dp4622
sg4616
I00
sbtp4623
sbsg35
(dp4624
S'screen_name'
p4625
V\u51a8\u7530\u88d5\u5b50
p4626
sS'money'
p4627
L0L
sS'last_login'
p4628
S'2013-12-28T16:05:36+00:00'
p4629
sS'exp'
p4630
L0L
sS'gmail'
p4631
Vpreferire@gmail.com
p4632
sS'id'
p4633
L8L
sS'date_joined'
p4634
S'2013-12-19T07:41:15+00:00'
p4635
ssba(iutil.request_logging
SimpleRequest
p4636
(dp4637
g3
g4
(g5
g6
Ntp4638
Rp4639
(dp4640
g10
(g4
(g11
g12
(dp4641
Vtid
p4642
(lp4643
V4
p4644
asVhasnum
p4645
(lp4646
V2
p4647
astp4648
Rp4649
(dp4650
g23
S'utf-8'
p4651
sg25
(dp4652
g4642
g4643
sg4645
g4646
ssS'_mutable'
p4653
I00
sbg4
(g11
g12
(dp4654
tp4655
Rp4656
(dp4657
S'_encoding'
p4658
g4651
sg25
(dp4659
sg4653
I00
sbtp4660
sbsg35
(dp4661
S'screen_name'
p4662
V\u51a8\u7530\u88d5\u5b50
p4663
sS'money'
p4664
L0L
sS'last_login'
p4665
S'2013-12-28T16:05:36+00:00'
p4666
sS'exp'
p4667
L0L
sS'date_joined'
p4668
S'2013-12-19T07:41:15+00:00'
p4669
sS'id'
p4670
L8L
sS'gmail'
p4671
Vpreferire@gmail.com
p4672
ssba(iutil.request_logging
SimpleRequest
p4673
(dp4674
g3
g4
(g5
g6
Ntp4675
Rp4676
(dp4677
g10
(g4
(g11
g12
(dp4678
Vtid
p4679
(lp4680
V12
p4681
asVhasnum
p4682
(lp4683
V4
p4684
astp4685
Rp4686
(dp4687
g23
S'utf-8'
p4688
sg25
(dp4689
g4679
g4680
sg4682
g4683
ssS'_mutable'
p4690
I00
sbg4
(g11
g12
(dp4691
tp4692
Rp4693
(dp4694
S'_encoding'
p4695
g4688
sg25
(dp4696
sg4690
I00
sbtp4697
sbsg35
(dp4698
S'screen_name'
p4699
V\u51a8\u7530\u88d5\u5b50
p4700
sS'money'
p4701
L0L
sS'last_login'
p4702
S'2013-12-28T16:05:36+00:00'
p4703
sS'exp'
p4704
L0L
sS'gmail'
p4705
Vpreferire@gmail.com
p4706
sS'id'
p4707
L8L
sS'date_joined'
p4708
S'2013-12-19T07:41:15+00:00'
p4709
ssba(iutil.request_logging
SimpleRequest
p4710
(dp4711
g3
g4
(g5
g6
Ntp4712
Rp4713
(dp4714
g10
(g4
(g11
g12
(dp4715
Vtid
p4716
(lp4717
V0
p4718
asVhasnum
p4719
(lp4720
V75
p4721
astp4722
Rp4723
(dp4724
g23
S'utf-8'
p4725
sg25
(dp4726
g4716
g4717
sg4719
g4720
ssS'_mutable'
p4727
I00
sbg4
(g11
g12
(dp4728
tp4729
Rp4730
(dp4731
S'_encoding'
p4732
g4725
sg25
(dp4733
sg4727
I00
sbtp4734
sbsg35
(dp4735
S'screen_name'
p4736
Vkan.webmail@gmail.com
p4737
sS'money'
p4738
L0L
sS'last_login'
p4739
S'2013-12-28T16:05:54+00:00'
p4740
sS'exp'
p4741
L0L
sS'date_joined'
p4742
S'2013-12-24T10:26:53+00:00'
p4743
sS'id'
p4744
L12L
sS'gmail'
p4745
Vkan.webmail@gmail.com
p4746
ssba(iutil.request_logging
SimpleRequest
p4747
(dp4748
g3
g4
(g5
g6
Ntp4749
Rp4750
(dp4751
g10
(g4
(g11
g12
(dp4752
Vtid
p4753
(lp4754
V1
p4755
asVhasnum
p4756
(lp4757
V12
p4758
astp4759
Rp4760
(dp4761
g23
S'utf-8'
p4762
sg25
(dp4763
g4753
g4754
sg4756
g4757
ssS'_mutable'
p4764
I00
sbg4
(g11
g12
(dp4765
tp4766
Rp4767
(dp4768
S'_encoding'
p4769
g4762
sg25
(dp4770
sg4764
I00
sbtp4771
sbsg35
(dp4772
S'screen_name'
p4773
Vkan.webmail@gmail.com
p4774
sS'money'
p4775
L0L
sS'last_login'
p4776
S'2013-12-28T16:05:54+00:00'
p4777
sS'exp'
p4778
L0L
sS'gmail'
p4779
Vkan.webmail@gmail.com
p4780
sS'id'
p4781
L12L
sS'date_joined'
p4782
S'2013-12-24T10:26:53+00:00'
p4783
ssba(iutil.request_logging
SimpleRequest
p4784
(dp4785
g3
g4
(g5
g6
Ntp4786
Rp4787
(dp4788
g10
(g4
(g11
g12
(dp4789
Vtid
p4790
(lp4791
V2
p4792
asVhasnum
p4793
(lp4794
V33
p4795
astp4796
Rp4797
(dp4798
g23
S'utf-8'
p4799
sg25
(dp4800
g4790
g4791
sg4793
g4794
ssS'_mutable'
p4801
I00
sbg4
(g11
g12
(dp4802
tp4803
Rp4804
(dp4805
S'_encoding'
p4806
g4799
sg25
(dp4807
sg4801
I00
sbtp4808
sbsg35
(dp4809
S'screen_name'
p4810
Vkan.webmail@gmail.com
p4811
sS'money'
p4812
L0L
sS'last_login'
p4813
S'2013-12-28T16:05:54+00:00'
p4814
sS'exp'
p4815
L0L
sS'date_joined'
p4816
S'2013-12-24T10:26:53+00:00'
p4817
sS'id'
p4818
L12L
sS'gmail'
p4819
Vkan.webmail@gmail.com
p4820
ssba(iutil.request_logging
SimpleRequest
p4821
(dp4822
g3
g4
(g5
g6
Ntp4823
Rp4824
(dp4825
g10
(g4
(g11
g12
(dp4826
Vtid
p4827
(lp4828
V3
p4829
asVhasnum
p4830
(lp4831
V26
p4832
astp4833
Rp4834
(dp4835
g23
S'utf-8'
p4836
sg25
(dp4837
g4827
g4828
sg4830
g4831
ssS'_mutable'
p4838
I00
sbg4
(g11
g12
(dp4839
tp4840
Rp4841
(dp4842
S'_encoding'
p4843
g4836
sg25
(dp4844
sg4838
I00
sbtp4845
sbsg35
(dp4846
S'screen_name'
p4847
Vkan.webmail@gmail.com
p4848
sS'money'
p4849
L0L
sS'last_login'
p4850
S'2013-12-28T16:05:54+00:00'
p4851
sS'exp'
p4852
L0L
sS'gmail'
p4853
Vkan.webmail@gmail.com
p4854
sS'id'
p4855
L12L
sS'date_joined'
p4856
S'2013-12-24T10:26:53+00:00'
p4857
ssba(iutil.request_logging
SimpleRequest
p4858
(dp4859
g3
g4
(g5
g6
Ntp4860
Rp4861
(dp4862
g10
(g4
(g11
g12
(dp4863
Vtid
p4864
(lp4865
V4
p4866
asVhasnum
p4867
(lp4868
V3
p4869
astp4870
Rp4871
(dp4872
g23
S'utf-8'
p4873
sg25
(dp4874
g4864
g4865
sg4867
g4868
ssS'_mutable'
p4875
I00
sbg4
(g11
g12
(dp4876
tp4877
Rp4878
(dp4879
S'_encoding'
p4880
g4873
sg25
(dp4881
sg4875
I00
sbtp4882
sbsg35
(dp4883
S'screen_name'
p4884
Vkan.webmail@gmail.com
p4885
sS'money'
p4886
L0L
sS'last_login'
p4887
S'2013-12-28T16:05:54+00:00'
p4888
sS'exp'
p4889
L0L
sS'date_joined'
p4890
S'2013-12-24T10:26:53+00:00'
p4891
sS'id'
p4892
L12L
sS'gmail'
p4893
Vkan.webmail@gmail.com
p4894
ssba(iutil.request_logging
SimpleRequest
p4895
(dp4896
g3
g4
(g5
g6
Ntp4897
Rp4898
(dp4899
g10
(g4
(g11
g12
(dp4900
Vtid
p4901
(lp4902
V0
p4903
asVhasnum
p4904
(lp4905
V1
p4906
astp4907
Rp4908
(dp4909
g23
S'utf-8'
p4910
sg25
(dp4911
g4901
g4902
sg4904
g4905
ssS'_mutable'
p4912
I00
sbg4
(g11
g12
(dp4913
tp4914
Rp4915
(dp4916
S'_encoding'
p4917
g4910
sg25
(dp4918
sg4912
I00
sbtp4919
sbsg35
(dp4920
S'screen_name'
p4921
V\u51a8\u7530\u88d5\u5b50
p4922
sS'money'
p4923
L0L
sS'last_login'
p4924
S'2013-12-28T16:05:36+00:00'
p4925
sS'exp'
p4926
L0L
sS'gmail'
p4927
Vpreferire@gmail.com
p4928
sS'id'
p4929
L8L
sS'date_joined'
p4930
S'2013-12-19T07:41:15+00:00'
p4931
ssba(iutil.request_logging
SimpleRequest
p4932
(dp4933
g3
g4
(g5
g6
Ntp4934
Rp4935
(dp4936
g10
(g4
(g11
g12
(dp4937
Vtid
p4938
(lp4939
V0
p4940
asVhasnum
p4941
(lp4942
V16
p4943
astp4944
Rp4945
(dp4946
g23
S'utf-8'
p4947
sg25
(dp4948
g4938
g4939
sg4941
g4942
ssS'_mutable'
p4949
I00
sbg4
(g11
g12
(dp4950
tp4951
Rp4952
(dp4953
S'_encoding'
p4954
g4947
sg25
(dp4955
sg4949
I00
sbtp4956
sbsg35
(dp4957
S'screen_name'
p4958
V\u51a8\u7530\u88d5\u5b50
p4959
sS'money'
p4960
L0L
sS'last_login'
p4961
S'2013-12-28T16:06:10+00:00'
p4962
sS'exp'
p4963
L0L
sS'date_joined'
p4964
S'2013-12-19T07:41:15+00:00'
p4965
sS'id'
p4966
L8L
sS'gmail'
p4967
Vpreferire@gmail.com
p4968
ssba(iutil.request_logging
SimpleRequest
p4969
(dp4970
g3
g4
(g5
g6
Ntp4971
Rp4972
(dp4973
g10
(g4
(g11
g12
(dp4974
Vtid
p4975
(lp4976
V1
p4977
asVhasnum
p4978
(lp4979
V0
p4980
astp4981
Rp4982
(dp4983
g23
S'utf-8'
p4984
sg25
(dp4985
g4975
g4976
sg4978
g4979
ssS'_mutable'
p4986
I00
sbg4
(g11
g12
(dp4987
tp4988
Rp4989
(dp4990
S'_encoding'
p4991
g4984
sg25
(dp4992
sg4986
I00
sbtp4993
sbsg35
(dp4994
S'screen_name'
p4995
V\u51a8\u7530\u88d5\u5b50
p4996
sS'money'
p4997
L0L
sS'last_login'
p4998
S'2013-12-28T16:06:10+00:00'
p4999
sS'exp'
p5000
L0L
sS'gmail'
p5001
Vpreferire@gmail.com
p5002
sS'id'
p5003
L8L
sS'date_joined'
p5004
S'2013-12-19T07:41:15+00:00'
p5005
ssba(iutil.request_logging
SimpleRequest
p5006
(dp5007
g3
g4
(g5
g6
Ntp5008
Rp5009
(dp5010
g10
(g4
(g11
g12
(dp5011
Vtid
p5012
(lp5013
V2
p5014
asVhasnum
p5015
(lp5016
V80
p5017
astp5018
Rp5019
(dp5020
g23
S'utf-8'
p5021
sg25
(dp5022
g5012
g5013
sg5015
g5016
ssS'_mutable'
p5023
I00
sbg4
(g11
g12
(dp5024
tp5025
Rp5026
(dp5027
S'_encoding'
p5028
g5021
sg25
(dp5029
sg5023
I00
sbtp5030
sbsg35
(dp5031
S'screen_name'
p5032
V\u51a8\u7530\u88d5\u5b50
p5033
sS'money'
p5034
L0L
sS'last_login'
p5035
S'2013-12-28T16:06:10+00:00'
p5036
sS'exp'
p5037
L0L
sS'date_joined'
p5038
S'2013-12-19T07:41:15+00:00'
p5039
sS'id'
p5040
L8L
sS'gmail'
p5041
Vpreferire@gmail.com
p5042
ssba(iutil.request_logging
SimpleRequest
p5043
(dp5044
g3
g4
(g5
g6
Ntp5045
Rp5046
(dp5047
g10
(g4
(g11
g12
(dp5048
Vtid
p5049
(lp5050
V3
p5051
asVhasnum
p5052
(lp5053
V95
p5054
astp5055
Rp5056
(dp5057
g23
S'utf-8'
p5058
sg25
(dp5059
g5049
g5050
sg5052
g5053
ssS'_mutable'
p5060
I00
sbg4
(g11
g12
(dp5061
tp5062
Rp5063
(dp5064
S'_encoding'
p5065
g5058
sg25
(dp5066
sg5060
I00
sbtp5067
sbsg35
(dp5068
S'screen_name'
p5069
V\u51a8\u7530\u88d5\u5b50
p5070
sS'money'
p5071
L0L
sS'last_login'
p5072
S'2013-12-28T16:06:10+00:00'
p5073
sS'exp'
p5074
L0L
sS'gmail'
p5075
Vpreferire@gmail.com
p5076
sS'id'
p5077
L8L
sS'date_joined'
p5078
S'2013-12-19T07:41:15+00:00'
p5079
ssba(iutil.request_logging
SimpleRequest
p5080
(dp5081
g3
g4
(g5
g6
Ntp5082
Rp5083
(dp5084
g10
(g4
(g11
g12
(dp5085
Vtid
p5086
(lp5087
V4
p5088
asVhasnum
p5089
(lp5090
V2
p5091
astp5092
Rp5093
(dp5094
g23
S'utf-8'
p5095
sg25
(dp5096
g5086
g5087
sg5089
g5090
ssS'_mutable'
p5097
I00
sbg4
(g11
g12
(dp5098
tp5099
Rp5100
(dp5101
S'_encoding'
p5102
g5095
sg25
(dp5103
sg5097
I00
sbtp5104
sbsg35
(dp5105
S'screen_name'
p5106
V\u51a8\u7530\u88d5\u5b50
p5107
sS'money'
p5108
L0L
sS'last_login'
p5109
S'2013-12-28T16:06:10+00:00'
p5110
sS'exp'
p5111
L0L
sS'date_joined'
p5112
S'2013-12-19T07:41:15+00:00'
p5113
sS'id'
p5114
L8L
sS'gmail'
p5115
Vpreferire@gmail.com
p5116
ssba(iutil.request_logging
SimpleRequest
p5117
(dp5118
g3
g4
(g5
g6
Ntp5119
Rp5120
(dp5121
g10
(g4
(g11
g12
(dp5122
Vtid
p5123
(lp5124
V12
p5125
asVhasnum
p5126
(lp5127
V4
p5128
astp5129
Rp5130
(dp5131
g23
S'utf-8'
p5132
sg25
(dp5133
g5123
g5124
sg5126
g5127
ssS'_mutable'
p5134
I00
sbg4
(g11
g12
(dp5135
tp5136
Rp5137
(dp5138
S'_encoding'
p5139
g5132
sg25
(dp5140
sg5134
I00
sbtp5141
sbsg35
(dp5142
S'screen_name'
p5143
V\u51a8\u7530\u88d5\u5b50
p5144
sS'money'
p5145
L0L
sS'last_login'
p5146
S'2013-12-28T16:06:10+00:00'
p5147
sS'exp'
p5148
L0L
sS'gmail'
p5149
Vpreferire@gmail.com
p5150
sS'id'
p5151
L8L
sS'date_joined'
p5152
S'2013-12-19T07:41:15+00:00'
p5153
ssba(iutil.request_logging
SimpleRequest
p5154
(dp5155
g3
g4
(g5
g6
Ntp5156
Rp5157
(dp5158
g10
(g4
(g11
g12
(dp5159
Vtid
p5160
(lp5161
V0
p5162
asVhasnum
p5163
(lp5164
V75
p5165
astp5166
Rp5167
(dp5168
g23
S'utf-8'
p5169
sg25
(dp5170
g5160
g5161
sg5163
g5164
ssS'_mutable'
p5171
I00
sbg4
(g11
g12
(dp5172
tp5173
Rp5174
(dp5175
S'_encoding'
p5176
g5169
sg25
(dp5177
sg5171
I00
sbtp5178
sbsg35
(dp5179
S'screen_name'
p5180
Vkan.webmail@gmail.com
p5181
sS'money'
p5182
L0L
sS'last_login'
p5183
S'2013-12-28T16:06:28+00:00'
p5184
sS'exp'
p5185
L0L
sS'date_joined'
p5186
S'2013-12-24T10:26:53+00:00'
p5187
sS'id'
p5188
L12L
sS'gmail'
p5189
Vkan.webmail@gmail.com
p5190
ssba(iutil.request_logging
SimpleRequest
p5191
(dp5192
g3
g4
(g5
g6
Ntp5193
Rp5194
(dp5195
g10
(g4
(g11
g12
(dp5196
Vtid
p5197
(lp5198
V1
p5199
asVhasnum
p5200
(lp5201
V12
p5202
astp5203
Rp5204
(dp5205
g23
S'utf-8'
p5206
sg25
(dp5207
g5197
g5198
sg5200
g5201
ssS'_mutable'
p5208
I00
sbg4
(g11
g12
(dp5209
tp5210
Rp5211
(dp5212
S'_encoding'
p5213
g5206
sg25
(dp5214
sg5208
I00
sbtp5215
sbsg35
(dp5216
S'screen_name'
p5217
Vkan.webmail@gmail.com
p5218
sS'money'
p5219
L0L
sS'last_login'
p5220
S'2013-12-28T16:06:28+00:00'
p5221
sS'exp'
p5222
L0L
sS'gmail'
p5223
Vkan.webmail@gmail.com
p5224
sS'id'
p5225
L12L
sS'date_joined'
p5226
S'2013-12-24T10:26:53+00:00'
p5227
ssba(iutil.request_logging
SimpleRequest
p5228
(dp5229
g3
g4
(g5
g6
Ntp5230
Rp5231
(dp5232
g10
(g4
(g11
g12
(dp5233
Vtid
p5234
(lp5235
V2
p5236
asVhasnum
p5237
(lp5238
V27
p5239
astp5240
Rp5241
(dp5242
g23
S'utf-8'
p5243
sg25
(dp5244
g5234
g5235
sg5237
g5238
ssS'_mutable'
p5245
I00
sbg4
(g11
g12
(dp5246
tp5247
Rp5248
(dp5249
S'_encoding'
p5250
g5243
sg25
(dp5251
sg5245
I00
sbtp5252
sbsg35
(dp5253
S'screen_name'
p5254
Vkan.webmail@gmail.com
p5255
sS'money'
p5256
L0L
sS'last_login'
p5257
S'2013-12-28T16:06:28+00:00'
p5258
sS'exp'
p5259
L0L
sS'date_joined'
p5260
S'2013-12-24T10:26:53+00:00'
p5261
sS'id'
p5262
L12L
sS'gmail'
p5263
Vkan.webmail@gmail.com
p5264
ssba(iutil.request_logging
SimpleRequest
p5265
(dp5266
g3
g4
(g5
g6
Ntp5267
Rp5268
(dp5269
g10
(g4
(g11
g12
(dp5270
Vtid
p5271
(lp5272
V3
p5273
asVhasnum
p5274
(lp5275
V26
p5276
astp5277
Rp5278
(dp5279
g23
S'utf-8'
p5280
sg25
(dp5281
g5271
g5272
sg5274
g5275
ssS'_mutable'
p5282
I00
sbg4
(g11
g12
(dp5283
tp5284
Rp5285
(dp5286
S'_encoding'
p5287
g5280
sg25
(dp5288
sg5282
I00
sbtp5289
sbsg35
(dp5290
S'screen_name'
p5291
Vkan.webmail@gmail.com
p5292
sS'money'
p5293
L0L
sS'last_login'
p5294
S'2013-12-28T16:06:28+00:00'
p5295
sS'exp'
p5296
L0L
sS'gmail'
p5297
Vkan.webmail@gmail.com
p5298
sS'id'
p5299
L12L
sS'date_joined'
p5300
S'2013-12-24T10:26:53+00:00'
p5301
ssba(iutil.request_logging
SimpleRequest
p5302
(dp5303
g3
g4
(g5
g6
Ntp5304
Rp5305
(dp5306
g10
(g4
(g11
g12
(dp5307
Vtid
p5308
(lp5309
V4
p5310
asVhasnum
p5311
(lp5312
V3
p5313
astp5314
Rp5315
(dp5316
g23
S'utf-8'
p5317
sg25
(dp5318
g5308
g5309
sg5311
g5312
ssS'_mutable'
p5319
I00
sbg4
(g11
g12
(dp5320
tp5321
Rp5322
(dp5323
S'_encoding'
p5324
g5317
sg25
(dp5325
sg5319
I00
sbtp5326
sbsg35
(dp5327
S'screen_name'
p5328
Vkan.webmail@gmail.com
p5329
sS'money'
p5330
L0L
sS'last_login'
p5331
S'2013-12-28T16:06:28+00:00'
p5332
sS'exp'
p5333
L0L
sS'date_joined'
p5334
S'2013-12-24T10:26:53+00:00'
p5335
sS'id'
p5336
L12L
sS'gmail'
p5337
Vkan.webmail@gmail.com
p5338
ssba(iutil.request_logging
SimpleRequest
p5339
(dp5340
g3
g4
(g5
g6
Ntp5341
Rp5342
(dp5343
g10
(g4
(g11
g12
(dp5344
Vtid
p5345
(lp5346
V0
p5347
asVhasnum
p5348
(lp5349
V1
p5350
astp5351
Rp5352
(dp5353
g23
S'utf-8'
p5354
sg25
(dp5355
g5345
g5346
sg5348
g5349
ssS'_mutable'
p5356
I00
sbg4
(g11
g12
(dp5357
tp5358
Rp5359
(dp5360
S'_encoding'
p5361
g5354
sg25
(dp5362
sg5356
I00
sbtp5363
sbsg35
(dp5364
S'screen_name'
p5365
V\u51a8\u7530\u88d5\u5b50
p5366
sS'money'
p5367
L0L
sS'last_login'
p5368
S'2013-12-28T16:06:10+00:00'
p5369
sS'exp'
p5370
L0L
sS'gmail'
p5371
Vpreferire@gmail.com
p5372
sS'id'
p5373
L8L
sS'date_joined'
p5374
S'2013-12-19T07:41:15+00:00'
p5375
ssba(iutil.request_logging
SimpleRequest
p5376
(dp5377
g3
g4
(g5
g6
Ntp5378
Rp5379
(dp5380
g10
(g4
(g11
g12
(dp5381
Vtid
p5382
(lp5383
V0
p5384
asVhasnum
p5385
(lp5386
V16
p5387
astp5388
Rp5389
(dp5390
g23
S'utf-8'
p5391
sg25
(dp5392
g5382
g5383
sg5385
g5386
ssS'_mutable'
p5393
I00
sbg4
(g11
g12
(dp5394
tp5395
Rp5396
(dp5397
S'_encoding'
p5398
g5391
sg25
(dp5399
sg5393
I00
sbtp5400
sbsg35
(dp5401
S'screen_name'
p5402
V\u51a8\u7530\u88d5\u5b50
p5403
sS'money'
p5404
L0L
sS'last_login'
p5405
S'2013-12-28T16:06:35+00:00'
p5406
sS'exp'
p5407
L0L
sS'date_joined'
p5408
S'2013-12-19T07:41:15+00:00'
p5409
sS'id'
p5410
L8L
sS'gmail'
p5411
Vpreferire@gmail.com
p5412
ssba(iutil.request_logging
SimpleRequest
p5413
(dp5414
g3
g4
(g5
g6
Ntp5415
Rp5416
(dp5417
g10
(g4
(g11
g12
(dp5418
Vtid
p5419
(lp5420
V1
p5421
asVhasnum
p5422
(lp5423
V0
p5424
astp5425
Rp5426
(dp5427
g23
S'utf-8'
p5428
sg25
(dp5429
g5419
g5420
sg5422
g5423
ssS'_mutable'
p5430
I00
sbg4
(g11
g12
(dp5431
tp5432
Rp5433
(dp5434
S'_encoding'
p5435
g5428
sg25
(dp5436
sg5430
I00
sbtp5437
sbsg35
(dp5438
S'screen_name'
p5439
V\u51a8\u7530\u88d5\u5b50
p5440
sS'money'
p5441
L0L
sS'last_login'
p5442
S'2013-12-28T16:06:35+00:00'
p5443
sS'exp'
p5444
L0L
sS'gmail'
p5445
Vpreferire@gmail.com
p5446
sS'id'
p5447
L8L
sS'date_joined'
p5448
S'2013-12-19T07:41:15+00:00'
p5449
ssba(iutil.request_logging
SimpleRequest
p5450
(dp5451
g3
g4
(g5
g6
Ntp5452
Rp5453
(dp5454
g10
(g4
(g11
g12
(dp5455
Vtid
p5456
(lp5457
V2
p5458
asVhasnum
p5459
(lp5460
V83
p5461
astp5462
Rp5463
(dp5464
g23
S'utf-8'
p5465
sg25
(dp5466
g5456
g5457
sg5459
g5460
ssS'_mutable'
p5467
I00
sbg4
(g11
g12
(dp5468
tp5469
Rp5470
(dp5471
S'_encoding'
p5472
g5465
sg25
(dp5473
sg5467
I00
sbtp5474
sbsg35
(dp5475
S'screen_name'
p5476
V\u51a8\u7530\u88d5\u5b50
p5477
sS'money'
p5478
L0L
sS'last_login'
p5479
S'2013-12-28T16:06:35+00:00'
p5480
sS'exp'
p5481
L0L
sS'date_joined'
p5482
S'2013-12-19T07:41:15+00:00'
p5483
sS'id'
p5484
L8L
sS'gmail'
p5485
Vpreferire@gmail.com
p5486
ssba(iutil.request_logging
SimpleRequest
p5487
(dp5488
g3
g4
(g5
g6
Ntp5489
Rp5490
(dp5491
g10
(g4
(g11
g12
(dp5492
Vtid
p5493
(lp5494
V3
p5495
asVhasnum
p5496
(lp5497
V95
p5498
astp5499
Rp5500
(dp5501
g23
S'utf-8'
p5502
sg25
(dp5503
g5493
g5494
sg5496
g5497
ssS'_mutable'
p5504
I00
sbg4
(g11
g12
(dp5505
tp5506
Rp5507
(dp5508
S'_encoding'
p5509
g5502
sg25
(dp5510
sg5504
I00
sbtp5511
sbsg35
(dp5512
S'screen_name'
p5513
V\u51a8\u7530\u88d5\u5b50
p5514
sS'money'
p5515
L0L
sS'last_login'
p5516
S'2013-12-28T16:06:35+00:00'
p5517
sS'exp'
p5518
L0L
sS'gmail'
p5519
Vpreferire@gmail.com
p5520
sS'id'
p5521
L8L
sS'date_joined'
p5522
S'2013-12-19T07:41:15+00:00'
p5523
ssba(iutil.request_logging
SimpleRequest
p5524
(dp5525
g3
g4
(g5
g6
Ntp5526
Rp5527
(dp5528
g10
(g4
(g11
g12
(dp5529
Vtid
p5530
(lp5531
V4
p5532
asVhasnum
p5533
(lp5534
V2
p5535
astp5536
Rp5537
(dp5538
g23
S'utf-8'
p5539
sg25
(dp5540
g5530
g5531
sg5533
g5534
ssS'_mutable'
p5541
I00
sbg4
(g11
g12
(dp5542
tp5543
Rp5544
(dp5545
S'_encoding'
p5546
g5539
sg25
(dp5547
sg5541
I00
sbtp5548
sbsg35
(dp5549
S'screen_name'
p5550
V\u51a8\u7530\u88d5\u5b50
p5551
sS'money'
p5552
L0L
sS'last_login'
p5553
S'2013-12-28T16:06:35+00:00'
p5554
sS'exp'
p5555
L0L
sS'date_joined'
p5556
S'2013-12-19T07:41:15+00:00'
p5557
sS'id'
p5558
L8L
sS'gmail'
p5559
Vpreferire@gmail.com
p5560
ssba(iutil.request_logging
SimpleRequest
p5561
(dp5562
g3
g4
(g5
g6
Ntp5563
Rp5564
(dp5565
g10
(g4
(g11
g12
(dp5566
Vtid
p5567
(lp5568
V12
p5569
asVhasnum
p5570
(lp5571
V4
p5572
astp5573
Rp5574
(dp5575
g23
S'utf-8'
p5576
sg25
(dp5577
g5567
g5568
sg5570
g5571
ssS'_mutable'
p5578
I00
sbg4
(g11
g12
(dp5579
tp5580
Rp5581
(dp5582
S'_encoding'
p5583
g5576
sg25
(dp5584
sg5578
I00
sbtp5585
sbsg35
(dp5586
S'screen_name'
p5587
V\u51a8\u7530\u88d5\u5b50
p5588
sS'money'
p5589
L0L
sS'last_login'
p5590
S'2013-12-28T16:06:35+00:00'
p5591
sS'exp'
p5592
L0L
sS'gmail'
p5593
Vpreferire@gmail.com
p5594
sS'id'
p5595
L8L
sS'date_joined'
p5596
S'2013-12-19T07:41:15+00:00'
p5597
ssba(iutil.request_logging
SimpleRequest
p5598
(dp5599
g3
g4
(g5
g6
Ntp5600
Rp5601
(dp5602
g10
(g4
(g11
g12
(dp5603
Vtid
p5604
(lp5605
V3
p5606
asVhasnum
p5607
(lp5608
V2
p5609
astp5610
Rp5611
(dp5612
g23
S'utf-8'
p5613
sg25
(dp5614
g5604
g5605
sg5607
g5608
ssS'_mutable'
p5615
I00
sbg4
(g11
g12
(dp5616
tp5617
Rp5618
(dp5619
S'_encoding'
p5620
g5613
sg25
(dp5621
sg5615
I00
sbtp5622
sbsg35
(dp5623
S'screen_name'
p5624
Vkan.webmail@gmail.com
p5625
sS'money'
p5626
L0L
sS'last_login'
p5627
S'2013-12-28T16:06:28+00:00'
p5628
sS'exp'
p5629
L0L
sS'date_joined'
p5630
S'2013-12-24T10:26:53+00:00'
p5631
sS'id'
p5632
L12L
sS'gmail'
p5633
Vkan.webmail@gmail.com
p5634
ssba(iutil.request_logging
SimpleRequest
p5635
(dp5636
g3
g4
(g5
g6
Ntp5637
Rp5638
(dp5639
g10
(g4
(g11
g12
(dp5640
Vtid
p5641
(lp5642
V0
p5643
asVhasnum
p5644
(lp5645
V75
p5646
astp5647
Rp5648
(dp5649
g23
S'utf-8'
p5650
sg25
(dp5651
g5641
g5642
sg5644
g5645
ssS'_mutable'
p5652
I00
sbg4
(g11
g12
(dp5653
tp5654
Rp5655
(dp5656
S'_encoding'
p5657
g5650
sg25
(dp5658
sg5652
I00
sbtp5659
sbsg35
(dp5660
S'screen_name'
p5661
Vkan.webmail@gmail.com
p5662
sS'money'
p5663
L0L
sS'last_login'
p5664
S'2013-12-28T16:07:10+00:00'
p5665
sS'exp'
p5666
L0L
sS'gmail'
p5667
Vkan.webmail@gmail.com
p5668
sS'id'
p5669
L12L
sS'date_joined'
p5670
S'2013-12-24T10:26:53+00:00'
p5671
ssba(iutil.request_logging
SimpleRequest
p5672
(dp5673
g3
g4
(g5
g6
Ntp5674
Rp5675
(dp5676
g10
(g4
(g11
g12
(dp5677
Vtid
p5678
(lp5679
V1
p5680
asVhasnum
p5681
(lp5682
V12
p5683
astp5684
Rp5685
(dp5686
g23
S'utf-8'
p5687
sg25
(dp5688
g5678
g5679
sg5681
g5682
ssS'_mutable'
p5689
I00
sbg4
(g11
g12
(dp5690
tp5691
Rp5692
(dp5693
S'_encoding'
p5694
g5687
sg25
(dp5695
sg5689
I00
sbtp5696
sbsg35
(dp5697
S'screen_name'
p5698
Vkan.webmail@gmail.com
p5699
sS'money'
p5700
L0L
sS'last_login'
p5701
S'2013-12-28T16:07:10+00:00'
p5702
sS'exp'
p5703
L0L
sS'date_joined'
p5704
S'2013-12-24T10:26:53+00:00'
p5705
sS'id'
p5706
L12L
sS'gmail'
p5707
Vkan.webmail@gmail.com
p5708
ssba(iutil.request_logging
SimpleRequest
p5709
(dp5710
g3
g4
(g5
g6
Ntp5711
Rp5712
(dp5713
g10
(g4
(g11
g12
(dp5714
Vtid
p5715
(lp5716
V2
p5717
asVhasnum
p5718
(lp5719
V27
p5720
astp5721
Rp5722
(dp5723
g23
S'utf-8'
p5724
sg25
(dp5725
g5715
g5716
sg5718
g5719
ssS'_mutable'
p5726
I00
sbg4
(g11
g12
(dp5727
tp5728
Rp5729
(dp5730
S'_encoding'
p5731
g5724
sg25
(dp5732
sg5726
I00
sbtp5733
sbsg35
(dp5734
S'screen_name'
p5735
Vkan.webmail@gmail.com
p5736
sS'money'
p5737
L0L
sS'last_login'
p5738
S'2013-12-28T16:07:10+00:00'
p5739
sS'exp'
p5740
L0L
sS'gmail'
p5741
Vkan.webmail@gmail.com
p5742
sS'id'
p5743
L12L
sS'date_joined'
p5744
S'2013-12-24T10:26:53+00:00'
p5745
ssba(iutil.request_logging
SimpleRequest
p5746
(dp5747
g3
g4
(g5
g6
Ntp5748
Rp5749
(dp5750
g10
(g4
(g11
g12
(dp5751
Vtid
p5752
(lp5753
V3
p5754
asVhasnum
p5755
(lp5756
V64
p5757
astp5758
Rp5759
(dp5760
g23
S'utf-8'
p5761
sg25
(dp5762
g5752
g5753
sg5755
g5756
ssS'_mutable'
p5763
I00
sbg4
(g11
g12
(dp5764
tp5765
Rp5766
(dp5767
S'_encoding'
p5768
g5761
sg25
(dp5769
sg5763
I00
sbtp5770
sbsg35
(dp5771
S'screen_name'
p5772
Vkan.webmail@gmail.com
p5773
sS'money'
p5774
L0L
sS'last_login'
p5775
S'2013-12-28T16:07:10+00:00'
p5776
sS'exp'
p5777
L0L
sS'date_joined'
p5778
S'2013-12-24T10:26:53+00:00'
p5779
sS'id'
p5780
L12L
sS'gmail'
p5781
Vkan.webmail@gmail.com
p5782
ssba(iutil.request_logging
SimpleRequest
p5783
(dp5784
g3
g4
(g5
g6
Ntp5785
Rp5786
(dp5787
g10
(g4
(g11
g12
(dp5788
Vtid
p5789
(lp5790
V4
p5791
asVhasnum
p5792
(lp5793
V3
p5794
astp5795
Rp5796
(dp5797
g23
S'utf-8'
p5798
sg25
(dp5799
g5789
g5790
sg5792
g5793
ssS'_mutable'
p5800
I00
sbg4
(g11
g12
(dp5801
tp5802
Rp5803
(dp5804
S'_encoding'
p5805
g5798
sg25
(dp5806
sg5800
I00
sbtp5807
sbsg35
(dp5808
S'screen_name'
p5809
Vkan.webmail@gmail.com
p5810
sS'money'
p5811
L0L
sS'last_login'
p5812
S'2013-12-28T16:07:10+00:00'
p5813
sS'exp'
p5814
L0L
sS'gmail'
p5815
Vkan.webmail@gmail.com
p5816
sS'id'
p5817
L12L
sS'date_joined'
p5818
S'2013-12-24T10:26:53+00:00'
p5819
ssba(iutil.request_logging
SimpleRequest
p5820
(dp5821
g3
g4
(g5
g6
Ntp5822
Rp5823
(dp5824
g10
(g4
(g11
g12
(dp5825
Vtid
p5826
(lp5827
V0
p5828
asVhasnum
p5829
(lp5830
V16
p5831
astp5832
Rp5833
(dp5834
g23
S'utf-8'
p5835
sg25
(dp5836
g5826
g5827
sg5829
g5830
ssS'_mutable'
p5837
I00
sbg4
(g11
g12
(dp5838
tp5839
Rp5840
(dp5841
S'_encoding'
p5842
g5835
sg25
(dp5843
sg5837
I00
sbtp5844
sbsg35
(dp5845
S'screen_name'
p5846
V\u51a8\u7530\u88d5\u5b50
p5847
sS'money'
p5848
L0L
sS'last_login'
p5849
S'2013-12-28T16:07:28+00:00'
p5850
sS'exp'
p5851
L0L
sS'date_joined'
p5852
S'2013-12-19T07:41:15+00:00'
p5853
sS'id'
p5854
L8L
sS'gmail'
p5855
Vpreferire@gmail.com
p5856
ssba(iutil.request_logging
SimpleRequest
p5857
(dp5858
g3
g4
(g5
g6
Ntp5859
Rp5860
(dp5861
g10
(g4
(g11
g12
(dp5862
Vtid
p5863
(lp5864
V1
p5865
asVhasnum
p5866
(lp5867
V0
p5868
astp5869
Rp5870
(dp5871
g23
S'utf-8'
p5872
sg25
(dp5873
g5863
g5864
sg5866
g5867
ssS'_mutable'
p5874
I00
sbg4
(g11
g12
(dp5875
tp5876
Rp5877
(dp5878
S'_encoding'
p5879
g5872
sg25
(dp5880
sg5874
I00
sbtp5881
sbsg35
(dp5882
S'screen_name'
p5883
V\u51a8\u7530\u88d5\u5b50
p5884
sS'money'
p5885
L0L
sS'last_login'
p5886
S'2013-12-28T16:07:28+00:00'
p5887
sS'exp'
p5888
L0L
sS'gmail'
p5889
Vpreferire@gmail.com
p5890
sS'id'
p5891
L8L
sS'date_joined'
p5892
S'2013-12-19T07:41:15+00:00'
p5893
ssba(iutil.request_logging
SimpleRequest
p5894
(dp5895
g3
g4
(g5
g6
Ntp5896
Rp5897
(dp5898
g10
(g4
(g11
g12
(dp5899
Vtid
p5900
(lp5901
V2
p5902
asVhasnum
p5903
(lp5904
V83
p5905
astp5906
Rp5907
(dp5908
g23
S'utf-8'
p5909
sg25
(dp5910
g5900
g5901
sg5903
g5904
ssS'_mutable'
p5911
I00
sbg4
(g11
g12
(dp5912
tp5913
Rp5914
(dp5915
S'_encoding'
p5916
g5909
sg25
(dp5917
sg5911
I00
sbtp5918
sbsg35
(dp5919
S'screen_name'
p5920
V\u51a8\u7530\u88d5\u5b50
p5921
sS'money'
p5922
L0L
sS'last_login'
p5923
S'2013-12-28T16:07:28+00:00'
p5924
sS'exp'
p5925
L0L
sS'date_joined'
p5926
S'2013-12-19T07:41:15+00:00'
p5927
sS'id'
p5928
L8L
sS'gmail'
p5929
Vpreferire@gmail.com
p5930
ssba(iutil.request_logging
SimpleRequest
p5931
(dp5932
g3
g4
(g5
g6
Ntp5933
Rp5934
(dp5935
g10
(g4
(g11
g12
(dp5936
Vtid
p5937
(lp5938
V3
p5939
asVhasnum
p5940
(lp5941
V95
p5942
astp5943
Rp5944
(dp5945
g23
S'utf-8'
p5946
sg25
(dp5947
g5937
g5938
sg5940
g5941
ssS'_mutable'
p5948
I00
sbg4
(g11
g12
(dp5949
tp5950
Rp5951
(dp5952
S'_encoding'
p5953
g5946
sg25
(dp5954
sg5948
I00
sbtp5955
sbsg35
(dp5956
S'screen_name'
p5957
V\u51a8\u7530\u88d5\u5b50
p5958
sS'money'
p5959
L0L
sS'last_login'
p5960
S'2013-12-28T16:07:28+00:00'
p5961
sS'exp'
p5962
L0L
sS'gmail'
p5963
Vpreferire@gmail.com
p5964
sS'id'
p5965
L8L
sS'date_joined'
p5966
S'2013-12-19T07:41:15+00:00'
p5967
ssba(iutil.request_logging
SimpleRequest
p5968
(dp5969
g3
g4
(g5
g6
Ntp5970
Rp5971
(dp5972
g10
(g4
(g11
g12
(dp5973
Vtid
p5974
(lp5975
V4
p5976
asVhasnum
p5977
(lp5978
V2
p5979
astp5980
Rp5981
(dp5982
g23
S'utf-8'
p5983
sg25
(dp5984
g5974
g5975
sg5977
g5978
ssS'_mutable'
p5985
I00
sbg4
(g11
g12
(dp5986
tp5987
Rp5988
(dp5989
S'_encoding'
p5990
g5983
sg25
(dp5991
sg5985
I00
sbtp5992
sbsg35
(dp5993
S'screen_name'
p5994
V\u51a8\u7530\u88d5\u5b50
p5995
sS'money'
p5996
L0L
sS'last_login'
p5997
S'2013-12-28T16:07:28+00:00'
p5998
sS'exp'
p5999
L0L
sS'date_joined'
p6000
S'2013-12-19T07:41:15+00:00'
p6001
sS'id'
p6002
L8L
sS'gmail'
p6003
Vpreferire@gmail.com
p6004
ssba(iutil.request_logging
SimpleRequest
p6005
(dp6006
g3
g4
(g5
g6
Ntp6007
Rp6008
(dp6009
g10
(g4
(g11
g12
(dp6010
Vtid
p6011
(lp6012
V12
p6013
asVhasnum
p6014
(lp6015
V4
p6016
astp6017
Rp6018
(dp6019
g23
S'utf-8'
p6020
sg25
(dp6021
g6011
g6012
sg6014
g6015
ssS'_mutable'
p6022
I00
sbg4
(g11
g12
(dp6023
tp6024
Rp6025
(dp6026
S'_encoding'
p6027
g6020
sg25
(dp6028
sg6022
I00
sbtp6029
sbsg35
(dp6030
S'screen_name'
p6031
V\u51a8\u7530\u88d5\u5b50
p6032
sS'money'
p6033
L0L
sS'last_login'
p6034
S'2013-12-28T16:07:28+00:00'
p6035
sS'exp'
p6036
L0L
sS'gmail'
p6037
Vpreferire@gmail.com
p6038
sS'id'
p6039
L8L
sS'date_joined'
p6040
S'2013-12-19T07:41:15+00:00'
p6041
ssba(iutil.request_logging
SimpleRequest
p6042
(dp6043
g3
g4
(g5
g6
Ntp6044
Rp6045
(dp6046
g10
(g4
(g11
g12
(dp6047
Vtid
p6048
(lp6049
V0
p6050
asVhasnum
p6051
(lp6052
V75
p6053
astp6054
Rp6055
(dp6056
g23
S'utf-8'
p6057
sg25
(dp6058
g6048
g6049
sg6051
g6052
ssS'_mutable'
p6059
I00
sbg4
(g11
g12
(dp6060
tp6061
Rp6062
(dp6063
S'_encoding'
p6064
g6057
sg25
(dp6065
sg6059
I00
sbtp6066
sbsg35
(dp6067
S'screen_name'
p6068
Vkan.webmail@gmail.com
p6069
sS'money'
p6070
L0L
sS'last_login'
p6071
S'2013-12-28T16:09:12+00:00'
p6072
sS'exp'
p6073
L0L
sS'date_joined'
p6074
S'2013-12-24T10:26:53+00:00'
p6075
sS'id'
p6076
L12L
sS'gmail'
p6077
Vkan.webmail@gmail.com
p6078
ssba(iutil.request_logging
SimpleRequest
p6079
(dp6080
g3
g4
(g5
g6
Ntp6081
Rp6082
(dp6083
g10
(g4
(g11
g12
(dp6084
Vtid
p6085
(lp6086
V1
p6087
asVhasnum
p6088
(lp6089
V12
p6090
astp6091
Rp6092
(dp6093
g23
S'utf-8'
p6094
sg25
(dp6095
g6085
g6086
sg6088
g6089
ssS'_mutable'
p6096
I00
sbg4
(g11
g12
(dp6097
tp6098
Rp6099
(dp6100
S'_encoding'
p6101
g6094
sg25
(dp6102
sg6096
I00
sbtp6103
sbsg35
(dp6104
S'screen_name'
p6105
Vkan.webmail@gmail.com
p6106
sS'money'
p6107
L0L
sS'last_login'
p6108
S'2013-12-28T16:09:12+00:00'
p6109
sS'exp'
p6110
L0L
sS'gmail'
p6111
Vkan.webmail@gmail.com
p6112
sS'id'
p6113
L12L
sS'date_joined'
p6114
S'2013-12-24T10:26:53+00:00'
p6115
ssba(iutil.request_logging
SimpleRequest
p6116
(dp6117
g3
g4
(g5
g6
Ntp6118
Rp6119
(dp6120
g10
(g4
(g11
g12
(dp6121
Vtid
p6122
(lp6123
V2
p6124
asVhasnum
p6125
(lp6126
V27
p6127
astp6128
Rp6129
(dp6130
g23
S'utf-8'
p6131
sg25
(dp6132
g6122
g6123
sg6125
g6126
ssS'_mutable'
p6133
I00
sbg4
(g11
g12
(dp6134
tp6135
Rp6136
(dp6137
S'_encoding'
p6138
g6131
sg25
(dp6139
sg6133
I00
sbtp6140
sbsg35
(dp6141
S'screen_name'
p6142
Vkan.webmail@gmail.com
p6143
sS'money'
p6144
L0L
sS'last_login'
p6145
S'2013-12-28T16:09:12+00:00'
p6146
sS'exp'
p6147
L0L
sS'date_joined'
p6148
S'2013-12-24T10:26:53+00:00'
p6149
sS'id'
p6150
L12L
sS'gmail'
p6151
Vkan.webmail@gmail.com
p6152
ssba(iutil.request_logging
SimpleRequest
p6153
(dp6154
g3
g4
(g5
g6
Ntp6155
Rp6156
(dp6157
g10
(g4
(g11
g12
(dp6158
Vtid
p6159
(lp6160
V3
p6161
asVhasnum
p6162
(lp6163
V64
p6164
astp6165
Rp6166
(dp6167
g23
S'utf-8'
p6168
sg25
(dp6169
g6159
g6160
sg6162
g6163
ssS'_mutable'
p6170
I00
sbg4
(g11
g12
(dp6171
tp6172
Rp6173
(dp6174
S'_encoding'
p6175
g6168
sg25
(dp6176
sg6170
I00
sbtp6177
sbsg35
(dp6178
S'screen_name'
p6179
Vkan.webmail@gmail.com
p6180
sS'money'
p6181
L0L
sS'last_login'
p6182
S'2013-12-28T16:09:12+00:00'
p6183
sS'exp'
p6184
L0L
sS'gmail'
p6185
Vkan.webmail@gmail.com
p6186
sS'id'
p6187
L12L
sS'date_joined'
p6188
S'2013-12-24T10:26:53+00:00'
p6189
ssba(iutil.request_logging
SimpleRequest
p6190
(dp6191
g3
g4
(g5
g6
Ntp6192
Rp6193
(dp6194
g10
(g4
(g11
g12
(dp6195
Vtid
p6196
(lp6197
V4
p6198
asVhasnum
p6199
(lp6200
V3
p6201
astp6202
Rp6203
(dp6204
g23
S'utf-8'
p6205
sg25
(dp6206
g6196
g6197
sg6199
g6200
ssS'_mutable'
p6207
I00
sbg4
(g11
g12
(dp6208
tp6209
Rp6210
(dp6211
S'_encoding'
p6212
g6205
sg25
(dp6213
sg6207
I00
sbtp6214
sbsg35
(dp6215
S'screen_name'
p6216
Vkan.webmail@gmail.com
p6217
sS'money'
p6218
L0L
sS'last_login'
p6219
S'2013-12-28T16:09:12+00:00'
p6220
sS'exp'
p6221
L0L
sS'date_joined'
p6222
S'2013-12-24T10:26:53+00:00'
p6223
sS'id'
p6224
L12L
sS'gmail'
p6225
Vkan.webmail@gmail.com
p6226
ssba(iutil.request_logging
SimpleRequest
p6227
(dp6228
g3
g4
(g5
g6
Ntp6229
Rp6230
(dp6231
g10
(g4
(g11
g12
(dp6232
Vtid
p6233
(lp6234
V0
p6235
asVhasnum
p6236
(lp6237
V75
p6238
astp6239
Rp6240
(dp6241
g23
S'utf-8'
p6242
sg25
(dp6243
g6233
g6234
sg6236
g6237
ssS'_mutable'
p6244
I00
sbg4
(g11
g12
(dp6245
tp6246
Rp6247
(dp6248
S'_encoding'
p6249
g6242
sg25
(dp6250
sg6244
I00
sbtp6251
sbsg35
(dp6252
S'screen_name'
p6253
Vkan.webmail@gmail.com
p6254
sS'money'
p6255
L0L
sS'last_login'
p6256
S'2013-12-28T16:24:02+00:00'
p6257
sS'exp'
p6258
L0L
sS'gmail'
p6259
Vkan.webmail@gmail.com
p6260
sS'id'
p6261
L12L
sS'date_joined'
p6262
S'2013-12-24T10:26:53+00:00'
p6263
ssba(iutil.request_logging
SimpleRequest
p6264
(dp6265
g3
g4
(g5
g6
Ntp6266
Rp6267
(dp6268
g10
(g4
(g11
g12
(dp6269
Vtid
p6270
(lp6271
V1
p6272
asVhasnum
p6273
(lp6274
V12
p6275
astp6276
Rp6277
(dp6278
g23
S'utf-8'
p6279
sg25
(dp6280
g6270
g6271
sg6273
g6274
ssS'_mutable'
p6281
I00
sbg4
(g11
g12
(dp6282
tp6283
Rp6284
(dp6285
S'_encoding'
p6286
g6279
sg25
(dp6287
sg6281
I00
sbtp6288
sbsg35
(dp6289
S'screen_name'
p6290
Vkan.webmail@gmail.com
p6291
sS'money'
p6292
L0L
sS'last_login'
p6293
S'2013-12-28T16:24:02+00:00'
p6294
sS'exp'
p6295
L0L
sS'date_joined'
p6296
S'2013-12-24T10:26:53+00:00'
p6297
sS'id'
p6298
L12L
sS'gmail'
p6299
Vkan.webmail@gmail.com
p6300
ssba(iutil.request_logging
SimpleRequest
p6301
(dp6302
g3
g4
(g5
g6
Ntp6303
Rp6304
(dp6305
g10
(g4
(g11
g12
(dp6306
Vtid
p6307
(lp6308
V2
p6309
asVhasnum
p6310
(lp6311
V27
p6312
astp6313
Rp6314
(dp6315
g23
S'utf-8'
p6316
sg25
(dp6317
g6307
g6308
sg6310
g6311
ssS'_mutable'
p6318
I00
sbg4
(g11
g12
(dp6319
tp6320
Rp6321
(dp6322
S'_encoding'
p6323
g6316
sg25
(dp6324
sg6318
I00
sbtp6325
sbsg35
(dp6326
S'screen_name'
p6327
Vkan.webmail@gmail.com
p6328
sS'money'
p6329
L0L
sS'last_login'
p6330
S'2013-12-28T16:24:02+00:00'
p6331
sS'exp'
p6332
L0L
sS'gmail'
p6333
Vkan.webmail@gmail.com
p6334
sS'id'
p6335
L12L
sS'date_joined'
p6336
S'2013-12-24T10:26:53+00:00'
p6337
ssba(iutil.request_logging
SimpleRequest
p6338
(dp6339
g3
g4
(g5
g6
Ntp6340
Rp6341
(dp6342
g10
(g4
(g11
g12
(dp6343
Vtid
p6344
(lp6345
V3
p6346
asVhasnum
p6347
(lp6348
V61
p6349
astp6350
Rp6351
(dp6352
g23
S'utf-8'
p6353
sg25
(dp6354
g6344
g6345
sg6347
g6348
ssS'_mutable'
p6355
I00
sbg4
(g11
g12
(dp6356
tp6357
Rp6358
(dp6359
S'_encoding'
p6360
g6353
sg25
(dp6361
sg6355
I00
sbtp6362
sbsg35
(dp6363
S'screen_name'
p6364
Vkan.webmail@gmail.com
p6365
sS'money'
p6366
L0L
sS'last_login'
p6367
S'2013-12-28T16:24:02+00:00'
p6368
sS'exp'
p6369
L0L
sS'date_joined'
p6370
S'2013-12-24T10:26:53+00:00'
p6371
sS'id'
p6372
L12L
sS'gmail'
p6373
Vkan.webmail@gmail.com
p6374
ssba(iutil.request_logging
SimpleRequest
p6375
(dp6376
g3
g4
(g5
g6
Ntp6377
Rp6378
(dp6379
g10
(g4
(g11
g12
(dp6380
Vtid
p6381
(lp6382
V4
p6383
asVhasnum
p6384
(lp6385
V3
p6386
astp6387
Rp6388
(dp6389
g23
S'utf-8'
p6390
sg25
(dp6391
g6381
g6382
sg6384
g6385
ssS'_mutable'
p6392
I00
sbg4
(g11
g12
(dp6393
tp6394
Rp6395
(dp6396
S'_encoding'
p6397
g6390
sg25
(dp6398
sg6392
I00
sbtp6399
sbsg35
(dp6400
S'screen_name'
p6401
Vkan.webmail@gmail.com
p6402
sS'money'
p6403
L0L
sS'last_login'
p6404
S'2013-12-28T16:24:02+00:00'
p6405
sS'exp'
p6406
L0L
sS'gmail'
p6407
Vkan.webmail@gmail.com
p6408
sS'id'
p6409
L12L
sS'date_joined'
p6410
S'2013-12-24T10:26:53+00:00'
p6411
ssba(iutil.request_logging
SimpleRequest
p6412
(dp6413
g3
g4
(g5
g6
Ntp6414
Rp6415
(dp6416
g10
(g4
(g11
g12
(dp6417
Vtid
p6418
(lp6419
V0
p6420
asVhasnum
p6421
(lp6422
V0
p6423
astp6424
Rp6425
(dp6426
g23
S'utf-8'
p6427
sg25
(dp6428
g6418
g6419
sg6421
g6422
ssS'_mutable'
p6429
I00
sbg4
(g11
g12
(dp6430
tp6431
Rp6432
(dp6433
S'_encoding'
p6434
g6427
sg25
(dp6435
sg6429
I00
sbtp6436
sbsg35
(dp6437
S'screen_name'
p6438
Vkan.webmail@gmail.com
p6439
sS'money'
p6440
L0L
sS'last_login'
p6441
S'2013-12-28T16:24:02+00:00'
p6442
sS'exp'
p6443
L0L
sS'date_joined'
p6444
S'2013-12-24T10:26:53+00:00'
p6445
sS'id'
p6446
L12L
sS'gmail'
p6447
Vkan.webmail@gmail.com
p6448
ssba(iutil.request_logging
SimpleRequest
p6449
(dp6450
g3
g4
(g5
g6
Ntp6451
Rp6452
(dp6453
g10
(g4
(g11
g12
(dp6454
Vtid
p6455
(lp6456
V0
p6457
asVhasnum
p6458
(lp6459
V29
p6460
astp6461
Rp6462
(dp6463
g23
S'utf-8'
p6464
sg25
(dp6465
g6455
g6456
sg6458
g6459
ssS'_mutable'
p6466
I00
sbg4
(g11
g12
(dp6467
tp6468
Rp6469
(dp6470
S'_encoding'
p6471
g6464
sg25
(dp6472
sg6466
I00
sbtp6473
sbsg35
(dp6474
S'screen_name'
p6475
Vkan.webmail@gmail.com
p6476
sS'money'
p6477
L0L
sS'last_login'
p6478
S'2013-12-28T16:26:45+00:00'
p6479
sS'exp'
p6480
L0L
sS'gmail'
p6481
Vkan.webmail@gmail.com
p6482
sS'id'
p6483
L12L
sS'date_joined'
p6484
S'2013-12-24T10:26:53+00:00'
p6485
ssba(iutil.request_logging
SimpleRequest
p6486
(dp6487
g3
g4
(g5
g6
Ntp6488
Rp6489
(dp6490
g10
(g4
(g11
g12
(dp6491
Vtid
p6492
(lp6493
V1
p6494
asVhasnum
p6495
(lp6496
V12
p6497
astp6498
Rp6499
(dp6500
g23
S'utf-8'
p6501
sg25
(dp6502
g6492
g6493
sg6495
g6496
ssS'_mutable'
p6503
I00
sbg4
(g11
g12
(dp6504
tp6505
Rp6506
(dp6507
S'_encoding'
p6508
g6501
sg25
(dp6509
sg6503
I00
sbtp6510
sbsg35
(dp6511
S'screen_name'
p6512
Vkan.webmail@gmail.com
p6513
sS'money'
p6514
L0L
sS'last_login'
p6515
S'2013-12-28T16:26:45+00:00'
p6516
sS'exp'
p6517
L0L
sS'date_joined'
p6518
S'2013-12-24T10:26:53+00:00'
p6519
sS'id'
p6520
L12L
sS'gmail'
p6521
Vkan.webmail@gmail.com
p6522
ssba(iutil.request_logging
SimpleRequest
p6523
(dp6524
g3
g4
(g5
g6
Ntp6525
Rp6526
(dp6527
g10
(g4
(g11
g12
(dp6528
Vtid
p6529
(lp6530
V2
p6531
asVhasnum
p6532
(lp6533
V47
p6534
astp6535
Rp6536
(dp6537
g23
S'utf-8'
p6538
sg25
(dp6539
g6529
g6530
sg6532
g6533
ssS'_mutable'
p6540
I00
sbg4
(g11
g12
(dp6541
tp6542
Rp6543
(dp6544
S'_encoding'
p6545
g6538
sg25
(dp6546
sg6540
I00
sbtp6547
sbsg35
(dp6548
S'screen_name'
p6549
Vkan.webmail@gmail.com
p6550
sS'money'
p6551
L0L
sS'last_login'
p6552
S'2013-12-28T16:26:45+00:00'
p6553
sS'exp'
p6554
L0L
sS'gmail'
p6555
Vkan.webmail@gmail.com
p6556
sS'id'
p6557
L12L
sS'date_joined'
p6558
S'2013-12-24T10:26:53+00:00'
p6559
ssba(iutil.request_logging
SimpleRequest
p6560
(dp6561
g3
g4
(g5
g6
Ntp6562
Rp6563
(dp6564
g10
(g4
(g11
g12
(dp6565
Vtid
p6566
(lp6567
V3
p6568
asVhasnum
p6569
(lp6570
V61
p6571
astp6572
Rp6573
(dp6574
g23
S'utf-8'
p6575
sg25
(dp6576
g6566
g6567
sg6569
g6570
ssS'_mutable'
p6577
I00
sbg4
(g11
g12
(dp6578
tp6579
Rp6580
(dp6581
S'_encoding'
p6582
g6575
sg25
(dp6583
sg6577
I00
sbtp6584
sbsg35
(dp6585
S'screen_name'
p6586
Vkan.webmail@gmail.com
p6587
sS'money'
p6588
L0L
sS'last_login'
p6589
S'2013-12-28T16:26:45+00:00'
p6590
sS'exp'
p6591
L0L
sS'date_joined'
p6592
S'2013-12-24T10:26:53+00:00'
p6593
sS'id'
p6594
L12L
sS'gmail'
p6595
Vkan.webmail@gmail.com
p6596
ssba(iutil.request_logging
SimpleRequest
p6597
(dp6598
g3
g4
(g5
g6
Ntp6599
Rp6600
(dp6601
g10
(g4
(g11
g12
(dp6602
Vtid
p6603
(lp6604
V4
p6605
asVhasnum
p6606
(lp6607
V3
p6608
astp6609
Rp6610
(dp6611
g23
S'utf-8'
p6612
sg25
(dp6613
g6603
g6604
sg6606
g6607
ssS'_mutable'
p6614
I00
sbg4
(g11
g12
(dp6615
tp6616
Rp6617
(dp6618
S'_encoding'
p6619
g6612
sg25
(dp6620
sg6614
I00
sbtp6621
sbsg35
(dp6622
S'screen_name'
p6623
Vkan.webmail@gmail.com
p6624
sS'money'
p6625
L0L
sS'last_login'
p6626
S'2013-12-28T16:26:45+00:00'
p6627
sS'exp'
p6628
L0L
sS'gmail'
p6629
Vkan.webmail@gmail.com
p6630
sS'id'
p6631
L12L
sS'date_joined'
p6632
S'2013-12-24T10:26:53+00:00'
p6633
ssba(iutil.request_logging
SimpleRequest
p6634
(dp6635
g3
g4
(g5
g6
Ntp6636
Rp6637
(dp6638
g10
(g4
(g11
g12
(dp6639
Vtid
p6640
(lp6641
V0
p6642
asVhasnum
p6643
(lp6644
V27
p6645
astp6646
Rp6647
(dp6648
g23
S'utf-8'
p6649
sg25
(dp6650
g6640
g6641
sg6643
g6644
ssS'_mutable'
p6651
I00
sbg4
(g11
g12
(dp6652
tp6653
Rp6654
(dp6655
S'_encoding'
p6656
g6649
sg25
(dp6657
sg6651
I00
sbtp6658
sbsg35
(dp6659
S'screen_name'
p6660
Vkan.webmail@gmail.com
p6661
sS'money'
p6662
L0L
sS'last_login'
p6663
S'2013-12-28T16:41:35+00:00'
p6664
sS'exp'
p6665
L0L
sS'date_joined'
p6666
S'2013-12-24T10:26:53+00:00'
p6667
sS'id'
p6668
L12L
sS'gmail'
p6669
Vkan.webmail@gmail.com
p6670
ssba(iutil.request_logging
SimpleRequest
p6671
(dp6672
g3
g4
(g5
g6
Ntp6673
Rp6674
(dp6675
g10
(g4
(g11
g12
(dp6676
Vtid
p6677
(lp6678
V1
p6679
asVhasnum
p6680
(lp6681
V12
p6682
astp6683
Rp6684
(dp6685
g23
S'utf-8'
p6686
sg25
(dp6687
g6677
g6678
sg6680
g6681
ssS'_mutable'
p6688
I00
sbg4
(g11
g12
(dp6689
tp6690
Rp6691
(dp6692
S'_encoding'
p6693
g6686
sg25
(dp6694
sg6688
I00
sbtp6695
sbsg35
(dp6696
S'screen_name'
p6697
Vkan.webmail@gmail.com
p6698
sS'money'
p6699
L0L
sS'last_login'
p6700
S'2013-12-28T16:41:35+00:00'
p6701
sS'exp'
p6702
L0L
sS'gmail'
p6703
Vkan.webmail@gmail.com
p6704
sS'id'
p6705
L12L
sS'date_joined'
p6706
S'2013-12-24T10:26:53+00:00'
p6707
ssba(iutil.request_logging
SimpleRequest
p6708
(dp6709
g3
g4
(g5
g6
Ntp6710
Rp6711
(dp6712
g10
(g4
(g11
g12
(dp6713
Vtid
p6714
(lp6715
V2
p6716
asVhasnum
p6717
(lp6718
V47
p6719
astp6720
Rp6721
(dp6722
g23
S'utf-8'
p6723
sg25
(dp6724
g6714
g6715
sg6717
g6718
ssS'_mutable'
p6725
I00
sbg4
(g11
g12
(dp6726
tp6727
Rp6728
(dp6729
S'_encoding'
p6730
g6723
sg25
(dp6731
sg6725
I00
sbtp6732
sbsg35
(dp6733
S'screen_name'
p6734
Vkan.webmail@gmail.com
p6735
sS'money'
p6736
L0L
sS'last_login'
p6737
S'2013-12-28T16:41:35+00:00'
p6738
sS'exp'
p6739
L0L
sS'date_joined'
p6740
S'2013-12-24T10:26:53+00:00'
p6741
sS'id'
p6742
L12L
sS'gmail'
p6743
Vkan.webmail@gmail.com
p6744
ssba(iutil.request_logging
SimpleRequest
p6745
(dp6746
g3
g4
(g5
g6
Ntp6747
Rp6748
(dp6749
g10
(g4
(g11
g12
(dp6750
Vtid
p6751
(lp6752
V3
p6753
asVhasnum
p6754
(lp6755
V61
p6756
astp6757
Rp6758
(dp6759
g23
S'utf-8'
p6760
sg25
(dp6761
g6751
g6752
sg6754
g6755
ssS'_mutable'
p6762
I00
sbg4
(g11
g12
(dp6763
tp6764
Rp6765
(dp6766
S'_encoding'
p6767
g6760
sg25
(dp6768
sg6762
I00
sbtp6769
sbsg35
(dp6770
S'screen_name'
p6771
Vkan.webmail@gmail.com
p6772
sS'money'
p6773
L0L
sS'last_login'
p6774
S'2013-12-28T16:41:35+00:00'
p6775
sS'exp'
p6776
L0L
sS'gmail'
p6777
Vkan.webmail@gmail.com
p6778
sS'id'
p6779
L12L
sS'date_joined'
p6780
S'2013-12-24T10:26:53+00:00'
p6781
ssba(iutil.request_logging
SimpleRequest
p6782
(dp6783
g3
g4
(g5
g6
Ntp6784
Rp6785
(dp6786
g10
(g4
(g11
g12
(dp6787
Vtid
p6788
(lp6789
V4
p6790
asVhasnum
p6791
(lp6792
V3
p6793
astp6794
Rp6795
(dp6796
g23
S'utf-8'
p6797
sg25
(dp6798
g6788
g6789
sg6791
g6792
ssS'_mutable'
p6799
I00
sbg4
(g11
g12
(dp6800
tp6801
Rp6802
(dp6803
S'_encoding'
p6804
g6797
sg25
(dp6805
sg6799
I00
sbtp6806
sbsg35
(dp6807
S'screen_name'
p6808
Vkan.webmail@gmail.com
p6809
sS'money'
p6810
L0L
sS'last_login'
p6811
S'2013-12-28T16:41:35+00:00'
p6812
sS'exp'
p6813
L0L
sS'date_joined'
p6814
S'2013-12-24T10:26:53+00:00'
p6815
sS'id'
p6816
L12L
sS'gmail'
p6817
Vkan.webmail@gmail.com
p6818
ssba(iutil.request_logging
SimpleRequest
p6819
(dp6820
g3
g4
(g5
g6
Ntp6821
Rp6822
(dp6823
g10
(g4
(g11
g12
(dp6824
Vtid
p6825
(lp6826
V0
p6827
asVhasnum
p6828
(lp6829
V2
p6830
astp6831
Rp6832
(dp6833
g23
S'utf-8'
p6834
sg25
(dp6835
g6825
g6826
sg6828
g6829
ssS'_mutable'
p6836
I00
sbg4
(g11
g12
(dp6837
tp6838
Rp6839
(dp6840
S'_encoding'
p6841
g6834
sg25
(dp6842
sg6836
I00
sbtp6843
sbsg35
(dp6844
S'screen_name'
p6845
Vkan.webmail@gmail.com
p6846
sS'money'
p6847
L0L
sS'last_login'
p6848
S'2013-12-28T16:41:35+00:00'
p6849
sS'exp'
p6850
L0L
sS'gmail'
p6851
Vkan.webmail@gmail.com
p6852
sS'id'
p6853
L12L
sS'date_joined'
p6854
S'2013-12-24T10:26:53+00:00'
p6855
ssba(iutil.request_logging
SimpleRequest
p6856
(dp6857
g3
g4
(g5
g6
Ntp6858
Rp6859
(dp6860
g10
(g4
(g11
g12
(dp6861
Vtid
p6862
(lp6863
V0
p6864
asVhasnum
p6865
(lp6866
V77
p6867
astp6868
Rp6869
(dp6870
g23
S'utf-8'
p6871
sg25
(dp6872
g6862
g6863
sg6865
g6866
ssS'_mutable'
p6873
I00
sbg4
(g11
g12
(dp6874
tp6875
Rp6876
(dp6877
S'_encoding'
p6878
g6871
sg25
(dp6879
sg6873
I00
sbtp6880
sbsg35
(dp6881
S'screen_name'
p6882
Vkan.webmail@gmail.com
p6883
sS'money'
p6884
L0L
sS'last_login'
p6885
S'2013-12-28T16:42:09+00:00'
p6886
sS'exp'
p6887
L0L
sS'date_joined'
p6888
S'2013-12-24T10:26:53+00:00'
p6889
sS'id'
p6890
L12L
sS'gmail'
p6891
Vkan.webmail@gmail.com
p6892
ssba(iutil.request_logging
SimpleRequest
p6893
(dp6894
g3
g4
(g5
g6
Ntp6895
Rp6896
(dp6897
g10
(g4
(g11
g12
(dp6898
Vtid
p6899
(lp6900
V1
p6901
asVhasnum
p6902
(lp6903
V12
p6904
astp6905
Rp6906
(dp6907
g23
S'utf-8'
p6908
sg25
(dp6909
g6899
g6900
sg6902
g6903
ssS'_mutable'
p6910
I00
sbg4
(g11
g12
(dp6911
tp6912
Rp6913
(dp6914
S'_encoding'
p6915
g6908
sg25
(dp6916
sg6910
I00
sbtp6917
sbsg35
(dp6918
S'screen_name'
p6919
Vkan.webmail@gmail.com
p6920
sS'money'
p6921
L0L
sS'last_login'
p6922
S'2013-12-28T16:42:09+00:00'
p6923
sS'exp'
p6924
L0L
sS'gmail'
p6925
Vkan.webmail@gmail.com
p6926
sS'id'
p6927
L12L
sS'date_joined'
p6928
S'2013-12-24T10:26:53+00:00'
p6929
ssba(iutil.request_logging
SimpleRequest
p6930
(dp6931
g3
g4
(g5
g6
Ntp6932
Rp6933
(dp6934
g10
(g4
(g11
g12
(dp6935
Vtid
p6936
(lp6937
V2
p6938
asVhasnum
p6939
(lp6940
V47
p6941
astp6942
Rp6943
(dp6944
g23
S'utf-8'
p6945
sg25
(dp6946
g6936
g6937
sg6939
g6940
ssS'_mutable'
p6947
I00
sbg4
(g11
g12
(dp6948
tp6949
Rp6950
(dp6951
S'_encoding'
p6952
g6945
sg25
(dp6953
sg6947
I00
sbtp6954
sbsg35
(dp6955
S'screen_name'
p6956
Vkan.webmail@gmail.com
p6957
sS'money'
p6958
L0L
sS'last_login'
p6959
S'2013-12-28T16:42:09+00:00'
p6960
sS'exp'
p6961
L0L
sS'date_joined'
p6962
S'2013-12-24T10:26:53+00:00'
p6963
sS'id'
p6964
L12L
sS'gmail'
p6965
Vkan.webmail@gmail.com
p6966
ssba(iutil.request_logging
SimpleRequest
p6967
(dp6968
g3
g4
(g5
g6
Ntp6969
Rp6970
(dp6971
g10
(g4
(g11
g12
(dp6972
Vtid
p6973
(lp6974
V3
p6975
asVhasnum
p6976
(lp6977
V61
p6978
astp6979
Rp6980
(dp6981
g23
S'utf-8'
p6982
sg25
(dp6983
g6973
g6974
sg6976
g6977
ssS'_mutable'
p6984
I00
sbg4
(g11
g12
(dp6985
tp6986
Rp6987
(dp6988
S'_encoding'
p6989
g6982
sg25
(dp6990
sg6984
I00
sbtp6991
sbsg35
(dp6992
S'screen_name'
p6993
Vkan.webmail@gmail.com
p6994
sS'money'
p6995
L0L
sS'last_login'
p6996
S'2013-12-28T16:42:09+00:00'
p6997
sS'exp'
p6998
L0L
sS'gmail'
p6999
Vkan.webmail@gmail.com
p7000
sS'id'
p7001
L12L
sS'date_joined'
p7002
S'2013-12-24T10:26:53+00:00'
p7003
ssba(iutil.request_logging
SimpleRequest
p7004
(dp7005
g3
g4
(g5
g6
Ntp7006
Rp7007
(dp7008
g10
(g4
(g11
g12
(dp7009
Vtid
p7010
(lp7011
V4
p7012
asVhasnum
p7013
(lp7014
V3
p7015
astp7016
Rp7017
(dp7018
g23
S'utf-8'
p7019
sg25
(dp7020
g7010
g7011
sg7013
g7014
ssS'_mutable'
p7021
I00
sbg4
(g11
g12
(dp7022
tp7023
Rp7024
(dp7025
S'_encoding'
p7026
g7019
sg25
(dp7027
sg7021
I00
sbtp7028
sbsg35
(dp7029
S'screen_name'
p7030
Vkan.webmail@gmail.com
p7031
sS'money'
p7032
L0L
sS'last_login'
p7033
S'2013-12-28T16:42:09+00:00'
p7034
sS'exp'
p7035
L0L
sS'date_joined'
p7036
S'2013-12-24T10:26:53+00:00'
p7037
sS'id'
p7038
L12L
sS'gmail'
p7039
Vkan.webmail@gmail.com
p7040
ssba(iutil.request_logging
SimpleRequest
p7041
(dp7042
g3
g4
(g5
g6
Ntp7043
Rp7044
(dp7045
g10
(g4
(g11
g12
(dp7046
Vtid
p7047
(lp7048
V0
p7049
asVhasnum
p7050
(lp7051
V16
p7052
astp7053
Rp7054
(dp7055
g23
S'utf-8'
p7056
sg25
(dp7057
g7047
g7048
sg7050
g7051
ssS'_mutable'
p7058
I00
sbg4
(g11
g12
(dp7059
tp7060
Rp7061
(dp7062
S'_encoding'
p7063
g7056
sg25
(dp7064
sg7058
I00
sbtp7065
sbsg35
(dp7066
S'screen_name'
p7067
V\u51a8\u7530\u88d5\u5b50
p7068
sS'money'
p7069
L0L
sS'last_login'
p7070
S'2013-12-28T16:43:55+00:00'
p7071
sS'exp'
p7072
L0L
sS'gmail'
p7073
Vpreferire@gmail.com
p7074
sS'id'
p7075
L8L
sS'date_joined'
p7076
S'2013-12-19T07:41:15+00:00'
p7077
ssba(iutil.request_logging
SimpleRequest
p7078
(dp7079
g3
g4
(g5
g6
Ntp7080
Rp7081
(dp7082
g10
(g4
(g11
g12
(dp7083
Vtid
p7084
(lp7085
V1
p7086
asVhasnum
p7087
(lp7088
V0
p7089
astp7090
Rp7091
(dp7092
g23
S'utf-8'
p7093
sg25
(dp7094
g7084
g7085
sg7087
g7088
ssS'_mutable'
p7095
I00
sbg4
(g11
g12
(dp7096
tp7097
Rp7098
(dp7099
S'_encoding'
p7100
g7093
sg25
(dp7101
sg7095
I00
sbtp7102
sbsg35
(dp7103
S'screen_name'
p7104
V\u51a8\u7530\u88d5\u5b50
p7105
sS'money'
p7106
L0L
sS'last_login'
p7107
S'2013-12-28T16:43:55+00:00'
p7108
sS'exp'
p7109
L0L
sS'date_joined'
p7110
S'2013-12-19T07:41:15+00:00'
p7111
sS'id'
p7112
L8L
sS'gmail'
p7113
Vpreferire@gmail.com
p7114
ssba(iutil.request_logging
SimpleRequest
p7115
(dp7116
g3
g4
(g5
g6
Ntp7117
Rp7118
(dp7119
g10
(g4
(g11
g12
(dp7120
Vtid
p7121
(lp7122
V2
p7123
asVhasnum
p7124
(lp7125
V68
p7126
astp7127
Rp7128
(dp7129
g23
S'utf-8'
p7130
sg25
(dp7131
g7121
g7122
sg7124
g7125
ssS'_mutable'
p7132
I00
sbg4
(g11
g12
(dp7133
tp7134
Rp7135
(dp7136
S'_encoding'
p7137
g7130
sg25
(dp7138
sg7132
I00
sbtp7139
sbsg35
(dp7140
S'screen_name'
p7141
V\u51a8\u7530\u88d5\u5b50
p7142
sS'money'
p7143
L0L
sS'last_login'
p7144
S'2013-12-28T16:43:55+00:00'
p7145
sS'exp'
p7146
L0L
sS'gmail'
p7147
Vpreferire@gmail.com
p7148
sS'id'
p7149
L8L
sS'date_joined'
p7150
S'2013-12-19T07:41:15+00:00'
p7151
ssba(iutil.request_logging
SimpleRequest
p7152
(dp7153
g3
g4
(g5
g6
Ntp7154
Rp7155
(dp7156
g10
(g4
(g11
g12
(dp7157
Vtid
p7158
(lp7159
V3
p7160
asVhasnum
p7161
(lp7162
V95
p7163
astp7164
Rp7165
(dp7166
g23
S'utf-8'
p7167
sg25
(dp7168
g7158
g7159
sg7161
g7162
ssS'_mutable'
p7169
I00
sbg4
(g11
g12
(dp7170
tp7171
Rp7172
(dp7173
S'_encoding'
p7174
g7167
sg25
(dp7175
sg7169
I00
sbtp7176
sbsg35
(dp7177
S'screen_name'
p7178
V\u51a8\u7530\u88d5\u5b50
p7179
sS'money'
p7180
L0L
sS'last_login'
p7181
S'2013-12-28T16:43:55+00:00'
p7182
sS'exp'
p7183
L0L
sS'date_joined'
p7184
S'2013-12-19T07:41:15+00:00'
p7185
sS'id'
p7186
L8L
sS'gmail'
p7187
Vpreferire@gmail.com
p7188
ssba(iutil.request_logging
SimpleRequest
p7189
(dp7190
g3
g4
(g5
g6
Ntp7191
Rp7192
(dp7193
g10
(g4
(g11
g12
(dp7194
Vtid
p7195
(lp7196
V4
p7197
asVhasnum
p7198
(lp7199
V2
p7200
astp7201
Rp7202
(dp7203
g23
S'utf-8'
p7204
sg25
(dp7205
g7195
g7196
sg7198
g7199
ssS'_mutable'
p7206
I00
sbg4
(g11
g12
(dp7207
tp7208
Rp7209
(dp7210
S'_encoding'
p7211
g7204
sg25
(dp7212
sg7206
I00
sbtp7213
sbsg35
(dp7214
S'screen_name'
p7215
V\u51a8\u7530\u88d5\u5b50
p7216
sS'money'
p7217
L0L
sS'last_login'
p7218
S'2013-12-28T16:43:55+00:00'
p7219
sS'exp'
p7220
L0L
sS'gmail'
p7221
Vpreferire@gmail.com
p7222
sS'id'
p7223
L8L
sS'date_joined'
p7224
S'2013-12-19T07:41:15+00:00'
p7225
ssba(iutil.request_logging
SimpleRequest
p7226
(dp7227
g3
g4
(g5
g6
Ntp7228
Rp7229
(dp7230
g10
(g4
(g11
g12
(dp7231
Vtid
p7232
(lp7233
V12
p7234
asVhasnum
p7235
(lp7236
V4
p7237
astp7238
Rp7239
(dp7240
g23
S'utf-8'
p7241
sg25
(dp7242
g7232
g7233
sg7235
g7236
ssS'_mutable'
p7243
I00
sbg4
(g11
g12
(dp7244
tp7245
Rp7246
(dp7247
S'_encoding'
p7248
g7241
sg25
(dp7249
sg7243
I00
sbtp7250
sbsg35
(dp7251
S'screen_name'
p7252
V\u51a8\u7530\u88d5\u5b50
p7253
sS'money'
p7254
L0L
sS'last_login'
p7255
S'2013-12-28T16:43:55+00:00'
p7256
sS'exp'
p7257
L0L
sS'date_joined'
p7258
S'2013-12-19T07:41:15+00:00'
p7259
sS'id'
p7260
L8L
sS'gmail'
p7261
Vpreferire@gmail.com
p7262
ssba(iutil.request_logging
SimpleRequest
p7263
(dp7264
g3
g4
(g5
g6
Ntp7265
Rp7266
(dp7267
g10
(g4
(g11
g12
(dp7268
Vtid
p7269
(lp7270
V0
p7271
asVhasnum
p7272
(lp7273
V0
p7274
astp7275
Rp7276
(dp7277
g23
S'utf-8'
p7278
sg25
(dp7279
g7269
g7270
sg7272
g7273
ssS'_mutable'
p7280
I00
sbg4
(g11
g12
(dp7281
tp7282
Rp7283
(dp7284
S'_encoding'
p7285
g7278
sg25
(dp7286
sg7280
I00
sbtp7287
sbsg35
(dp7288
S'screen_name'
p7289
V\u51a8\u7530\u88d5\u5b50
p7290
sS'money'
p7291
L0L
sS'last_login'
p7292
S'2013-12-28T16:43:55+00:00'
p7293
sS'exp'
p7294
L0L
sS'gmail'
p7295
Vpreferire@gmail.com
p7296
sS'id'
p7297
L8L
sS'date_joined'
p7298
S'2013-12-19T07:41:15+00:00'
p7299
ssba(iutil.request_logging
SimpleRequest
p7300
(dp7301
g3
g4
(g5
g6
Ntp7302
Rp7303
(dp7304
g10
(g4
(g11
g12
(dp7305
Vtid
p7306
(lp7307
V0
p7308
asVhasnum
p7309
(lp7310
V16
p7311
astp7312
Rp7313
(dp7314
g23
S'utf-8'
p7315
sg25
(dp7316
g7306
g7307
sg7309
g7310
ssS'_mutable'
p7317
I00
sbg4
(g11
g12
(dp7318
tp7319
Rp7320
(dp7321
S'_encoding'
p7322
g7315
sg25
(dp7323
sg7317
I00
sbtp7324
sbsg35
(dp7325
S'screen_name'
p7326
V\u51a8\u7530\u88d5\u5b50
p7327
sS'money'
p7328
L0L
sS'last_login'
p7329
S'2013-12-28T16:44:36+00:00'
p7330
sS'exp'
p7331
L0L
sS'date_joined'
p7332
S'2013-12-19T07:41:15+00:00'
p7333
sS'id'
p7334
L8L
sS'gmail'
p7335
Vpreferire@gmail.com
p7336
ssba(iutil.request_logging
SimpleRequest
p7337
(dp7338
g3
g4
(g5
g6
Ntp7339
Rp7340
(dp7341
g10
(g4
(g11
g12
(dp7342
Vtid
p7343
(lp7344
V1
p7345
asVhasnum
p7346
(lp7347
V0
p7348
astp7349
Rp7350
(dp7351
g23
S'utf-8'
p7352
sg25
(dp7353
g7343
g7344
sg7346
g7347
ssS'_mutable'
p7354
I00
sbg4
(g11
g12
(dp7355
tp7356
Rp7357
(dp7358
S'_encoding'
p7359
g7352
sg25
(dp7360
sg7354
I00
sbtp7361
sbsg35
(dp7362
S'screen_name'
p7363
V\u51a8\u7530\u88d5\u5b50
p7364
sS'money'
p7365
L0L
sS'last_login'
p7366
S'2013-12-28T16:44:36+00:00'
p7367
sS'exp'
p7368
L0L
sS'gmail'
p7369
Vpreferire@gmail.com
p7370
sS'id'
p7371
L8L
sS'date_joined'
p7372
S'2013-12-19T07:41:15+00:00'
p7373
ssba(iutil.request_logging
SimpleRequest
p7374
(dp7375
g3
g4
(g5
g6
Ntp7376
Rp7377
(dp7378
g10
(g4
(g11
g12
(dp7379
Vtid
p7380
(lp7381
V2
p7382
asVhasnum
p7383
(lp7384
V62
p7385
astp7386
Rp7387
(dp7388
g23
S'utf-8'
p7389
sg25
(dp7390
g7380
g7381
sg7383
g7384
ssS'_mutable'
p7391
I00
sbg4
(g11
g12
(dp7392
tp7393
Rp7394
(dp7395
S'_encoding'
p7396
g7389
sg25
(dp7397
sg7391
I00
sbtp7398
sbsg35
(dp7399
S'screen_name'
p7400
V\u51a8\u7530\u88d5\u5b50
p7401
sS'money'
p7402
L0L
sS'last_login'
p7403
S'2013-12-28T16:44:36+00:00'
p7404
sS'exp'
p7405
L0L
sS'date_joined'
p7406
S'2013-12-19T07:41:15+00:00'
p7407
sS'id'
p7408
L8L
sS'gmail'
p7409
Vpreferire@gmail.com
p7410
ssba(iutil.request_logging
SimpleRequest
p7411
(dp7412
g3
g4
(g5
g6
Ntp7413
Rp7414
(dp7415
g10
(g4
(g11
g12
(dp7416
Vtid
p7417
(lp7418
V3
p7419
asVhasnum
p7420
(lp7421
V95
p7422
astp7423
Rp7424
(dp7425
g23
S'utf-8'
p7426
sg25
(dp7427
g7417
g7418
sg7420
g7421
ssS'_mutable'
p7428
I00
sbg4
(g11
g12
(dp7429
tp7430
Rp7431
(dp7432
S'_encoding'
p7433
g7426
sg25
(dp7434
sg7428
I00
sbtp7435
sbsg35
(dp7436
S'screen_name'
p7437
V\u51a8\u7530\u88d5\u5b50
p7438
sS'money'
p7439
L0L
sS'last_login'
p7440
S'2013-12-28T16:44:36+00:00'
p7441
sS'exp'
p7442
L0L
sS'gmail'
p7443
Vpreferire@gmail.com
p7444
sS'id'
p7445
L8L
sS'date_joined'
p7446
S'2013-12-19T07:41:15+00:00'
p7447
ssba(iutil.request_logging
SimpleRequest
p7448
(dp7449
g3
g4
(g5
g6
Ntp7450
Rp7451
(dp7452
g10
(g4
(g11
g12
(dp7453
Vtid
p7454
(lp7455
V4
p7456
asVhasnum
p7457
(lp7458
V2
p7459
astp7460
Rp7461
(dp7462
g23
S'utf-8'
p7463
sg25
(dp7464
g7454
g7455
sg7457
g7458
ssS'_mutable'
p7465
I00
sbg4
(g11
g12
(dp7466
tp7467
Rp7468
(dp7469
S'_encoding'
p7470
g7463
sg25
(dp7471
sg7465
I00
sbtp7472
sbsg35
(dp7473
S'screen_name'
p7474
V\u51a8\u7530\u88d5\u5b50
p7475
sS'money'
p7476
L0L
sS'last_login'
p7477
S'2013-12-28T16:44:36+00:00'
p7478
sS'exp'
p7479
L0L
sS'date_joined'
p7480
S'2013-12-19T07:41:15+00:00'
p7481
sS'id'
p7482
L8L
sS'gmail'
p7483
Vpreferire@gmail.com
p7484
ssba(iutil.request_logging
SimpleRequest
p7485
(dp7486
g3
g4
(g5
g6
Ntp7487
Rp7488
(dp7489
g10
(g4
(g11
g12
(dp7490
Vtid
p7491
(lp7492
V12
p7493
asVhasnum
p7494
(lp7495
V4
p7496
astp7497
Rp7498
(dp7499
g23
S'utf-8'
p7500
sg25
(dp7501
g7491
g7492
sg7494
g7495
ssS'_mutable'
p7502
I00
sbg4
(g11
g12
(dp7503
tp7504
Rp7505
(dp7506
S'_encoding'
p7507
g7500
sg25
(dp7508
sg7502
I00
sbtp7509
sbsg35
(dp7510
S'screen_name'
p7511
V\u51a8\u7530\u88d5\u5b50
p7512
sS'money'
p7513
L0L
sS'last_login'
p7514
S'2013-12-28T16:44:36+00:00'
p7515
sS'exp'
p7516
L0L
sS'gmail'
p7517
Vpreferire@gmail.com
p7518
sS'id'
p7519
L8L
sS'date_joined'
p7520
S'2013-12-19T07:41:15+00:00'
p7521
ssba(iutil.request_logging
SimpleRequest
p7522
(dp7523
g3
g4
(g5
g6
Ntp7524
Rp7525
(dp7526
g10
(g4
(g11
g12
(dp7527
Vtid
p7528
(lp7529
V0
p7530
asVhasnum
p7531
(lp7532
V16
p7533
astp7534
Rp7535
(dp7536
g23
S'utf-8'
p7537
sg25
(dp7538
g7528
g7529
sg7531
g7532
ssS'_mutable'
p7539
I00
sbg4
(g11
g12
(dp7540
tp7541
Rp7542
(dp7543
S'_encoding'
p7544
g7537
sg25
(dp7545
sg7539
I00
sbtp7546
sbsg35
(dp7547
S'screen_name'
p7548
V\u51a8\u7530\u88d5\u5b50
p7549
sS'money'
p7550
L0L
sS'last_login'
p7551
S'2013-12-28T19:39:49+00:00'
p7552
sS'exp'
p7553
L0L
sS'date_joined'
p7554
S'2013-12-19T07:41:15+00:00'
p7555
sS'id'
p7556
L8L
sS'gmail'
p7557
Vpreferire@gmail.com
p7558
ssba(iutil.request_logging
SimpleRequest
p7559
(dp7560
g3
g4
(g5
g6
Ntp7561
Rp7562
(dp7563
g10
(g4
(g11
g12
(dp7564
Vtid
p7565
(lp7566
V1
p7567
asVhasnum
p7568
(lp7569
V0
p7570
astp7571
Rp7572
(dp7573
g23
S'utf-8'
p7574
sg25
(dp7575
g7565
g7566
sg7568
g7569
ssS'_mutable'
p7576
I00
sbg4
(g11
g12
(dp7577
tp7578
Rp7579
(dp7580
S'_encoding'
p7581
g7574
sg25
(dp7582
sg7576
I00
sbtp7583
sbsg35
(dp7584
S'screen_name'
p7585
V\u51a8\u7530\u88d5\u5b50
p7586
sS'money'
p7587
L0L
sS'last_login'
p7588
S'2013-12-28T19:39:49+00:00'
p7589
sS'exp'
p7590
L0L
sS'gmail'
p7591
Vpreferire@gmail.com
p7592
sS'id'
p7593
L8L
sS'date_joined'
p7594
S'2013-12-19T07:41:15+00:00'
p7595
ssba(iutil.request_logging
SimpleRequest
p7596
(dp7597
g3
g4
(g5
g6
Ntp7598
Rp7599
(dp7600
g10
(g4
(g11
g12
(dp7601
Vtid
p7602
(lp7603
V2
p7604
asVhasnum
p7605
(lp7606
V57
p7607
astp7608
Rp7609
(dp7610
g23
S'utf-8'
p7611
sg25
(dp7612
g7602
g7603
sg7605
g7606
ssS'_mutable'
p7613
I00
sbg4
(g11
g12
(dp7614
tp7615
Rp7616
(dp7617
S'_encoding'
p7618
g7611
sg25
(dp7619
sg7613
I00
sbtp7620
sbsg35
(dp7621
S'screen_name'
p7622
V\u51a8\u7530\u88d5\u5b50
p7623
sS'money'
p7624
L0L
sS'last_login'
p7625
S'2013-12-28T19:39:49+00:00'
p7626
sS'exp'
p7627
L0L
sS'date_joined'
p7628
S'2013-12-19T07:41:15+00:00'
p7629
sS'id'
p7630
L8L
sS'gmail'
p7631
Vpreferire@gmail.com
p7632
ssba(iutil.request_logging
SimpleRequest
p7633
(dp7634
g3
g4
(g5
g6
Ntp7635
Rp7636
(dp7637
g10
(g4
(g11
g12
(dp7638
Vtid
p7639
(lp7640
V3
p7641
asVhasnum
p7642
(lp7643
V95
p7644
astp7645
Rp7646
(dp7647
g23
S'utf-8'
p7648
sg25
(dp7649
g7639
g7640
sg7642
g7643
ssS'_mutable'
p7650
I00
sbg4
(g11
g12
(dp7651
tp7652
Rp7653
(dp7654
S'_encoding'
p7655
g7648
sg25
(dp7656
sg7650
I00
sbtp7657
sbsg35
(dp7658
S'screen_name'
p7659
V\u51a8\u7530\u88d5\u5b50
p7660
sS'money'
p7661
L0L
sS'last_login'
p7662
S'2013-12-28T19:39:49+00:00'
p7663
sS'exp'
p7664
L0L
sS'gmail'
p7665
Vpreferire@gmail.com
p7666
sS'id'
p7667
L8L
sS'date_joined'
p7668
S'2013-12-19T07:41:15+00:00'
p7669
ssba(iutil.request_logging
SimpleRequest
p7670
(dp7671
g3
g4
(g5
g6
Ntp7672
Rp7673
(dp7674
g10
(g4
(g11
g12
(dp7675
Vtid
p7676
(lp7677
V4
p7678
asVhasnum
p7679
(lp7680
V2
p7681
astp7682
Rp7683
(dp7684
g23
S'utf-8'
p7685
sg25
(dp7686
g7676
g7677
sg7679
g7680
ssS'_mutable'
p7687
I00
sbg4
(g11
g12
(dp7688
tp7689
Rp7690
(dp7691
S'_encoding'
p7692
g7685
sg25
(dp7693
sg7687
I00
sbtp7694
sbsg35
(dp7695
S'screen_name'
p7696
V\u51a8\u7530\u88d5\u5b50
p7697
sS'money'
p7698
L0L
sS'last_login'
p7699
S'2013-12-28T19:39:49+00:00'
p7700
sS'exp'
p7701
L0L
sS'date_joined'
p7702
S'2013-12-19T07:41:15+00:00'
p7703
sS'id'
p7704
L8L
sS'gmail'
p7705
Vpreferire@gmail.com
p7706
ssba(iutil.request_logging
SimpleRequest
p7707
(dp7708
g3
g4
(g5
g6
Ntp7709
Rp7710
(dp7711
g10
(g4
(g11
g12
(dp7712
Vtid
p7713
(lp7714
V12
p7715
asVhasnum
p7716
(lp7717
V4
p7718
astp7719
Rp7720
(dp7721
g23
S'utf-8'
p7722
sg25
(dp7723
g7713
g7714
sg7716
g7717
ssS'_mutable'
p7724
I00
sbg4
(g11
g12
(dp7725
tp7726
Rp7727
(dp7728
S'_encoding'
p7729
g7722
sg25
(dp7730
sg7724
I00
sbtp7731
sbsg35
(dp7732
S'screen_name'
p7733
V\u51a8\u7530\u88d5\u5b50
p7734
sS'money'
p7735
L0L
sS'last_login'
p7736
S'2013-12-28T19:39:49+00:00'
p7737
sS'exp'
p7738
L0L
sS'gmail'
p7739
Vpreferire@gmail.com
p7740
sS'id'
p7741
L8L
sS'date_joined'
p7742
S'2013-12-19T07:41:15+00:00'
p7743
ssba(iutil.request_logging
SimpleRequest
p7744
(dp7745
g3
g4
(g5
g6
Ntp7746
Rp7747
(dp7748
g10
(g4
(g11
g12
(dp7749
Vtid
p7750
(lp7751
V0
p7752
asVhasnum
p7753
(lp7754
V1
p7755
astp7756
Rp7757
(dp7758
g23
S'utf-8'
p7759
sg25
(dp7760
g7750
g7751
sg7753
g7754
ssS'_mutable'
p7761
I00
sbg4
(g11
g12
(dp7762
tp7763
Rp7764
(dp7765
S'_encoding'
p7766
g7759
sg25
(dp7767
sg7761
I00
sbtp7768
sbsg35
(dp7769
S'screen_name'
p7770
V\u51a8\u7530\u88d5\u5b50
p7771
sS'money'
p7772
L0L
sS'last_login'
p7773
S'2013-12-28T19:39:49+00:00'
p7774
sS'exp'
p7775
L0L
sS'date_joined'
p7776
S'2013-12-19T07:41:15+00:00'
p7777
sS'id'
p7778
L8L
sS'gmail'
p7779
Vpreferire@gmail.com
p7780
ssba(iutil.request_logging
SimpleRequest
p7781
(dp7782
g3
g4
(g5
g6
Ntp7783
Rp7784
(dp7785
g10
(g4
(g11
g12
(dp7786
Vtid
p7787
(lp7788
V0
p7789
asVhasnum
p7790
(lp7791
V16
p7792
astp7793
Rp7794
(dp7795
g23
S'utf-8'
p7796
sg25
(dp7797
g7787
g7788
sg7790
g7791
ssS'_mutable'
p7798
I00
sbg4
(g11
g12
(dp7799
tp7800
Rp7801
(dp7802
S'_encoding'
p7803
g7796
sg25
(dp7804
sg7798
I00
sbtp7805
sbsg35
(dp7806
S'screen_name'
p7807
V\u51a8\u7530\u88d5\u5b50
p7808
sS'money'
p7809
L0L
sS'last_login'
p7810
S'2013-12-28T19:40:18+00:00'
p7811
sS'exp'
p7812
L0L
sS'gmail'
p7813
Vpreferire@gmail.com
p7814
sS'id'
p7815
L8L
sS'date_joined'
p7816
S'2013-12-19T07:41:15+00:00'
p7817
ssba(iutil.request_logging
SimpleRequest
p7818
(dp7819
g3
g4
(g5
g6
Ntp7820
Rp7821
(dp7822
g10
(g4
(g11
g12
(dp7823
Vtid
p7824
(lp7825
V1
p7826
asVhasnum
p7827
(lp7828
V0
p7829
astp7830
Rp7831
(dp7832
g23
S'utf-8'
p7833
sg25
(dp7834
g7824
g7825
sg7827
g7828
ssS'_mutable'
p7835
I00
sbg4
(g11
g12
(dp7836
tp7837
Rp7838
(dp7839
S'_encoding'
p7840
g7833
sg25
(dp7841
sg7835
I00
sbtp7842
sbsg35
(dp7843
S'screen_name'
p7844
V\u51a8\u7530\u88d5\u5b50
p7845
sS'money'
p7846
L0L
sS'last_login'
p7847
S'2013-12-28T19:40:18+00:00'
p7848
sS'exp'
p7849
L0L
sS'date_joined'
p7850
S'2013-12-19T07:41:15+00:00'
p7851
sS'id'
p7852
L8L
sS'gmail'
p7853
Vpreferire@gmail.com
p7854
ssba(iutil.request_logging
SimpleRequest
p7855
(dp7856
g3
g4
(g5
g6
Ntp7857
Rp7858
(dp7859
g10
(g4
(g11
g12
(dp7860
Vtid
p7861
(lp7862
V2
p7863
asVhasnum
p7864
(lp7865
V57
p7866
astp7867
Rp7868
(dp7869
g23
S'utf-8'
p7870
sg25
(dp7871
g7861
g7862
sg7864
g7865
ssS'_mutable'
p7872
I00
sbg4
(g11
g12
(dp7873
tp7874
Rp7875
(dp7876
S'_encoding'
p7877
g7870
sg25
(dp7878
sg7872
I00
sbtp7879
sbsg35
(dp7880
S'screen_name'
p7881
V\u51a8\u7530\u88d5\u5b50
p7882
sS'money'
p7883
L0L
sS'last_login'
p7884
S'2013-12-28T19:40:18+00:00'
p7885
sS'exp'
p7886
L0L
sS'gmail'
p7887
Vpreferire@gmail.com
p7888
sS'id'
p7889
L8L
sS'date_joined'
p7890
S'2013-12-19T07:41:15+00:00'
p7891
ssba(iutil.request_logging
SimpleRequest
p7892
(dp7893
g3
g4
(g5
g6
Ntp7894
Rp7895
(dp7896
g10
(g4
(g11
g12
(dp7897
Vtid
p7898
(lp7899
V3
p7900
asVhasnum
p7901
(lp7902
V105
p7903
astp7904
Rp7905
(dp7906
g23
S'utf-8'
p7907
sg25
(dp7908
g7898
g7899
sg7901
g7902
ssS'_mutable'
p7909
I00
sbg4
(g11
g12
(dp7910
tp7911
Rp7912
(dp7913
S'_encoding'
p7914
g7907
sg25
(dp7915
sg7909
I00
sbtp7916
sbsg35
(dp7917
S'screen_name'
p7918
V\u51a8\u7530\u88d5\u5b50
p7919
sS'money'
p7920
L0L
sS'last_login'
p7921
S'2013-12-28T19:40:18+00:00'
p7922
sS'exp'
p7923
L0L
sS'date_joined'
p7924
S'2013-12-19T07:41:15+00:00'
p7925
sS'id'
p7926
L8L
sS'gmail'
p7927
Vpreferire@gmail.com
p7928
ssba(iutil.request_logging
SimpleRequest
p7929
(dp7930
g3
g4
(g5
g6
Ntp7931
Rp7932
(dp7933
g10
(g4
(g11
g12
(dp7934
Vtid
p7935
(lp7936
V4
p7937
asVhasnum
p7938
(lp7939
V2
p7940
astp7941
Rp7942
(dp7943
g23
S'utf-8'
p7944
sg25
(dp7945
g7935
g7936
sg7938
g7939
ssS'_mutable'
p7946
I00
sbg4
(g11
g12
(dp7947
tp7948
Rp7949
(dp7950
S'_encoding'
p7951
g7944
sg25
(dp7952
sg7946
I00
sbtp7953
sbsg35
(dp7954
S'screen_name'
p7955
V\u51a8\u7530\u88d5\u5b50
p7956
sS'money'
p7957
L0L
sS'last_login'
p7958
S'2013-12-28T19:40:18+00:00'
p7959
sS'exp'
p7960
L0L
sS'gmail'
p7961
Vpreferire@gmail.com
p7962
sS'id'
p7963
L8L
sS'date_joined'
p7964
S'2013-12-19T07:41:15+00:00'
p7965
ssba(iutil.request_logging
SimpleRequest
p7966
(dp7967
g3
g4
(g5
g6
Ntp7968
Rp7969
(dp7970
g10
(g4
(g11
g12
(dp7971
Vtid
p7972
(lp7973
V12
p7974
asVhasnum
p7975
(lp7976
V4
p7977
astp7978
Rp7979
(dp7980
g23
S'utf-8'
p7981
sg25
(dp7982
g7972
g7973
sg7975
g7976
ssS'_mutable'
p7983
I00
sbg4
(g11
g12
(dp7984
tp7985
Rp7986
(dp7987
S'_encoding'
p7988
g7981
sg25
(dp7989
sg7983
I00
sbtp7990
sbsg35
(dp7991
S'screen_name'
p7992
V\u51a8\u7530\u88d5\u5b50
p7993
sS'money'
p7994
L0L
sS'last_login'
p7995
S'2013-12-28T19:40:18+00:00'
p7996
sS'exp'
p7997
L0L
sS'date_joined'
p7998
S'2013-12-19T07:41:15+00:00'
p7999
sS'id'
p8000
L8L
sS'gmail'
p8001
Vpreferire@gmail.com
p8002
ssba(iutil.request_logging
SimpleRequest
p8003
(dp8004
g3
g4
(g5
g6
Ntp8005
Rp8006
(dp8007
g10
(g4
(g11
g12
(dp8008
Vtid
p8009
(lp8010
V0
p8011
asVhasnum
p8012
(lp8013
V1
p8014
astp8015
Rp8016
(dp8017
g23
S'utf-8'
p8018
sg25
(dp8019
g8009
g8010
sg8012
g8013
ssS'_mutable'
p8020
I00
sbg4
(g11
g12
(dp8021
tp8022
Rp8023
(dp8024
S'_encoding'
p8025
g8018
sg25
(dp8026
sg8020
I00
sbtp8027
sbsg35
(dp8028
S'screen_name'
p8029
V\u51a8\u7530\u88d5\u5b50
p8030
sS'money'
p8031
L0L
sS'last_login'
p8032
S'2013-12-28T19:40:18+00:00'
p8033
sS'exp'
p8034
L0L
sS'gmail'
p8035
Vpreferire@gmail.com
p8036
sS'id'
p8037
L8L
sS'date_joined'
p8038
S'2013-12-19T07:41:15+00:00'
p8039
ssba(iutil.request_logging
SimpleRequest
p8040
(dp8041
g3
g4
(g5
g6
Ntp8042
Rp8043
(dp8044
g10
(g4
(g11
g12
(dp8045
Vtid
p8046
(lp8047
V0
p8048
asVhasnum
p8049
(lp8050
V1
p8051
astp8052
Rp8053
(dp8054
g23
S'utf-8'
p8055
sg25
(dp8056
g8046
g8047
sg8049
g8050
ssS'_mutable'
p8057
I00
sbg4
(g11
g12
(dp8058
tp8059
Rp8060
(dp8061
S'_encoding'
p8062
g8055
sg25
(dp8063
sg8057
I00
sbtp8064
sbsg35
(dp8065
S'screen_name'
p8066
V\u6a29\u85e4\u514b\u5f66
p8067
sS'money'
p8068
L0L
sS'last_login'
p8069
S'2013-12-28T20:38:06+00:00'
p8070
sS'exp'
p8071
L0L
sS'date_joined'
p8072
S'2013-12-28T12:40:24+00:00'
p8073
sS'id'
p8074
L15L
sS'gmail'
p8075
Vgondow3@gmail.com
p8076
ssba(iutil.request_logging
SimpleRequest
p8077
(dp8078
g3
g4
(g5
g6
Ntp8079
Rp8080
(dp8081
g10
(g4
(g11
g12
(dp8082
Vtid
p8083
(lp8084
V1
p8085
asVhasnum
p8086
(lp8087
V27
p8088
astp8089
Rp8090
(dp8091
g23
S'utf-8'
p8092
sg25
(dp8093
g8083
g8084
sg8086
g8087
ssS'_mutable'
p8094
I00
sbg4
(g11
g12
(dp8095
tp8096
Rp8097
(dp8098
S'_encoding'
p8099
g8092
sg25
(dp8100
sg8094
I00
sbtp8101
sbsg35
(dp8102
S'screen_name'
p8103
V\u6a29\u85e4\u514b\u5f66
p8104
sS'money'
p8105
L0L
sS'last_login'
p8106
S'2013-12-28T20:38:06+00:00'
p8107
sS'exp'
p8108
L0L
sS'gmail'
p8109
Vgondow3@gmail.com
p8110
sS'id'
p8111
L15L
sS'date_joined'
p8112
S'2013-12-28T12:40:24+00:00'
p8113
ssba(iutil.request_logging
SimpleRequest
p8114
(dp8115
g3
g4
(g5
g6
Ntp8116
Rp8117
(dp8118
g10
(g4
(g11
g12
(dp8119
Vtid
p8120
(lp8121
V3
p8122
asVhasnum
p8123
(lp8124
V1
p8125
astp8126
Rp8127
(dp8128
g23
S'utf-8'
p8129
sg25
(dp8130
g8120
g8121
sg8123
g8124
ssS'_mutable'
p8131
I00
sbg4
(g11
g12
(dp8132
tp8133
Rp8134
(dp8135
S'_encoding'
p8136
g8129
sg25
(dp8137
sg8131
I00
sbtp8138
sbsg35
(dp8139
S'screen_name'
p8140
VAya Igarashi
p8141
sS'money'
p8142
L0L
sS'last_login'
p8143
S'2013-12-29T01:50:03+00:00'
p8144
sS'exp'
p8145
L0L
sS'date_joined'
p8146
S'2013-12-19T00:00:00+00:00'
p8147
sS'id'
p8148
L3L
sS'gmail'
p8149
Vladiclexxx@gmail.com
p8150
ssba(iutil.request_logging
SimpleRequest
p8151
(dp8152
g3
g4
(g5
g6
Ntp8153
Rp8154
(dp8155
g10
(g4
(g11
g12
(dp8156
Vtid
p8157
(lp8158
V0
p8159
asVhasnum
p8160
(lp8161
V4
p8162
astp8163
Rp8164
(dp8165
g23
S'utf-8'
p8166
sg25
(dp8167
g8157
g8158
sg8160
g8161
ssS'_mutable'
p8168
I00
sbg4
(g11
g12
(dp8169
tp8170
Rp8171
(dp8172
S'_encoding'
p8173
g8166
sg25
(dp8174
sg8168
I00
sbtp8175
sbsg35
(dp8176
S'screen_name'
p8177
VAya Igarashi
p8178
sS'money'
p8179
L0L
sS'last_login'
p8180
S'2013-12-29T01:54:23+00:00'
p8181
sS'exp'
p8182
L0L
sS'gmail'
p8183
Vladiclexxx@gmail.com
p8184
sS'id'
p8185
L3L
sS'date_joined'
p8186
S'2013-12-19T00:00:00+00:00'
p8187
ssba(iutil.request_logging
SimpleRequest
p8188
(dp8189
g3
g4
(g5
g6
Ntp8190
Rp8191
(dp8192
g10
(g4
(g11
g12
(dp8193
Vtid
p8194
(lp8195
V3
p8196
asVhasnum
p8197
(lp8198
V1
p8199
astp8200
Rp8201
(dp8202
g23
S'utf-8'
p8203
sg25
(dp8204
g8194
g8195
sg8197
g8198
ssS'_mutable'
p8205
I00
sbg4
(g11
g12
(dp8206
tp8207
Rp8208
(dp8209
S'_encoding'
p8210
g8203
sg25
(dp8211
sg8205
I00
sbtp8212
sbsg35
(dp8213
S'screen_name'
p8214
VAya Igarashi
p8215
sS'money'
p8216
L0L
sS'last_login'
p8217
S'2013-12-29T01:54:23+00:00'
p8218
sS'exp'
p8219
L0L
sS'date_joined'
p8220
S'2013-12-19T00:00:00+00:00'
p8221
sS'id'
p8222
L3L
sS'gmail'
p8223
Vladiclexxx@gmail.com
p8224
ssba(iutil.request_logging
SimpleRequest
p8225
(dp8226
g3
g4
(g5
g6
Ntp8227
Rp8228
(dp8229
g10
(g4
(g11
g12
(dp8230
Vtid
p8231
(lp8232
V0
p8233
asVhasnum
p8234
(lp8235
V4
p8236
astp8237
Rp8238
(dp8239
g23
S'utf-8'
p8240
sg25
(dp8241
g8231
g8232
sg8234
g8235
ssS'_mutable'
p8242
I00
sbg4
(g11
g12
(dp8243
tp8244
Rp8245
(dp8246
S'_encoding'
p8247
g8240
sg25
(dp8248
sg8242
I00
sbtp8249
sbsg35
(dp8250
S'screen_name'
p8251
VAya Igarashi
p8252
sS'money'
p8253
L0L
sS'last_login'
p8254
S'2013-12-29T01:54:33+00:00'
p8255
sS'exp'
p8256
L0L
sS'gmail'
p8257
Vladiclexxx@gmail.com
p8258
sS'id'
p8259
L3L
sS'date_joined'
p8260
S'2013-12-19T00:00:00+00:00'
p8261
ssba(iutil.request_logging
SimpleRequest
p8262
(dp8263
g3
g4
(g5
g6
Ntp8264
Rp8265
(dp8266
g10
(g4
(g11
g12
(dp8267
Vtid
p8268
(lp8269
V3
p8270
asVhasnum
p8271
(lp8272
V1
p8273
astp8274
Rp8275
(dp8276
g23
S'utf-8'
p8277
sg25
(dp8278
g8268
g8269
sg8271
g8272
ssS'_mutable'
p8279
I00
sbg4
(g11
g12
(dp8280
tp8281
Rp8282
(dp8283
S'_encoding'
p8284
g8277
sg25
(dp8285
sg8279
I00
sbtp8286
sbsg35
(dp8287
S'screen_name'
p8288
VAya Igarashi
p8289
sS'money'
p8290
L0L
sS'last_login'
p8291
S'2013-12-29T01:54:33+00:00'
p8292
sS'exp'
p8293
L0L
sS'date_joined'
p8294
S'2013-12-19T00:00:00+00:00'
p8295
sS'id'
p8296
L3L
sS'gmail'
p8297
Vladiclexxx@gmail.com
p8298
ssba(iutil.request_logging
SimpleRequest
p8299
(dp8300
g3
g4
(g5
g6
Ntp8301
Rp8302
(dp8303
g10
(g4
(g11
g12
(dp8304
Vtid
p8305
(lp8306
V0
p8307
asVhasnum
p8308
(lp8309
V4
p8310
astp8311
Rp8312
(dp8313
g23
S'utf-8'
p8314
sg25
(dp8315
g8305
g8306
sg8308
g8309
ssS'_mutable'
p8316
I00
sbg4
(g11
g12
(dp8317
tp8318
Rp8319
(dp8320
S'_encoding'
p8321
g8314
sg25
(dp8322
sg8316
I00
sbtp8323
sbsg35
(dp8324
S'screen_name'
p8325
VAya Igarashi
p8326
sS'money'
p8327
L0L
sS'last_login'
p8328
S'2013-12-29T01:59:20+00:00'
p8329
sS'exp'
p8330
L0L
sS'gmail'
p8331
Vladiclexxx@gmail.com
p8332
sS'id'
p8333
L3L
sS'date_joined'
p8334
S'2013-12-19T00:00:00+00:00'
p8335
ssba(iutil.request_logging
SimpleRequest
p8336
(dp8337
g3
g4
(g5
g6
Ntp8338
Rp8339
(dp8340
g10
(g4
(g11
g12
(dp8341
Vtid
p8342
(lp8343
V3
p8344
asVhasnum
p8345
(lp8346
V1
p8347
astp8348
Rp8349
(dp8350
g23
S'utf-8'
p8351
sg25
(dp8352
g8342
g8343
sg8345
g8346
ssS'_mutable'
p8353
I00
sbg4
(g11
g12
(dp8354
tp8355
Rp8356
(dp8357
S'_encoding'
p8358
g8351
sg25
(dp8359
sg8353
I00
sbtp8360
sbsg35
(dp8361
S'screen_name'
p8362
VAya Igarashi
p8363
sS'money'
p8364
L0L
sS'last_login'
p8365
S'2013-12-29T01:59:20+00:00'
p8366
sS'exp'
p8367
L0L
sS'date_joined'
p8368
S'2013-12-19T00:00:00+00:00'
p8369
sS'id'
p8370
L3L
sS'gmail'
p8371
Vladiclexxx@gmail.com
p8372
ssba(iutil.request_logging
SimpleRequest
p8373
(dp8374
g3
g4
(g5
g6
Ntp8375
Rp8376
(dp8377
g10
(g4
(g11
g12
(dp8378
Vtid
p8379
(lp8380
V0
p8381
asVhasnum
p8382
(lp8383
V31
p8384
astp8385
Rp8386
(dp8387
g23
S'utf-8'
p8388
sg25
(dp8389
g8379
g8380
sg8382
g8383
ssS'_mutable'
p8390
I00
sbg4
(g11
g12
(dp8391
tp8392
Rp8393
(dp8394
S'_encoding'
p8395
g8388
sg25
(dp8396
sg8390
I00
sbtp8397
sbsg35
(dp8398
S'screen_name'
p8399
VAya Igarashi
p8400
sS'money'
p8401
L0L
sS'last_login'
p8402
S'2013-12-29T03:15:04+00:00'
p8403
sS'exp'
p8404
L0L
sS'gmail'
p8405
Vladiclexxx@gmail.com
p8406
sS'id'
p8407
L3L
sS'date_joined'
p8408
S'2013-12-19T00:00:00+00:00'
p8409
ssba(iutil.request_logging
SimpleRequest
p8410
(dp8411
g3
g4
(g5
g6
Ntp8412
Rp8413
(dp8414
g10
(g4
(g11
g12
(dp8415
Vtid
p8416
(lp8417
V3
p8418
asVhasnum
p8419
(lp8420
V1
p8421
astp8422
Rp8423
(dp8424
g23
S'utf-8'
p8425
sg25
(dp8426
g8416
g8417
sg8419
g8420
ssS'_mutable'
p8427
I00
sbg4
(g11
g12
(dp8428
tp8429
Rp8430
(dp8431
S'_encoding'
p8432
g8425
sg25
(dp8433
sg8427
I00
sbtp8434
sbsg35
(dp8435
S'screen_name'
p8436
VAya Igarashi
p8437
sS'money'
p8438
L0L
sS'last_login'
p8439
S'2013-12-29T03:15:04+00:00'
p8440
sS'exp'
p8441
L0L
sS'date_joined'
p8442
S'2013-12-19T00:00:00+00:00'
p8443
sS'id'
p8444
L3L
sS'gmail'
p8445
Vladiclexxx@gmail.com
p8446
ssba(iutil.request_logging
SimpleRequest
p8447
(dp8448
g3
g4
(g5
g6
Ntp8449
Rp8450
(dp8451
g10
(g4
(g11
g12
(dp8452
Vtid
p8453
(lp8454
V0
p8455
asVhasnum
p8456
(lp8457
V31
p8458
astp8459
Rp8460
(dp8461
g23
S'utf-8'
p8462
sg25
(dp8463
g8453
g8454
sg8456
g8457
ssS'_mutable'
p8464
I00
sbg4
(g11
g12
(dp8465
tp8466
Rp8467
(dp8468
S'_encoding'
p8469
g8462
sg25
(dp8470
sg8464
I00
sbtp8471
sbsg35
(dp8472
S'screen_name'
p8473
VAya Igarashi
p8474
sS'money'
p8475
L0L
sS'last_login'
p8476
S'2013-12-29T03:15:42+00:00'
p8477
sS'exp'
p8478
L0L
sS'gmail'
p8479
Vladiclexxx@gmail.com
p8480
sS'id'
p8481
L3L
sS'date_joined'
p8482
S'2013-12-19T00:00:00+00:00'
p8483
ssba(iutil.request_logging
SimpleRequest
p8484
(dp8485
g3
g4
(g5
g6
Ntp8486
Rp8487
(dp8488
g10
(g4
(g11
g12
(dp8489
Vtid
p8490
(lp8491
V3
p8492
asVhasnum
p8493
(lp8494
V0
p8495
astp8496
Rp8497
(dp8498
g23
S'utf-8'
p8499
sg25
(dp8500
g8490
g8491
sg8493
g8494
ssS'_mutable'
p8501
I00
sbg4
(g11
g12
(dp8502
tp8503
Rp8504
(dp8505
S'_encoding'
p8506
g8499
sg25
(dp8507
sg8501
I00
sbtp8508
sbsg35
(dp8509
S'screen_name'
p8510
VAya Igarashi
p8511
sS'money'
p8512
L0L
sS'last_login'
p8513
S'2013-12-29T03:15:42+00:00'
p8514
sS'exp'
p8515
L0L
sS'date_joined'
p8516
S'2013-12-19T00:00:00+00:00'
p8517
sS'id'
p8518
L3L
sS'gmail'
p8519
Vladiclexxx@gmail.com
p8520
ssba(iutil.request_logging
SimpleRequest
p8521
(dp8522
g3
g4
(g5
g6
Ntp8523
Rp8524
(dp8525
g10
(g4
(g11
g12
(dp8526
Vtid
p8527
(lp8528
V0
p8529
asVhasnum
p8530
(lp8531
V1
p8532
astp8533
Rp8534
(dp8535
g23
S'utf-8'
p8536
sg25
(dp8537
g8527
g8528
sg8530
g8531
ssS'_mutable'
p8538
I00
sbg4
(g11
g12
(dp8539
tp8540
Rp8541
(dp8542
S'_encoding'
p8543
g8536
sg25
(dp8544
sg8538
I00
sbtp8545
sbsg35
(dp8546
S'screen_name'
p8547
VAya Igarashi
p8548
sS'money'
p8549
L0L
sS'last_login'
p8550
S'2013-12-29T03:15:42+00:00'
p8551
sS'exp'
p8552
L0L
sS'gmail'
p8553
Vladiclexxx@gmail.com
p8554
sS'id'
p8555
L3L
sS'date_joined'
p8556
S'2013-12-19T00:00:00+00:00'
p8557
ssba(iutil.request_logging
SimpleRequest
p8558
(dp8559
g3
g4
(g5
g6
Ntp8560
Rp8561
(dp8562
g10
(g4
(g11
g12
(dp8563
Vtid
p8564
(lp8565
V0
p8566
asVhasnum
p8567
(lp8568
V147
p8569
astp8570
Rp8571
(dp8572
g23
S'utf-8'
p8573
sg25
(dp8574
g8564
g8565
sg8567
g8568
ssS'_mutable'
p8575
I00
sbg4
(g11
g12
(dp8576
tp8577
Rp8578
(dp8579
S'_encoding'
p8580
g8573
sg25
(dp8581
sg8575
I00
sbtp8582
sbsg35
(dp8583
S'screen_name'
p8584
VAya Igarashi
p8585
sS'money'
p8586
L0L
sS'last_login'
p8587
S'2013-12-29T03:16:35+00:00'
p8588
sS'exp'
p8589
L0L
sS'date_joined'
p8590
S'2013-12-19T00:00:00+00:00'
p8591
sS'id'
p8592
L3L
sS'gmail'
p8593
Vladiclexxx@gmail.com
p8594
ssba(iutil.request_logging
SimpleRequest
p8595
(dp8596
g3
g4
(g5
g6
Ntp8597
Rp8598
(dp8599
g10
(g4
(g11
g12
(dp8600
Vtid
p8601
(lp8602
V3
p8603
asVhasnum
p8604
(lp8605
V0
p8606
astp8607
Rp8608
(dp8609
g23
S'utf-8'
p8610
sg25
(dp8611
g8601
g8602
sg8604
g8605
ssS'_mutable'
p8612
I00
sbg4
(g11
g12
(dp8613
tp8614
Rp8615
(dp8616
S'_encoding'
p8617
g8610
sg25
(dp8618
sg8612
I00
sbtp8619
sbsg35
(dp8620
S'screen_name'
p8621
VAya Igarashi
p8622
sS'money'
p8623
L0L
sS'last_login'
p8624
S'2013-12-29T03:16:35+00:00'
p8625
sS'exp'
p8626
L0L
sS'gmail'
p8627
Vladiclexxx@gmail.com
p8628
sS'id'
p8629
L3L
sS'date_joined'
p8630
S'2013-12-19T00:00:00+00:00'
p8631
ssba(iutil.request_logging
SimpleRequest
p8632
(dp8633
g3
g4
(g5
g6
Ntp8634
Rp8635
(dp8636
g10
(g4
(g11
g12
(dp8637
Vtid
p8638
(lp8639
V0
p8640
asVhasnum
p8641
(lp8642
V161
p8643
astp8644
Rp8645
(dp8646
g23
S'utf-8'
p8647
sg25
(dp8648
g8638
g8639
sg8641
g8642
ssS'_mutable'
p8649
I00
sbg4
(g11
g12
(dp8650
tp8651
Rp8652
(dp8653
S'_encoding'
p8654
g8647
sg25
(dp8655
sg8649
I00
sbtp8656
sbsg35
(dp8657
S'screen_name'
p8658
VAya Igarashi
p8659
sS'money'
p8660
L0L
sS'last_login'
p8661
S'2013-12-29T03:41:28+00:00'
p8662
sS'exp'
p8663
L0L
sS'date_joined'
p8664
S'2013-12-19T00:00:00+00:00'
p8665
sS'id'
p8666
L3L
sS'gmail'
p8667
Vladiclexxx@gmail.com
p8668
ssba(iutil.request_logging
SimpleRequest
p8669
(dp8670
g3
g4
(g5
g6
Ntp8671
Rp8672
(dp8673
g10
(g4
(g11
g12
(dp8674
Vtid
p8675
(lp8676
V2
p8677
asVhasnum
p8678
(lp8679
V1
p8680
astp8681
Rp8682
(dp8683
g23
S'utf-8'
p8684
sg25
(dp8685
g8675
g8676
sg8678
g8679
ssS'_mutable'
p8686
I00
sbg4
(g11
g12
(dp8687
tp8688
Rp8689
(dp8690
S'_encoding'
p8691
g8684
sg25
(dp8692
sg8686
I00
sbtp8693
sbsg35
(dp8694
S'screen_name'
p8695
VAya Igarashi
p8696
sS'money'
p8697
L0L
sS'last_login'
p8698
S'2013-12-29T03:41:28+00:00'
p8699
sS'exp'
p8700
L0L
sS'gmail'
p8701
Vladiclexxx@gmail.com
p8702
sS'id'
p8703
L3L
sS'date_joined'
p8704
S'2013-12-19T00:00:00+00:00'
p8705
ssba(iutil.request_logging
SimpleRequest
p8706
(dp8707
g3
g4
(g5
g6
Ntp8708
Rp8709
(dp8710
g10
(g4
(g11
g12
(dp8711
Vtid
p8712
(lp8713
V3
p8714
asVhasnum
p8715
(lp8716
V2
p8717
astp8718
Rp8719
(dp8720
g23
S'utf-8'
p8721
sg25
(dp8722
g8712
g8713
sg8715
g8716
ssS'_mutable'
p8723
I00
sbg4
(g11
g12
(dp8724
tp8725
Rp8726
(dp8727
S'_encoding'
p8728
g8721
sg25
(dp8729
sg8723
I00
sbtp8730
sbsg35
(dp8731
S'screen_name'
p8732
VAya Igarashi
p8733
sS'money'
p8734
L0L
sS'last_login'
p8735
S'2013-12-29T03:41:28+00:00'
p8736
sS'exp'
p8737
L0L
sS'date_joined'
p8738
S'2013-12-19T00:00:00+00:00'
p8739
sS'id'
p8740
L3L
sS'gmail'
p8741
Vladiclexxx@gmail.com
p8742
ssba(iutil.request_logging
SimpleRequest
p8743
(dp8744
g3
g4
(g5
g6
Ntp8745
Rp8746
(dp8747
g10
(g4
(g11
g12
(dp8748
Vtid
p8749
(lp8750
V4
p8751
asVhasnum
p8752
(lp8753
V1
p8754
astp8755
Rp8756
(dp8757
g23
S'utf-8'
p8758
sg25
(dp8759
g8749
g8750
sg8752
g8753
ssS'_mutable'
p8760
I00
sbg4
(g11
g12
(dp8761
tp8762
Rp8763
(dp8764
S'_encoding'
p8765
g8758
sg25
(dp8766
sg8760
I00
sbtp8767
sbsg35
(dp8768
S'screen_name'
p8769
VAya Igarashi
p8770
sS'money'
p8771
L0L
sS'last_login'
p8772
S'2013-12-29T03:41:28+00:00'
p8773
sS'exp'
p8774
L0L
sS'gmail'
p8775
Vladiclexxx@gmail.com
p8776
sS'id'
p8777
L3L
sS'date_joined'
p8778
S'2013-12-19T00:00:00+00:00'
p8779
ssba(iutil.request_logging
SimpleRequest
p8780
(dp8781
g3
g4
(g5
g6
Ntp8782
Rp8783
(dp8784
g10
(g4
(g11
g12
(dp8785
Vtid
p8786
(lp8787
V0
p8788
asVhasnum
p8789
(lp8790
V0
p8791
astp8792
Rp8793
(dp8794
g23
S'utf-8'
p8795
sg25
(dp8796
g8786
g8787
sg8789
g8790
ssS'_mutable'
p8797
I00
sbg4
(g11
g12
(dp8798
tp8799
Rp8800
(dp8801
S'_encoding'
p8802
g8795
sg25
(dp8803
sg8797
I00
sbtp8804
sbsg35
(dp8805
S'screen_name'
p8806
VAya Igarashi
p8807
sS'money'
p8808
L0L
sS'last_login'
p8809
S'2013-12-29T03:41:28+00:00'
p8810
sS'exp'
p8811
L0L
sS'date_joined'
p8812
S'2013-12-19T00:00:00+00:00'
p8813
sS'id'
p8814
L3L
sS'gmail'
p8815
Vladiclexxx@gmail.com
p8816
ssba(iutil.request_logging
SimpleRequest
p8817
(dp8818
g3
g4
(g5
g6
Ntp8819
Rp8820
(dp8821
g10
(g4
(g11
g12
(dp8822
Vtid
p8823
(lp8824
V0
p8825
asVhasnum
p8826
(lp8827
V1
p8828
astp8829
Rp8830
(dp8831
g23
S'utf-8'
p8832
sg25
(dp8833
g8823
g8824
sg8826
g8827
ssS'_mutable'
p8834
I00
sbg4
(g11
g12
(dp8835
tp8836
Rp8837
(dp8838
S'_encoding'
p8839
g8832
sg25
(dp8840
sg8834
I00
sbtp8841
sbsg35
(dp8842
S'screen_name'
p8843
VAya Igarashi
p8844
sS'money'
p8845
L0L
sS'last_login'
p8846
S'2013-12-29T03:45:12+00:00'
p8847
sS'exp'
p8848
L0L
sS'gmail'
p8849
Vladiclexxx@gmail.com
p8850
sS'id'
p8851
L3L
sS'date_joined'
p8852
S'2013-12-19T00:00:00+00:00'
p8853
ssba(iutil.request_logging
SimpleRequest
p8854
(dp8855
g3
g4
(g5
g6
Ntp8856
Rp8857
(dp8858
g10
(g4
(g11
g12
(dp8859
Vtid
p8860
(lp8861
V2
p8862
asVhasnum
p8863
(lp8864
V20
p8865
astp8866
Rp8867
(dp8868
g23
S'utf-8'
p8869
sg25
(dp8870
g8860
g8861
sg8863
g8864
ssS'_mutable'
p8871
I00
sbg4
(g11
g12
(dp8872
tp8873
Rp8874
(dp8875
S'_encoding'
p8876
g8869
sg25
(dp8877
sg8871
I00
sbtp8878
sbsg35
(dp8879
S'screen_name'
p8880
VAya Igarashi
p8881
sS'money'
p8882
L0L
sS'last_login'
p8883
S'2013-12-29T03:45:12+00:00'
p8884
sS'exp'
p8885
L0L
sS'date_joined'
p8886
S'2013-12-19T00:00:00+00:00'
p8887
sS'id'
p8888
L3L
sS'gmail'
p8889
Vladiclexxx@gmail.com
p8890
ssba(iutil.request_logging
SimpleRequest
p8891
(dp8892
g3
g4
(g5
g6
Ntp8893
Rp8894
(dp8895
g10
(g4
(g11
g12
(dp8896
Vtid
p8897
(lp8898
V3
p8899
asVhasnum
p8900
(lp8901
V0
p8902
astp8903
Rp8904
(dp8905
g23
S'utf-8'
p8906
sg25
(dp8907
g8897
g8898
sg8900
g8901
ssS'_mutable'
p8908
I00
sbg4
(g11
g12
(dp8909
tp8910
Rp8911
(dp8912
S'_encoding'
p8913
g8906
sg25
(dp8914
sg8908
I00
sbtp8915
sbsg35
(dp8916
S'screen_name'
p8917
VAya Igarashi
p8918
sS'money'
p8919
L0L
sS'last_login'
p8920
S'2013-12-29T03:45:12+00:00'
p8921
sS'exp'
p8922
L0L
sS'gmail'
p8923
Vladiclexxx@gmail.com
p8924
sS'id'
p8925
L3L
sS'date_joined'
p8926
S'2013-12-19T00:00:00+00:00'
p8927
ssba(iutil.request_logging
SimpleRequest
p8928
(dp8929
g3
g4
(g5
g6
Ntp8930
Rp8931
(dp8932
g10
(g4
(g11
g12
(dp8933
Vtid
p8934
(lp8935
V4
p8936
asVhasnum
p8937
(lp8938
V0
p8939
astp8940
Rp8941
(dp8942
g23
S'utf-8'
p8943
sg25
(dp8944
g8934
g8935
sg8937
g8938
ssS'_mutable'
p8945
I00
sbg4
(g11
g12
(dp8946
tp8947
Rp8948
(dp8949
S'_encoding'
p8950
g8943
sg25
(dp8951
sg8945
I00
sbtp8952
sbsg35
(dp8953
S'screen_name'
p8954
VAya Igarashi
p8955
sS'money'
p8956
L0L
sS'last_login'
p8957
S'2013-12-29T03:45:12+00:00'
p8958
sS'exp'
p8959
L0L
sS'date_joined'
p8960
S'2013-12-19T00:00:00+00:00'
p8961
sS'id'
p8962
L3L
sS'gmail'
p8963
Vladiclexxx@gmail.com
p8964
ssba(iutil.request_logging
SimpleRequest
p8965
(dp8966
g3
g4
(g5
g6
Ntp8967
Rp8968
(dp8969
g10
(g4
(g11
g12
(dp8970
Vtid
p8971
(lp8972
V0
p8973
asVhasnum
p8974
(lp8975
V0
p8976
astp8977
Rp8978
(dp8979
g23
S'utf-8'
p8980
sg25
(dp8981
g8971
g8972
sg8974
g8975
ssS'_mutable'
p8982
I00
sbg4
(g11
g12
(dp8983
tp8984
Rp8985
(dp8986
S'_encoding'
p8987
g8980
sg25
(dp8988
sg8982
I00
sbtp8989
sbsg35
(dp8990
S'screen_name'
p8991
VAya Igarashi
p8992
sS'money'
p8993
L0L
sS'last_login'
p8994
S'2013-12-29T03:45:34+00:00'
p8995
sS'exp'
p8996
L0L
sS'gmail'
p8997
Vladiclexxx@gmail.com
p8998
sS'id'
p8999
L3L
sS'date_joined'
p9000
S'2013-12-19T00:00:00+00:00'
p9001
ssba(iutil.request_logging
SimpleRequest
p9002
(dp9003
g3
g4
(g5
g6
Ntp9004
Rp9005
(dp9006
g10
(g4
(g11
g12
(dp9007
Vtid
p9008
(lp9009
V2
p9010
asVhasnum
p9011
(lp9012
V20
p9013
astp9014
Rp9015
(dp9016
g23
S'utf-8'
p9017
sg25
(dp9018
g9008
g9009
sg9011
g9012
ssS'_mutable'
p9019
I00
sbg4
(g11
g12
(dp9020
tp9021
Rp9022
(dp9023
S'_encoding'
p9024
g9017
sg25
(dp9025
sg9019
I00
sbtp9026
sbsg35
(dp9027
S'screen_name'
p9028
VAya Igarashi
p9029
sS'money'
p9030
L0L
sS'last_login'
p9031
S'2013-12-29T03:45:34+00:00'
p9032
sS'exp'
p9033
L0L
sS'date_joined'
p9034
S'2013-12-19T00:00:00+00:00'
p9035
sS'id'
p9036
L3L
sS'gmail'
p9037
Vladiclexxx@gmail.com
p9038
ssba(iutil.request_logging
SimpleRequest
p9039
(dp9040
g3
g4
(g5
g6
Ntp9041
Rp9042
(dp9043
g10
(g4
(g11
g12
(dp9044
Vtid
p9045
(lp9046
V3
p9047
asVhasnum
p9048
(lp9049
V0
p9050
astp9051
Rp9052
(dp9053
g23
S'utf-8'
p9054
sg25
(dp9055
g9045
g9046
sg9048
g9049
ssS'_mutable'
p9056
I00
sbg4
(g11
g12
(dp9057
tp9058
Rp9059
(dp9060
S'_encoding'
p9061
g9054
sg25
(dp9062
sg9056
I00
sbtp9063
sbsg35
(dp9064
S'screen_name'
p9065
VAya Igarashi
p9066
sS'money'
p9067
L0L
sS'last_login'
p9068
S'2013-12-29T03:45:34+00:00'
p9069
sS'exp'
p9070
L0L
sS'gmail'
p9071
Vladiclexxx@gmail.com
p9072
sS'id'
p9073
L3L
sS'date_joined'
p9074
S'2013-12-19T00:00:00+00:00'
p9075
ssba(iutil.request_logging
SimpleRequest
p9076
(dp9077
g3
g4
(g5
g6
Ntp9078
Rp9079
(dp9080
g10
(g4
(g11
g12
(dp9081
Vtid
p9082
(lp9083
V4
p9084
asVhasnum
p9085
(lp9086
V0
p9087
astp9088
Rp9089
(dp9090
g23
S'utf-8'
p9091
sg25
(dp9092
g9082
g9083
sg9085
g9086
ssS'_mutable'
p9093
I00
sbg4
(g11
g12
(dp9094
tp9095
Rp9096
(dp9097
S'_encoding'
p9098
g9091
sg25
(dp9099
sg9093
I00
sbtp9100
sbsg35
(dp9101
S'screen_name'
p9102
VAya Igarashi
p9103
sS'money'
p9104
L0L
sS'last_login'
p9105
S'2013-12-29T03:45:34+00:00'
p9106
sS'exp'
p9107
L0L
sS'date_joined'
p9108
S'2013-12-19T00:00:00+00:00'
p9109
sS'id'
p9110
L3L
sS'gmail'
p9111
Vladiclexxx@gmail.com
p9112
ssba(iutil.request_logging
SimpleRequest
p9113
(dp9114
g3
g4
(g5
g6
Ntp9115
Rp9116
(dp9117
g10
(g4
(g11
g12
(dp9118
Vtid
p9119
(lp9120
V2
p9121
asVhasnum
p9122
(lp9123
V1
p9124
astp9125
Rp9126
(dp9127
g23
S'utf-8'
p9128
sg25
(dp9129
g9119
g9120
sg9122
g9123
ssS'_mutable'
p9130
I00
sbg4
(g11
g12
(dp9131
tp9132
Rp9133
(dp9134
S'_encoding'
p9135
g9128
sg25
(dp9136
sg9130
I00
sbtp9137
sbsg35
(dp9138
S'screen_name'
p9139
VAya Igarashi
p9140
sS'money'
p9141
L0L
sS'last_login'
p9142
S'2013-12-29T03:45:34+00:00'
p9143
sS'exp'
p9144
L0L
sS'gmail'
p9145
Vladiclexxx@gmail.com
p9146
sS'id'
p9147
L3L
sS'date_joined'
p9148
S'2013-12-19T00:00:00+00:00'
p9149
ssba(iutil.request_logging
SimpleRequest
p9150
(dp9151
g3
g4
(g5
g6
Ntp9152
Rp9153
(dp9154
g10
(g4
(g11
g12
(dp9155
Vtid
p9156
(lp9157
V0
p9158
asVhasnum
p9159
(lp9160
V116
p9161
astp9162
Rp9163
(dp9164
g23
S'utf-8'
p9165
sg25
(dp9166
g9156
g9157
sg9159
g9160
ssS'_mutable'
p9167
I00
sbg4
(g11
g12
(dp9168
tp9169
Rp9170
(dp9171
S'_encoding'
p9172
g9165
sg25
(dp9173
sg9167
I00
sbtp9174
sbsg35
(dp9175
S'screen_name'
p9176
VAya Igarashi
p9177
sS'money'
p9178
L0L
sS'last_login'
p9179
S'2013-12-29T03:45:57+00:00'
p9180
sS'exp'
p9181
L0L
sS'date_joined'
p9182
S'2013-12-19T00:00:00+00:00'
p9183
sS'id'
p9184
L3L
sS'gmail'
p9185
Vladiclexxx@gmail.com
p9186
ssba(iutil.request_logging
SimpleRequest
p9187
(dp9188
g3
g4
(g5
g6
Ntp9189
Rp9190
(dp9191
g10
(g4
(g11
g12
(dp9192
Vtid
p9193
(lp9194
V2
p9195
asVhasnum
p9196
(lp9197
V20
p9198
astp9199
Rp9200
(dp9201
g23
S'utf-8'
p9202
sg25
(dp9203
g9193
g9194
sg9196
g9197
ssS'_mutable'
p9204
I00
sbg4
(g11
g12
(dp9205
tp9206
Rp9207
(dp9208
S'_encoding'
p9209
g9202
sg25
(dp9210
sg9204
I00
sbtp9211
sbsg35
(dp9212
S'screen_name'
p9213
VAya Igarashi
p9214
sS'money'
p9215
L0L
sS'last_login'
p9216
S'2013-12-29T03:45:57+00:00'
p9217
sS'exp'
p9218
L0L
sS'gmail'
p9219
Vladiclexxx@gmail.com
p9220
sS'id'
p9221
L3L
sS'date_joined'
p9222
S'2013-12-19T00:00:00+00:00'
p9223
ssba(iutil.request_logging
SimpleRequest
p9224
(dp9225
g3
g4
(g5
g6
Ntp9226
Rp9227
(dp9228
g10
(g4
(g11
g12
(dp9229
Vtid
p9230
(lp9231
V3
p9232
asVhasnum
p9233
(lp9234
V0
p9235
astp9236
Rp9237
(dp9238
g23
S'utf-8'
p9239
sg25
(dp9240
g9230
g9231
sg9233
g9234
ssS'_mutable'
p9241
I00
sbg4
(g11
g12
(dp9242
tp9243
Rp9244
(dp9245
S'_encoding'
p9246
g9239
sg25
(dp9247
sg9241
I00
sbtp9248
sbsg35
(dp9249
S'screen_name'
p9250
VAya Igarashi
p9251
sS'money'
p9252
L0L
sS'last_login'
p9253
S'2013-12-29T03:45:57+00:00'
p9254
sS'exp'
p9255
L0L
sS'date_joined'
p9256
S'2013-12-19T00:00:00+00:00'
p9257
sS'id'
p9258
L3L
sS'gmail'
p9259
Vladiclexxx@gmail.com
p9260
ssba(iutil.request_logging
SimpleRequest
p9261
(dp9262
g3
g4
(g5
g6
Ntp9263
Rp9264
(dp9265
g10
(g4
(g11
g12
(dp9266
Vtid
p9267
(lp9268
V4
p9269
asVhasnum
p9270
(lp9271
V0
p9272
astp9273
Rp9274
(dp9275
g23
S'utf-8'
p9276
sg25
(dp9277
g9267
g9268
sg9270
g9271
ssS'_mutable'
p9278
I00
sbg4
(g11
g12
(dp9279
tp9280
Rp9281
(dp9282
S'_encoding'
p9283
g9276
sg25
(dp9284
sg9278
I00
sbtp9285
sbsg35
(dp9286
S'screen_name'
p9287
VAya Igarashi
p9288
sS'money'
p9289
L0L
sS'last_login'
p9290
S'2013-12-29T03:45:57+00:00'
p9291
sS'exp'
p9292
L0L
sS'gmail'
p9293
Vladiclexxx@gmail.com
p9294
sS'id'
p9295
L3L
sS'date_joined'
p9296
S'2013-12-19T00:00:00+00:00'
p9297
ssba(iutil.request_logging
SimpleRequest
p9298
(dp9299
g3
g4
(g5
g6
Ntp9300
Rp9301
(dp9302
g10
(g4
(g11
g12
(dp9303
Vtid
p9304
(lp9305
V0
p9306
asVhasnum
p9307
(lp9308
V115
p9309
astp9310
Rp9311
(dp9312
g23
S'utf-8'
p9313
sg25
(dp9314
g9304
g9305
sg9307
g9308
ssS'_mutable'
p9315
I00
sbg4
(g11
g12
(dp9316
tp9317
Rp9318
(dp9319
S'_encoding'
p9320
g9313
sg25
(dp9321
sg9315
I00
sbtp9322
sbsg35
(dp9323
S'screen_name'
p9324
VAya Igarashi
p9325
sS'money'
p9326
L0L
sS'last_login'
p9327
S'2013-12-29T03:46:26+00:00'
p9328
sS'exp'
p9329
L0L
sS'date_joined'
p9330
S'2013-12-19T00:00:00+00:00'
p9331
sS'id'
p9332
L3L
sS'gmail'
p9333
Vladiclexxx@gmail.com
p9334
ssba(iutil.request_logging
SimpleRequest
p9335
(dp9336
g3
g4
(g5
g6
Ntp9337
Rp9338
(dp9339
g10
(g4
(g11
g12
(dp9340
Vtid
p9341
(lp9342
V2
p9343
asVhasnum
p9344
(lp9345
V20
p9346
astp9347
Rp9348
(dp9349
g23
S'utf-8'
p9350
sg25
(dp9351
g9341
g9342
sg9344
g9345
ssS'_mutable'
p9352
I00
sbg4
(g11
g12
(dp9353
tp9354
Rp9355
(dp9356
S'_encoding'
p9357
g9350
sg25
(dp9358
sg9352
I00
sbtp9359
sbsg35
(dp9360
S'screen_name'
p9361
VAya Igarashi
p9362
sS'money'
p9363
L0L
sS'last_login'
p9364
S'2013-12-29T03:46:26+00:00'
p9365
sS'exp'
p9366
L0L
sS'gmail'
p9367
Vladiclexxx@gmail.com
p9368
sS'id'
p9369
L3L
sS'date_joined'
p9370
S'2013-12-19T00:00:00+00:00'
p9371
ssba(iutil.request_logging
SimpleRequest
p9372
(dp9373
g3
g4
(g5
g6
Ntp9374
Rp9375
(dp9376
g10
(g4
(g11
g12
(dp9377
Vtid
p9378
(lp9379
V3
p9380
asVhasnum
p9381
(lp9382
V0
p9383
astp9384
Rp9385
(dp9386
g23
S'utf-8'
p9387
sg25
(dp9388
g9378
g9379
sg9381
g9382
ssS'_mutable'
p9389
I00
sbg4
(g11
g12
(dp9390
tp9391
Rp9392
(dp9393
S'_encoding'
p9394
g9387
sg25
(dp9395
sg9389
I00
sbtp9396
sbsg35
(dp9397
S'screen_name'
p9398
VAya Igarashi
p9399
sS'money'
p9400
L0L
sS'last_login'
p9401
S'2013-12-29T03:46:26+00:00'
p9402
sS'exp'
p9403
L0L
sS'date_joined'
p9404
S'2013-12-19T00:00:00+00:00'
p9405
sS'id'
p9406
L3L
sS'gmail'
p9407
Vladiclexxx@gmail.com
p9408
ssba(iutil.request_logging
SimpleRequest
p9409
(dp9410
g3
g4
(g5
g6
Ntp9411
Rp9412
(dp9413
g10
(g4
(g11
g12
(dp9414
Vtid
p9415
(lp9416
V4
p9417
asVhasnum
p9418
(lp9419
V0
p9420
astp9421
Rp9422
(dp9423
g23
S'utf-8'
p9424
sg25
(dp9425
g9415
g9416
sg9418
g9419
ssS'_mutable'
p9426
I00
sbg4
(g11
g12
(dp9427
tp9428
Rp9429
(dp9430
S'_encoding'
p9431
g9424
sg25
(dp9432
sg9426
I00
sbtp9433
sbsg35
(dp9434
S'screen_name'
p9435
VAya Igarashi
p9436
sS'money'
p9437
L0L
sS'last_login'
p9438
S'2013-12-29T03:46:26+00:00'
p9439
sS'exp'
p9440
L0L
sS'gmail'
p9441
Vladiclexxx@gmail.com
p9442
sS'id'
p9443
L3L
sS'date_joined'
p9444
S'2013-12-19T00:00:00+00:00'
p9445
ssba(iutil.request_logging
SimpleRequest
p9446
(dp9447
g3
g4
(g5
g6
Ntp9448
Rp9449
(dp9450
g10
(g4
(g11
g12
(dp9451
Vtid
p9452
(lp9453
V0
p9454
asVhasnum
p9455
(lp9456
V114
p9457
astp9458
Rp9459
(dp9460
g23
S'utf-8'
p9461
sg25
(dp9462
g9452
g9453
sg9455
g9456
ssS'_mutable'
p9463
I00
sbg4
(g11
g12
(dp9464
tp9465
Rp9466
(dp9467
S'_encoding'
p9468
g9461
sg25
(dp9469
sg9463
I00
sbtp9470
sbsg35
(dp9471
S'screen_name'
p9472
VAya Igarashi
p9473
sS'money'
p9474
L0L
sS'last_login'
p9475
S'2013-12-29T03:46:45+00:00'
p9476
sS'exp'
p9477
L0L
sS'date_joined'
p9478
S'2013-12-19T00:00:00+00:00'
p9479
sS'id'
p9480
L3L
sS'gmail'
p9481
Vladiclexxx@gmail.com
p9482
ssba(iutil.request_logging
SimpleRequest
p9483
(dp9484
g3
g4
(g5
g6
Ntp9485
Rp9486
(dp9487
g10
(g4
(g11
g12
(dp9488
Vtid
p9489
(lp9490
V2
p9491
asVhasnum
p9492
(lp9493
V20
p9494
astp9495
Rp9496
(dp9497
g23
S'utf-8'
p9498
sg25
(dp9499
g9489
g9490
sg9492
g9493
ssS'_mutable'
p9500
I00
sbg4
(g11
g12
(dp9501
tp9502
Rp9503
(dp9504
S'_encoding'
p9505
g9498
sg25
(dp9506
sg9500
I00
sbtp9507
sbsg35
(dp9508
S'screen_name'
p9509
VAya Igarashi
p9510
sS'money'
p9511
L0L
sS'last_login'
p9512
S'2013-12-29T03:46:45+00:00'
p9513
sS'exp'
p9514
L0L
sS'gmail'
p9515
Vladiclexxx@gmail.com
p9516
sS'id'
p9517
L3L
sS'date_joined'
p9518
S'2013-12-19T00:00:00+00:00'
p9519
ssba(iutil.request_logging
SimpleRequest
p9520
(dp9521
g3
g4
(g5
g6
Ntp9522
Rp9523
(dp9524
g10
(g4
(g11
g12
(dp9525
Vtid
p9526
(lp9527
V3
p9528
asVhasnum
p9529
(lp9530
V0
p9531
astp9532
Rp9533
(dp9534
g23
S'utf-8'
p9535
sg25
(dp9536
g9526
g9527
sg9529
g9530
ssS'_mutable'
p9537
I00
sbg4
(g11
g12
(dp9538
tp9539
Rp9540
(dp9541
S'_encoding'
p9542
g9535
sg25
(dp9543
sg9537
I00
sbtp9544
sbsg35
(dp9545
S'screen_name'
p9546
VAya Igarashi
p9547
sS'money'
p9548
L0L
sS'last_login'
p9549
S'2013-12-29T03:46:45+00:00'
p9550
sS'exp'
p9551
L0L
sS'date_joined'
p9552
S'2013-12-19T00:00:00+00:00'
p9553
sS'id'
p9554
L3L
sS'gmail'
p9555
Vladiclexxx@gmail.com
p9556
ssba(iutil.request_logging
SimpleRequest
p9557
(dp9558
g3
g4
(g5
g6
Ntp9559
Rp9560
(dp9561
g10
(g4
(g11
g12
(dp9562
Vtid
p9563
(lp9564
V4
p9565
asVhasnum
p9566
(lp9567
V0
p9568
astp9569
Rp9570
(dp9571
g23
S'utf-8'
p9572
sg25
(dp9573
g9563
g9564
sg9566
g9567
ssS'_mutable'
p9574
I00
sbg4
(g11
g12
(dp9575
tp9576
Rp9577
(dp9578
S'_encoding'
p9579
g9572
sg25
(dp9580
sg9574
I00
sbtp9581
sbsg35
(dp9582
S'screen_name'
p9583
VAya Igarashi
p9584
sS'money'
p9585
L0L
sS'last_login'
p9586
S'2013-12-29T03:46:45+00:00'
p9587
sS'exp'
p9588
L0L
sS'gmail'
p9589
Vladiclexxx@gmail.com
p9590
sS'id'
p9591
L3L
sS'date_joined'
p9592
S'2013-12-19T00:00:00+00:00'
p9593
ssba(iutil.request_logging
SimpleRequest
p9594
(dp9595
g3
g4
(g5
g6
Ntp9596
Rp9597
(dp9598
g10
(g4
(g11
g12
(dp9599
Vtid
p9600
(lp9601
V0
p9602
asVhasnum
p9603
(lp9604
V2
p9605
astp9606
Rp9607
(dp9608
g23
S'utf-8'
p9609
sg25
(dp9610
g9600
g9601
sg9603
g9604
ssS'_mutable'
p9611
I00
sbg4
(g11
g12
(dp9612
tp9613
Rp9614
(dp9615
S'_encoding'
p9616
g9609
sg25
(dp9617
sg9611
I00
sbtp9618
sbsg35
(dp9619
S'screen_name'
p9620
VAya Igarashi
p9621
sS'money'
p9622
L0L
sS'last_login'
p9623
S'2013-12-29T04:04:46+00:00'
p9624
sS'exp'
p9625
L0L
sS'date_joined'
p9626
S'2013-12-19T00:00:00+00:00'
p9627
sS'id'
p9628
L3L
sS'gmail'
p9629
Vladiclexxx@gmail.com
p9630
ssba(iutil.request_logging
SimpleRequest
p9631
(dp9632
g3
g4
(g5
g6
Ntp9633
Rp9634
(dp9635
g10
(g4
(g11
g12
(dp9636
Vtid
p9637
(lp9638
V2
p9639
asVhasnum
p9640
(lp9641
V0
p9642
astp9643
Rp9644
(dp9645
g23
S'utf-8'
p9646
sg25
(dp9647
g9637
g9638
sg9640
g9641
ssS'_mutable'
p9648
I00
sbg4
(g11
g12
(dp9649
tp9650
Rp9651
(dp9652
S'_encoding'
p9653
g9646
sg25
(dp9654
sg9648
I00
sbtp9655
sbsg35
(dp9656
S'screen_name'
p9657
VAya Igarashi
p9658
sS'money'
p9659
L0L
sS'last_login'
p9660
S'2013-12-29T04:04:46+00:00'
p9661
sS'exp'
p9662
L0L
sS'gmail'
p9663
Vladiclexxx@gmail.com
p9664
sS'id'
p9665
L3L
sS'date_joined'
p9666
S'2013-12-19T00:00:00+00:00'
p9667
ssba(iutil.request_logging
SimpleRequest
p9668
(dp9669
g3
g4
(g5
g6
Ntp9670
Rp9671
(dp9672
g10
(g4
(g11
g12
(dp9673
Vtid
p9674
(lp9675
V3
p9676
asVhasnum
p9677
(lp9678
V0
p9679
astp9680
Rp9681
(dp9682
g23
S'utf-8'
p9683
sg25
(dp9684
g9674
g9675
sg9677
g9678
ssS'_mutable'
p9685
I00
sbg4
(g11
g12
(dp9686
tp9687
Rp9688
(dp9689
S'_encoding'
p9690
g9683
sg25
(dp9691
sg9685
I00
sbtp9692
sbsg35
(dp9693
S'screen_name'
p9694
VAya Igarashi
p9695
sS'money'
p9696
L0L
sS'last_login'
p9697
S'2013-12-29T04:04:46+00:00'
p9698
sS'exp'
p9699
L0L
sS'date_joined'
p9700
S'2013-12-19T00:00:00+00:00'
p9701
sS'id'
p9702
L3L
sS'gmail'
p9703
Vladiclexxx@gmail.com
p9704
ssba(iutil.request_logging
SimpleRequest
p9705
(dp9706
g3
g4
(g5
g6
Ntp9707
Rp9708
(dp9709
g10
(g4
(g11
g12
(dp9710
Vtid
p9711
(lp9712
V4
p9713
asVhasnum
p9714
(lp9715
V0
p9716
astp9717
Rp9718
(dp9719
g23
S'utf-8'
p9720
sg25
(dp9721
g9711
g9712
sg9714
g9715
ssS'_mutable'
p9722
I00
sbg4
(g11
g12
(dp9723
tp9724
Rp9725
(dp9726
S'_encoding'
p9727
g9720
sg25
(dp9728
sg9722
I00
sbtp9729
sbsg35
(dp9730
S'screen_name'
p9731
VAya Igarashi
p9732
sS'money'
p9733
L0L
sS'last_login'
p9734
S'2013-12-29T04:04:46+00:00'
p9735
sS'exp'
p9736
L0L
sS'gmail'
p9737
Vladiclexxx@gmail.com
p9738
sS'id'
p9739
L3L
sS'date_joined'
p9740
S'2013-12-19T00:00:00+00:00'
p9741
ssba(iutil.request_logging
SimpleRequest
p9742
(dp9743
g3
g4
(g5
g6
Ntp9744
Rp9745
(dp9746
g10
(g4
(g11
g12
(dp9747
Vtid
p9748
(lp9749
V0
p9750
asVhasnum
p9751
(lp9752
V16
p9753
astp9754
Rp9755
(dp9756
g23
S'utf-8'
p9757
sg25
(dp9758
g9748
g9749
sg9751
g9752
ssS'_mutable'
p9759
I00
sbg4
(g11
g12
(dp9760
tp9761
Rp9762
(dp9763
S'_encoding'
p9764
g9757
sg25
(dp9765
sg9759
I00
sbtp9766
sbsg35
(dp9767
S'screen_name'
p9768
V\u51a8\u7530\u88d5\u5b50
p9769
sS'money'
p9770
L0L
sS'last_login'
p9771
S'2013-12-29T05:41:26+00:00'
p9772
sS'exp'
p9773
L0L
sS'date_joined'
p9774
S'2013-12-19T07:41:15+00:00'
p9775
sS'id'
p9776
L8L
sS'gmail'
p9777
Vpreferire@gmail.com
p9778
ssba(iutil.request_logging
SimpleRequest
p9779
(dp9780
g3
g4
(g5
g6
Ntp9781
Rp9782
(dp9783
g10
(g4
(g11
g12
(dp9784
Vtid
p9785
(lp9786
V1
p9787
asVhasnum
p9788
(lp9789
V0
p9790
astp9791
Rp9792
(dp9793
g23
S'utf-8'
p9794
sg25
(dp9795
g9785
g9786
sg9788
g9789
ssS'_mutable'
p9796
I00
sbg4
(g11
g12
(dp9797
tp9798
Rp9799
(dp9800
S'_encoding'
p9801
g9794
sg25
(dp9802
sg9796
I00
sbtp9803
sbsg35
(dp9804
S'screen_name'
p9805
V\u51a8\u7530\u88d5\u5b50
p9806
sS'money'
p9807
L0L
sS'last_login'
p9808
S'2013-12-29T05:41:26+00:00'
p9809
sS'exp'
p9810
L0L
sS'gmail'
p9811
Vpreferire@gmail.com
p9812
sS'id'
p9813
L8L
sS'date_joined'
p9814
S'2013-12-19T07:41:15+00:00'
p9815
ssba(iutil.request_logging
SimpleRequest
p9816
(dp9817
g3
g4
(g5
g6
Ntp9818
Rp9819
(dp9820
g10
(g4
(g11
g12
(dp9821
Vtid
p9822
(lp9823
V2
p9824
asVhasnum
p9825
(lp9826
V61
p9827
astp9828
Rp9829
(dp9830
g23
S'utf-8'
p9831
sg25
(dp9832
g9822
g9823
sg9825
g9826
ssS'_mutable'
p9833
I00
sbg4
(g11
g12
(dp9834
tp9835
Rp9836
(dp9837
S'_encoding'
p9838
g9831
sg25
(dp9839
sg9833
I00
sbtp9840
sbsg35
(dp9841
S'screen_name'
p9842
V\u51a8\u7530\u88d5\u5b50
p9843
sS'money'
p9844
L0L
sS'last_login'
p9845
S'2013-12-29T05:41:26+00:00'
p9846
sS'exp'
p9847
L0L
sS'date_joined'
p9848
S'2013-12-19T07:41:15+00:00'
p9849
sS'id'
p9850
L8L
sS'gmail'
p9851
Vpreferire@gmail.com
p9852
ssba(iutil.request_logging
SimpleRequest
p9853
(dp9854
g3
g4
(g5
g6
Ntp9855
Rp9856
(dp9857
g10
(g4
(g11
g12
(dp9858
Vtid
p9859
(lp9860
V3
p9861
asVhasnum
p9862
(lp9863
V105
p9864
astp9865
Rp9866
(dp9867
g23
S'utf-8'
p9868
sg25
(dp9869
g9859
g9860
sg9862
g9863
ssS'_mutable'
p9870
I00
sbg4
(g11
g12
(dp9871
tp9872
Rp9873
(dp9874
S'_encoding'
p9875
g9868
sg25
(dp9876
sg9870
I00
sbtp9877
sbsg35
(dp9878
S'screen_name'
p9879
V\u51a8\u7530\u88d5\u5b50
p9880
sS'money'
p9881
L0L
sS'last_login'
p9882
S'2013-12-29T05:41:26+00:00'
p9883
sS'exp'
p9884
L0L
sS'gmail'
p9885
Vpreferire@gmail.com
p9886
sS'id'
p9887
L8L
sS'date_joined'
p9888
S'2013-12-19T07:41:15+00:00'
p9889
ssba(iutil.request_logging
SimpleRequest
p9890
(dp9891
g3
g4
(g5
g6
Ntp9892
Rp9893
(dp9894
g10
(g4
(g11
g12
(dp9895
Vtid
p9896
(lp9897
V4
p9898
asVhasnum
p9899
(lp9900
V2
p9901
astp9902
Rp9903
(dp9904
g23
S'utf-8'
p9905
sg25
(dp9906
g9896
g9897
sg9899
g9900
ssS'_mutable'
p9907
I00
sbg4
(g11
g12
(dp9908
tp9909
Rp9910
(dp9911
S'_encoding'
p9912
g9905
sg25
(dp9913
sg9907
I00
sbtp9914
sbsg35
(dp9915
S'screen_name'
p9916
V\u51a8\u7530\u88d5\u5b50
p9917
sS'money'
p9918
L0L
sS'last_login'
p9919
S'2013-12-29T05:41:26+00:00'
p9920
sS'exp'
p9921
L0L
sS'date_joined'
p9922
S'2013-12-19T07:41:15+00:00'
p9923
sS'id'
p9924
L8L
sS'gmail'
p9925
Vpreferire@gmail.com
p9926
ssba(iutil.request_logging
SimpleRequest
p9927
(dp9928
g3
g4
(g5
g6
Ntp9929
Rp9930
(dp9931
g10
(g4
(g11
g12
(dp9932
Vtid
p9933
(lp9934
V12
p9935
asVhasnum
p9936
(lp9937
V4
p9938
astp9939
Rp9940
(dp9941
g23
S'utf-8'
p9942
sg25
(dp9943
g9933
g9934
sg9936
g9937
ssS'_mutable'
p9944
I00
sbg4
(g11
g12
(dp9945
tp9946
Rp9947
(dp9948
S'_encoding'
p9949
g9942
sg25
(dp9950
sg9944
I00
sbtp9951
sbsg35
(dp9952
S'screen_name'
p9953
V\u51a8\u7530\u88d5\u5b50
p9954
sS'money'
p9955
L0L
sS'last_login'
p9956
S'2013-12-29T05:41:26+00:00'
p9957
sS'exp'
p9958
L0L
sS'gmail'
p9959
Vpreferire@gmail.com
p9960
sS'id'
p9961
L8L
sS'date_joined'
p9962
S'2013-12-19T07:41:15+00:00'
p9963
ssba(iutil.request_logging
SimpleRequest
p9964
(dp9965
g3
g4
(g5
g6
Ntp9966
Rp9967
(dp9968
g10
(g4
(g11
g12
(dp9969
Vtid
p9970
(lp9971
V0
p9972
asVhasnum
p9973
(lp9974
V14
p9975
astp9976
Rp9977
(dp9978
g23
S'utf-8'
p9979
sg25
(dp9980
g9970
g9971
sg9973
g9974
ssS'_mutable'
p9981
I00
sbg4
(g11
g12
(dp9982
tp9983
Rp9984
(dp9985
S'_encoding'
p9986
g9979
sg25
(dp9987
sg9981
I00
sbtp9988
sbsg35
(dp9989
S'screen_name'
p9990
V\u51a8\u7530\u88d5\u5b50
p9991
sS'money'
p9992
L0L
sS'last_login'
p9993
S'2013-12-29T05:42:21+00:00'
p9994
sS'exp'
p9995
L0L
sS'date_joined'
p9996
S'2013-12-19T07:41:15+00:00'
p9997
sS'id'
p9998
L8L
sS'gmail'
p9999
Vpreferire@gmail.com
p10000
ssba(iutil.request_logging
SimpleRequest
p10001
(dp10002
g3
g4
(g5
g6
Ntp10003
Rp10004
(dp10005
g10
(g4
(g11
g12
(dp10006
Vtid
p10007
(lp10008
V1
p10009
asVhasnum
p10010
(lp10011
V0
p10012
astp10013
Rp10014
(dp10015
g23
S'utf-8'
p10016
sg25
(dp10017
g10007
g10008
sg10010
g10011
ssS'_mutable'
p10018
I00
sbg4
(g11
g12
(dp10019
tp10020
Rp10021
(dp10022
S'_encoding'
p10023
g10016
sg25
(dp10024
sg10018
I00
sbtp10025
sbsg35
(dp10026
S'screen_name'
p10027
V\u51a8\u7530\u88d5\u5b50
p10028
sS'money'
p10029
L0L
sS'last_login'
p10030
S'2013-12-29T05:42:21+00:00'
p10031
sS'exp'
p10032
L0L
sS'gmail'
p10033
Vpreferire@gmail.com
p10034
sS'id'
p10035
L8L
sS'date_joined'
p10036
S'2013-12-19T07:41:15+00:00'
p10037
ssba(iutil.request_logging
SimpleRequest
p10038
(dp10039
g3
g4
(g5
g6
Ntp10040
Rp10041
(dp10042
g10
(g4
(g11
g12
(dp10043
Vtid
p10044
(lp10045
V2
p10046
asVhasnum
p10047
(lp10048
V61
p10049
astp10050
Rp10051
(dp10052
g23
S'utf-8'
p10053
sg25
(dp10054
g10044
g10045
sg10047
g10048
ssS'_mutable'
p10055
I00
sbg4
(g11
g12
(dp10056
tp10057
Rp10058
(dp10059
S'_encoding'
p10060
g10053
sg25
(dp10061
sg10055
I00
sbtp10062
sbsg35
(dp10063
S'screen_name'
p10064
V\u51a8\u7530\u88d5\u5b50
p10065
sS'money'
p10066
L0L
sS'last_login'
p10067
S'2013-12-29T05:42:21+00:00'
p10068
sS'exp'
p10069
L0L
sS'date_joined'
p10070
S'2013-12-19T07:41:15+00:00'
p10071
sS'id'
p10072
L8L
sS'gmail'
p10073
Vpreferire@gmail.com
p10074
ssba(iutil.request_logging
SimpleRequest
p10075
(dp10076
g3
g4
(g5
g6
Ntp10077
Rp10078
(dp10079
g10
(g4
(g11
g12
(dp10080
Vtid
p10081
(lp10082
V3
p10083
asVhasnum
p10084
(lp10085
V105
p10086
astp10087
Rp10088
(dp10089
g23
S'utf-8'
p10090
sg25
(dp10091
g10081
g10082
sg10084
g10085
ssS'_mutable'
p10092
I00
sbg4
(g11
g12
(dp10093
tp10094
Rp10095
(dp10096
S'_encoding'
p10097
g10090
sg25
(dp10098
sg10092
I00
sbtp10099
sbsg35
(dp10100
S'screen_name'
p10101
V\u51a8\u7530\u88d5\u5b50
p10102
sS'money'
p10103
L0L
sS'last_login'
p10104
S'2013-12-29T05:42:21+00:00'
p10105
sS'exp'
p10106
L0L
sS'gmail'
p10107
Vpreferire@gmail.com
p10108
sS'id'
p10109
L8L
sS'date_joined'
p10110
S'2013-12-19T07:41:15+00:00'
p10111
ssba(iutil.request_logging
SimpleRequest
p10112
(dp10113
g3
g4
(g5
g6
Ntp10114
Rp10115
(dp10116
g10
(g4
(g11
g12
(dp10117
Vtid
p10118
(lp10119
V4
p10120
asVhasnum
p10121
(lp10122
V2
p10123
astp10124
Rp10125
(dp10126
g23
S'utf-8'
p10127
sg25
(dp10128
g10118
g10119
sg10121
g10122
ssS'_mutable'
p10129
I00
sbg4
(g11
g12
(dp10130
tp10131
Rp10132
(dp10133
S'_encoding'
p10134
g10127
sg25
(dp10135
sg10129
I00
sbtp10136
sbsg35
(dp10137
S'screen_name'
p10138
V\u51a8\u7530\u88d5\u5b50
p10139
sS'money'
p10140
L0L
sS'last_login'
p10141
S'2013-12-29T05:42:21+00:00'
p10142
sS'exp'
p10143
L0L
sS'date_joined'
p10144
S'2013-12-19T07:41:15+00:00'
p10145
sS'id'
p10146
L8L
sS'gmail'
p10147
Vpreferire@gmail.com
p10148
ssba(iutil.request_logging
SimpleRequest
p10149
(dp10150
g3
g4
(g5
g6
Ntp10151
Rp10152
(dp10153
g10
(g4
(g11
g12
(dp10154
Vtid
p10155
(lp10156
V12
p10157
asVhasnum
p10158
(lp10159
V4
p10160
astp10161
Rp10162
(dp10163
g23
S'utf-8'
p10164
sg25
(dp10165
g10155
g10156
sg10158
g10159
ssS'_mutable'
p10166
I00
sbg4
(g11
g12
(dp10167
tp10168
Rp10169
(dp10170
S'_encoding'
p10171
g10164
sg25
(dp10172
sg10166
I00
sbtp10173
sbsg35
(dp10174
S'screen_name'
p10175
V\u51a8\u7530\u88d5\u5b50
p10176
sS'money'
p10177
L0L
sS'last_login'
p10178
S'2013-12-29T05:42:21+00:00'
p10179
sS'exp'
p10180
L0L
sS'gmail'
p10181
Vpreferire@gmail.com
p10182
sS'id'
p10183
L8L
sS'date_joined'
p10184
S'2013-12-19T07:41:15+00:00'
p10185
ssba(iutil.request_logging
SimpleRequest
p10186
(dp10187
g3
g4
(g5
g6
Ntp10188
Rp10189
(dp10190
g10
(g4
(g11
g12
(dp10191
Vtid
p10192
(lp10193
V0
p10194
asVhasnum
p10195
(lp10196
V1
p10197
astp10198
Rp10199
(dp10200
g23
S'utf-8'
p10201
sg25
(dp10202
g10192
g10193
sg10195
g10196
ssS'_mutable'
p10203
I00
sbg4
(g11
g12
(dp10204
tp10205
Rp10206
(dp10207
S'_encoding'
p10208
g10201
sg25
(dp10209
sg10203
I00
sbtp10210
sbsg35
(dp10211
S'screen_name'
p10212
V\u51a8\u7530\u88d5\u5b50
p10213
sS'money'
p10214
L0L
sS'last_login'
p10215
S'2013-12-29T05:42:21+00:00'
p10216
sS'exp'
p10217
L0L
sS'date_joined'
p10218
S'2013-12-19T07:41:15+00:00'
p10219
sS'id'
p10220
L8L
sS'gmail'
p10221
Vpreferire@gmail.com
p10222
ssba(iutil.request_logging
SimpleRequest
p10223
(dp10224
g3
g4
(g5
g6
Ntp10225
Rp10226
(dp10227
g10
(g4
(g11
g12
(dp10228
Vtid
p10229
(lp10230
V0
p10231
asVhasnum
p10232
(lp10233
V3
p10234
astp10235
Rp10236
(dp10237
g23
S'utf-8'
p10238
sg25
(dp10239
g10229
g10230
sg10232
g10233
ssS'_mutable'
p10240
I00
sbg4
(g11
g12
(dp10241
tp10242
Rp10243
(dp10244
S'_encoding'
p10245
g10238
sg25
(dp10246
sg10240
I00
sbtp10247
sbsg35
(dp10248
S'screen_name'
p10249
V\u6a29\u85e4\u514b\u5f66
p10250
sS'money'
p10251
L0L
sS'last_login'
p10252
S'2013-12-29T06:04:38+00:00'
p10253
sS'exp'
p10254
L0L
sS'gmail'
p10255
Vgondow3@gmail.com
p10256
sS'id'
p10257
L15L
sS'date_joined'
p10258
S'2013-12-28T12:40:24+00:00'
p10259
ssba(iutil.request_logging
SimpleRequest
p10260
(dp10261
g3
g4
(g5
g6
Ntp10262
Rp10263
(dp10264
g10
(g4
(g11
g12
(dp10265
Vtid
p10266
(lp10267
V1
p10268
asVhasnum
p10269
(lp10270
V27
p10271
astp10272
Rp10273
(dp10274
g23
S'utf-8'
p10275
sg25
(dp10276
g10266
g10267
sg10269
g10270
ssS'_mutable'
p10277
I00
sbg4
(g11
g12
(dp10278
tp10279
Rp10280
(dp10281
S'_encoding'
p10282
g10275
sg25
(dp10283
sg10277
I00
sbtp10284
sbsg35
(dp10285
S'screen_name'
p10286
V\u6a29\u85e4\u514b\u5f66
p10287
sS'money'
p10288
L0L
sS'last_login'
p10289
S'2013-12-29T06:04:38+00:00'
p10290
sS'exp'
p10291
L0L
sS'date_joined'
p10292
S'2013-12-28T12:40:24+00:00'
p10293
sS'id'
p10294
L15L
sS'gmail'
p10295
Vgondow3@gmail.com
p10296
ssba(iutil.request_logging
SimpleRequest
p10297
(dp10298
g3
g4
(g5
g6
Ntp10299
Rp10300
(dp10301
g10
(g4
(g11
g12
(dp10302
Vtid
p10303
(lp10304
V0
p10305
asVhasnum
p10306
(lp10307
V3
p10308
astp10309
Rp10310
(dp10311
g23
S'utf-8'
p10312
sg25
(dp10313
g10303
g10304
sg10306
g10307
ssS'_mutable'
p10314
I00
sbg4
(g11
g12
(dp10315
tp10316
Rp10317
(dp10318
S'_encoding'
p10319
g10312
sg25
(dp10320
sg10314
I00
sbtp10321
sbsg35
(dp10322
S'screen_name'
p10323
V\u6a29\u85e4\u514b\u5f66
p10324
sS'money'
p10325
L0L
sS'last_login'
p10326
S'2013-12-29T06:06:08+00:00'
p10327
sS'exp'
p10328
L0L
sS'gmail'
p10329
Vgondow3@gmail.com
p10330
sS'id'
p10331
L15L
sS'date_joined'
p10332
S'2013-12-28T12:40:24+00:00'
p10333
ssba(iutil.request_logging
SimpleRequest
p10334
(dp10335
g3
g4
(g5
g6
Ntp10336
Rp10337
(dp10338
g10
(g4
(g11
g12
(dp10339
Vtid
p10340
(lp10341
V1
p10342
asVhasnum
p10343
(lp10344
V27
p10345
astp10346
Rp10347
(dp10348
g23
S'utf-8'
p10349
sg25
(dp10350
g10340
g10341
sg10343
g10344
ssS'_mutable'
p10351
I00
sbg4
(g11
g12
(dp10352
tp10353
Rp10354
(dp10355
S'_encoding'
p10356
g10349
sg25
(dp10357
sg10351
I00
sbtp10358
sbsg35
(dp10359
S'screen_name'
p10360
V\u6a29\u85e4\u514b\u5f66
p10361
sS'money'
p10362
L0L
sS'last_login'
p10363
S'2013-12-29T06:06:08+00:00'
p10364
sS'exp'
p10365
L0L
sS'date_joined'
p10366
S'2013-12-28T12:40:24+00:00'
p10367
sS'id'
p10368
L15L
sS'gmail'
p10369
Vgondow3@gmail.com
p10370
ssba(iutil.request_logging
SimpleRequest
p10371
(dp10372
g3
g4
(g5
g6
Ntp10373
Rp10374
(dp10375
g10
(g4
(g11
g12
(dp10376
Vtid
p10377
(lp10378
V0
p10379
asVhasnum
p10380
(lp10381
V0
p10382
astp10383
Rp10384
(dp10385
g23
S'utf-8'
p10386
sg25
(dp10387
g10377
g10378
sg10380
g10381
ssS'_mutable'
p10388
I00
sbg4
(g11
g12
(dp10389
tp10390
Rp10391
(dp10392
S'_encoding'
p10393
g10386
sg25
(dp10394
sg10388
I00
sbtp10395
sbsg35
(dp10396
S'screen_name'
p10397
V\u6a29\u85e4\u514b\u5f66
p10398
sS'money'
p10399
L0L
sS'last_login'
p10400
S'2013-12-29T06:06:50+00:00'
p10401
sS'exp'
p10402
L0L
sS'gmail'
p10403
Vgondow3@gmail.com
p10404
sS'id'
p10405
L15L
sS'date_joined'
p10406
S'2013-12-28T12:40:24+00:00'
p10407
ssba(iutil.request_logging
SimpleRequest
p10408
(dp10409
g3
g4
(g5
g6
Ntp10410
Rp10411
(dp10412
g10
(g4
(g11
g12
(dp10413
Vtid
p10414
(lp10415
V1
p10416
asVhasnum
p10417
(lp10418
V27
p10419
astp10420
Rp10421
(dp10422
g23
S'utf-8'
p10423
sg25
(dp10424
g10414
g10415
sg10417
g10418
ssS'_mutable'
p10425
I00
sbg4
(g11
g12
(dp10426
tp10427
Rp10428
(dp10429
S'_encoding'
p10430
g10423
sg25
(dp10431
sg10425
I00
sbtp10432
sbsg35
(dp10433
S'screen_name'
p10434
V\u6a29\u85e4\u514b\u5f66
p10435
sS'money'
p10436
L0L
sS'last_login'
p10437
S'2013-12-29T06:06:50+00:00'
p10438
sS'exp'
p10439
L0L
sS'date_joined'
p10440
S'2013-12-28T12:40:24+00:00'
p10441
sS'id'
p10442
L15L
sS'gmail'
p10443
Vgondow3@gmail.com
p10444
ssba(iutil.request_logging
SimpleRequest
p10445
(dp10446
g3
g4
(g5
g6
Ntp10447
Rp10448
(dp10449
g10
(g4
(g11
g12
(dp10450
Vtid
p10451
(lp10452
V0
p10453
asVhasnum
p10454
(lp10455
V14
p10456
astp10457
Rp10458
(dp10459
g23
S'utf-8'
p10460
sg25
(dp10461
g10451
g10452
sg10454
g10455
ssS'_mutable'
p10462
I00
sbg4
(g11
g12
(dp10463
tp10464
Rp10465
(dp10466
S'_encoding'
p10467
g10460
sg25
(dp10468
sg10462
I00
sbtp10469
sbsg35
(dp10470
S'screen_name'
p10471
V\u51a8\u7530\u88d5\u5b50
p10472
sS'money'
p10473
L0L
sS'last_login'
p10474
S'2013-12-29T06:17:39+00:00'
p10475
sS'exp'
p10476
L0L
sS'gmail'
p10477
Vpreferire@gmail.com
p10478
sS'id'
p10479
L8L
sS'date_joined'
p10480
S'2013-12-19T07:41:15+00:00'
p10481
ssba(iutil.request_logging
SimpleRequest
p10482
(dp10483
g3
g4
(g5
g6
Ntp10484
Rp10485
(dp10486
g10
(g4
(g11
g12
(dp10487
Vtid
p10488
(lp10489
V1
p10490
asVhasnum
p10491
(lp10492
V2
p10493
astp10494
Rp10495
(dp10496
g23
S'utf-8'
p10497
sg25
(dp10498
g10488
g10489
sg10491
g10492
ssS'_mutable'
p10499
I00
sbg4
(g11
g12
(dp10500
tp10501
Rp10502
(dp10503
S'_encoding'
p10504
g10497
sg25
(dp10505
sg10499
I00
sbtp10506
sbsg35
(dp10507
S'screen_name'
p10508
V\u51a8\u7530\u88d5\u5b50
p10509
sS'money'
p10510
L0L
sS'last_login'
p10511
S'2013-12-29T06:17:39+00:00'
p10512
sS'exp'
p10513
L0L
sS'date_joined'
p10514
S'2013-12-19T07:41:15+00:00'
p10515
sS'id'
p10516
L8L
sS'gmail'
p10517
Vpreferire@gmail.com
p10518
ssba(iutil.request_logging
SimpleRequest
p10519
(dp10520
g3
g4
(g5
g6
Ntp10521
Rp10522
(dp10523
g10
(g4
(g11
g12
(dp10524
Vtid
p10525
(lp10526
V2
p10527
asVhasnum
p10528
(lp10529
V61
p10530
astp10531
Rp10532
(dp10533
g23
S'utf-8'
p10534
sg25
(dp10535
g10525
g10526
sg10528
g10529
ssS'_mutable'
p10536
I00
sbg4
(g11
g12
(dp10537
tp10538
Rp10539
(dp10540
S'_encoding'
p10541
g10534
sg25
(dp10542
sg10536
I00
sbtp10543
sbsg35
(dp10544
S'screen_name'
p10545
V\u51a8\u7530\u88d5\u5b50
p10546
sS'money'
p10547
L0L
sS'last_login'
p10548
S'2013-12-29T06:17:39+00:00'
p10549
sS'exp'
p10550
L0L
sS'gmail'
p10551
Vpreferire@gmail.com
p10552
sS'id'
p10553
L8L
sS'date_joined'
p10554
S'2013-12-19T07:41:15+00:00'
p10555
ssba(iutil.request_logging
SimpleRequest
p10556
(dp10557
g3
g4
(g5
g6
Ntp10558
Rp10559
(dp10560
g10
(g4
(g11
g12
(dp10561
Vtid
p10562
(lp10563
V3
p10564
asVhasnum
p10565
(lp10566
V105
p10567
astp10568
Rp10569
(dp10570
g23
S'utf-8'
p10571
sg25
(dp10572
g10562
g10563
sg10565
g10566
ssS'_mutable'
p10573
I00
sbg4
(g11
g12
(dp10574
tp10575
Rp10576
(dp10577
S'_encoding'
p10578
g10571
sg25
(dp10579
sg10573
I00
sbtp10580
sbsg35
(dp10581
S'screen_name'
p10582
V\u51a8\u7530\u88d5\u5b50
p10583
sS'money'
p10584
L0L
sS'last_login'
p10585
S'2013-12-29T06:17:39+00:00'
p10586
sS'exp'
p10587
L0L
sS'date_joined'
p10588
S'2013-12-19T07:41:15+00:00'
p10589
sS'id'
p10590
L8L
sS'gmail'
p10591
Vpreferire@gmail.com
p10592
ssba(iutil.request_logging
SimpleRequest
p10593
(dp10594
g3
g4
(g5
g6
Ntp10595
Rp10596
(dp10597
g10
(g4
(g11
g12
(dp10598
Vtid
p10599
(lp10600
V4
p10601
asVhasnum
p10602
(lp10603
V2
p10604
astp10605
Rp10606
(dp10607
g23
S'utf-8'
p10608
sg25
(dp10609
g10599
g10600
sg10602
g10603
ssS'_mutable'
p10610
I00
sbg4
(g11
g12
(dp10611
tp10612
Rp10613
(dp10614
S'_encoding'
p10615
g10608
sg25
(dp10616
sg10610
I00
sbtp10617
sbsg35
(dp10618
S'screen_name'
p10619
V\u51a8\u7530\u88d5\u5b50
p10620
sS'money'
p10621
L0L
sS'last_login'
p10622
S'2013-12-29T06:17:39+00:00'
p10623
sS'exp'
p10624
L0L
sS'gmail'
p10625
Vpreferire@gmail.com
p10626
sS'id'
p10627
L8L
sS'date_joined'
p10628
S'2013-12-19T07:41:15+00:00'
p10629
ssba(iutil.request_logging
SimpleRequest
p10630
(dp10631
g3
g4
(g5
g6
Ntp10632
Rp10633
(dp10634
g10
(g4
(g11
g12
(dp10635
Vtid
p10636
(lp10637
V12
p10638
asVhasnum
p10639
(lp10640
V4
p10641
astp10642
Rp10643
(dp10644
g23
S'utf-8'
p10645
sg25
(dp10646
g10636
g10637
sg10639
g10640
ssS'_mutable'
p10647
I00
sbg4
(g11
g12
(dp10648
tp10649
Rp10650
(dp10651
S'_encoding'
p10652
g10645
sg25
(dp10653
sg10647
I00
sbtp10654
sbsg35
(dp10655
S'screen_name'
p10656
V\u51a8\u7530\u88d5\u5b50
p10657
sS'money'
p10658
L0L
sS'last_login'
p10659
S'2013-12-29T06:17:39+00:00'
p10660
sS'exp'
p10661
L0L
sS'date_joined'
p10662
S'2013-12-19T07:41:15+00:00'
p10663
sS'id'
p10664
L8L
sS'gmail'
p10665
Vpreferire@gmail.com
p10666
ssba(iutil.request_logging
SimpleRequest
p10667
(dp10668
g3
g4
(g5
g6
Ntp10669
Rp10670
(dp10671
g10
(g4
(g11
g12
(dp10672
Vtid
p10673
(lp10674
V0
p10675
asVhasnum
p10676
(lp10677
V2
p10678
astp10679
Rp10680
(dp10681
g23
S'utf-8'
p10682
sg25
(dp10683
g10673
g10674
sg10676
g10677
ssS'_mutable'
p10684
I00
sbg4
(g11
g12
(dp10685
tp10686
Rp10687
(dp10688
S'_encoding'
p10689
g10682
sg25
(dp10690
sg10684
I00
sbtp10691
sbsg35
(dp10692
S'screen_name'
p10693
V\u51a8\u7530\u88d5\u5b50
p10694
sS'money'
p10695
L0L
sS'last_login'
p10696
S'2013-12-29T06:17:39+00:00'
p10697
sS'exp'
p10698
L0L
sS'gmail'
p10699
Vpreferire@gmail.com
p10700
sS'id'
p10701
L8L
sS'date_joined'
p10702
S'2013-12-19T07:41:15+00:00'
p10703
ssba(iutil.request_logging
SimpleRequest
p10704
(dp10705
g3
g4
(g5
g6
Ntp10706
Rp10707
(dp10708
g10
(g4
(g11
g12
(dp10709
Vtid
p10710
(lp10711
V0
p10712
asVhasnum
p10713
(lp10714
V14
p10715
astp10716
Rp10717
(dp10718
g23
S'utf-8'
p10719
sg25
(dp10720
g10710
g10711
sg10713
g10714
ssS'_mutable'
p10721
I00
sbg4
(g11
g12
(dp10722
tp10723
Rp10724
(dp10725
S'_encoding'
p10726
g10719
sg25
(dp10727
sg10721
I00
sbtp10728
sbsg35
(dp10729
S'screen_name'
p10730
V\u51a8\u7530\u88d5\u5b50
p10731
sS'money'
p10732
L0L
sS'last_login'
p10733
S'2013-12-29T06:18:23+00:00'
p10734
sS'exp'
p10735
L0L
sS'date_joined'
p10736
S'2013-12-19T07:41:15+00:00'
p10737
sS'id'
p10738
L8L
sS'gmail'
p10739
Vpreferire@gmail.com
p10740
ssba(iutil.request_logging
SimpleRequest
p10741
(dp10742
g3
g4
(g5
g6
Ntp10743
Rp10744
(dp10745
g10
(g4
(g11
g12
(dp10746
Vtid
p10747
(lp10748
V1
p10749
asVhasnum
p10750
(lp10751
V2
p10752
astp10753
Rp10754
(dp10755
g23
S'utf-8'
p10756
sg25
(dp10757
g10747
g10748
sg10750
g10751
ssS'_mutable'
p10758
I00
sbg4
(g11
g12
(dp10759
tp10760
Rp10761
(dp10762
S'_encoding'
p10763
g10756
sg25
(dp10764
sg10758
I00
sbtp10765
sbsg35
(dp10766
S'screen_name'
p10767
V\u51a8\u7530\u88d5\u5b50
p10768
sS'money'
p10769
L0L
sS'last_login'
p10770
S'2013-12-29T06:18:23+00:00'
p10771
sS'exp'
p10772
L0L
sS'gmail'
p10773
Vpreferire@gmail.com
p10774
sS'id'
p10775
L8L
sS'date_joined'
p10776
S'2013-12-19T07:41:15+00:00'
p10777
ssba(iutil.request_logging
SimpleRequest
p10778
(dp10779
g3
g4
(g5
g6
Ntp10780
Rp10781
(dp10782
g10
(g4
(g11
g12
(dp10783
Vtid
p10784
(lp10785
V2
p10786
asVhasnum
p10787
(lp10788
V61
p10789
astp10790
Rp10791
(dp10792
g23
S'utf-8'
p10793
sg25
(dp10794
g10784
g10785
sg10787
g10788
ssS'_mutable'
p10795
I00
sbg4
(g11
g12
(dp10796
tp10797
Rp10798
(dp10799
S'_encoding'
p10800
g10793
sg25
(dp10801
sg10795
I00
sbtp10802
sbsg35
(dp10803
S'screen_name'
p10804
V\u51a8\u7530\u88d5\u5b50
p10805
sS'money'
p10806
L0L
sS'last_login'
p10807
S'2013-12-29T06:18:23+00:00'
p10808
sS'exp'
p10809
L0L
sS'date_joined'
p10810
S'2013-12-19T07:41:15+00:00'
p10811
sS'id'
p10812
L8L
sS'gmail'
p10813
Vpreferire@gmail.com
p10814
ssba(iutil.request_logging
SimpleRequest
p10815
(dp10816
g3
g4
(g5
g6
Ntp10817
Rp10818
(dp10819
g10
(g4
(g11
g12
(dp10820
Vtid
p10821
(lp10822
V3
p10823
asVhasnum
p10824
(lp10825
V117
p10826
astp10827
Rp10828
(dp10829
g23
S'utf-8'
p10830
sg25
(dp10831
g10821
g10822
sg10824
g10825
ssS'_mutable'
p10832
I00
sbg4
(g11
g12
(dp10833
tp10834
Rp10835
(dp10836
S'_encoding'
p10837
g10830
sg25
(dp10838
sg10832
I00
sbtp10839
sbsg35
(dp10840
S'screen_name'
p10841
V\u51a8\u7530\u88d5\u5b50
p10842
sS'money'
p10843
L0L
sS'last_login'
p10844
S'2013-12-29T06:18:23+00:00'
p10845
sS'exp'
p10846
L0L
sS'gmail'
p10847
Vpreferire@gmail.com
p10848
sS'id'
p10849
L8L
sS'date_joined'
p10850
S'2013-12-19T07:41:15+00:00'
p10851
ssba(iutil.request_logging
SimpleRequest
p10852
(dp10853
g3
g4
(g5
g6
Ntp10854
Rp10855
(dp10856
g10
(g4
(g11
g12
(dp10857
Vtid
p10858
(lp10859
V4
p10860
asVhasnum
p10861
(lp10862
V2
p10863
astp10864
Rp10865
(dp10866
g23
S'utf-8'
p10867
sg25
(dp10868
g10858
g10859
sg10861
g10862
ssS'_mutable'
p10869
I00
sbg4
(g11
g12
(dp10870
tp10871
Rp10872
(dp10873
S'_encoding'
p10874
g10867
sg25
(dp10875
sg10869
I00
sbtp10876
sbsg35
(dp10877
S'screen_name'
p10878
V\u51a8\u7530\u88d5\u5b50
p10879
sS'money'
p10880
L0L
sS'last_login'
p10881
S'2013-12-29T06:18:23+00:00'
p10882
sS'exp'
p10883
L0L
sS'date_joined'
p10884
S'2013-12-19T07:41:15+00:00'
p10885
sS'id'
p10886
L8L
sS'gmail'
p10887
Vpreferire@gmail.com
p10888
ssba(iutil.request_logging
SimpleRequest
p10889
(dp10890
g3
g4
(g5
g6
Ntp10891
Rp10892
(dp10893
g10
(g4
(g11
g12
(dp10894
Vtid
p10895
(lp10896
V12
p10897
asVhasnum
p10898
(lp10899
V4
p10900
astp10901
Rp10902
(dp10903
g23
S'utf-8'
p10904
sg25
(dp10905
g10895
g10896
sg10898
g10899
ssS'_mutable'
p10906
I00
sbg4
(g11
g12
(dp10907
tp10908
Rp10909
(dp10910
g23
g10904
sg25
(dp10911
sg10906
I00
sbtp10912
sbsg35
(dp10913
S'last_login'
p10914
S'2013-12-29T06:18:23+00:00'
p10915
sS'screen_name'
p10916
V\u51a8\u7530\u88d5\u5b50
p10917
sS'exp'
p10918
L0L
sS'money'
p10919
L0L
sS'gmail'
p10920
Vpreferire@gmail.com
p10921
sS'id'
p10922
L8L
sS'date_joined'
p10923
S'2013-12-19T07:41:15+00:00'
p10924
ssba.