(lp0
(iutil.request_logging
SimpleRequest
p1
(dp2
S'REQUEST'
p3
ccopy_reg
_reconstructor
p4
(cdjango.utils.datastructures
MergeDict
p5
c__builtin__
object
p6
Ntp7
Rp8
(dp9
S'dicts'
p10
(g4
(cdjango.http.request
QueryDict
p11
c__builtin__
dict
p12
(dp13
Vtid
p14
(lp15
V0
p16
asVtest
p17
(lp18
VTrue
p19
asVhasnum
p20
(lp21
V1
p22
astp23
Rp24
(dp25
S'_encoding'
p26
S'utf-8'
p27
sS'_data'
p28
(dp29
g14
g15
sg17
g18
sg20
g21
ssS'_mutable'
p30
I01
sbg4
(g11
g12
(dp31
tp32
Rp33
(dp34
S'_encoding'
p35
g27
sg28
(dp36
sg30
I00
sbtp37
sbsS'user'
p38
(dp39
S'screen_name'
p40
VSample user
p41
sS'money'
p42
I50
sS'last_login'
p43
S'2014-01-09T04:56:18.899521+00:00'
p44
sS'exp'
p45
I0
sS'gmail'
p46
Vexample@gmail.com
p47
sS'id'
p48
I1
sS'date_joined'
p49
S'2014-01-09T04:53:26.775143+00:00'
p50
ssba(iutil.request_logging
SimpleRequest
p51
(dp52
g3
g4
(g5
g6
Ntp53
Rp54
(dp55
g10
(g4
(g11
g12
(dp56
Vtid
p57
(lp58
V0
p59
asVtest
p60
(lp61
VTrue
p62
asVhasnum
p63
(lp64
V5000
p65
astp66
Rp67
(dp68
g26
S'utf-8'
p69
sg28
(dp70
g57
g58
sg60
g61
sg63
g64
ssS'_mutable'
p71
I01
sbg4
(g11
g12
(dp72
tp73
Rp74
(dp75
S'_encoding'
p76
g69
sg28
(dp77
sg71
I00
sbtp78
sbsg38
(dp79
S'screen_name'
p80
VSample user
p81
sS'money'
p82
I50
sS'last_login'
p83
S'2014-01-09T04:56:18.899521+00:00'
p84
sS'exp'
p85
I0
sS'date_joined'
p86
S'2014-01-09T04:53:26.775143+00:00'
p87
sS'id'
p88
I1
sS'gmail'
p89
Vexample@gmail.com
p90
ssba(iutil.request_logging
SimpleRequest
p91
(dp92
g3
g4
(g5
g6
Ntp93
Rp94
(dp95
g10
(g4
(g11
g12
(dp96
Vtid
p97
(lp98
V0
p99
asVtest
p100
(lp101
VTrue
p102
asVhasnum
p103
(lp104
V10000
p105
astp106
Rp107
(dp108
g26
S'utf-8'
p109
sg28
(dp110
g97
g98
sg100
g101
sg103
g104
ssS'_mutable'
p111
I01
sbg4
(g11
g12
(dp112
tp113
Rp114
(dp115
S'_encoding'
p116
g109
sg28
(dp117
sg111
I00
sbtp118
sbsg38
(dp119
S'screen_name'
p120
VSample user
p121
sS'money'
p122
I50
sS'last_login'
p123
S'2014-01-09T04:56:18.899521+00:00'
p124
sS'exp'
p125
I0
sS'gmail'
p126
Vexample@gmail.com
p127
sS'id'
p128
I1
sS'date_joined'
p129
S'2014-01-09T04:53:26.775143+00:00'
p130
ssba(iutil.request_logging
SimpleRequest
p131
(dp132
g3
g4
(g5
g6
Ntp133
Rp134
(dp135
g10
(g4
(g11
g12
(dp136
Vtid
p137
(lp138
V14
p139
asVtest
p140
(lp141
VTrue
p142
asVhasnum
p143
(lp144
V1
p145
astp146
Rp147
(dp148
g26
S'utf-8'
p149
sg28
(dp150
g137
g138
sg140
g141
sg143
g144
ssS'_mutable'
p151
I01
sbg4
(g11
g12
(dp152
tp153
Rp154
(dp155
S'_encoding'
p156
g149
sg28
(dp157
sg151
I00
sbtp158
sbsg38
(dp159
S'screen_name'
p160
VSample user
p161
sS'money'
p162
I50
sS'last_login'
p163
S'2014-01-09T04:56:18.899521+00:00'
p164
sS'exp'
p165
I0
sS'date_joined'
p166
S'2014-01-09T04:53:26.775143+00:00'
p167
sS'id'
p168
I1
sS'gmail'
p169
Vexample@gmail.com
p170
ssba(iutil.request_logging
SimpleRequest
p171
(dp172
g3
g4
(g5
g6
Ntp173
Rp174
(dp175
g10
(g4
(g11
g12
(dp176
Vtid
p177
(lp178
V14
p179
asVtest
p180
(lp181
VTrue
p182
asVhasnum
p183
(lp184
V5000
p185
astp186
Rp187
(dp188
g26
S'utf-8'
p189
sg28
(dp190
g177
g178
sg180
g181
sg183
g184
ssS'_mutable'
p191
I01
sbg4
(g11
g12
(dp192
tp193
Rp194
(dp195
S'_encoding'
p196
g189
sg28
(dp197
sg191
I00
sbtp198
sbsg38
(dp199
S'screen_name'
p200
VSample user
p201
sS'money'
p202
I50
sS'last_login'
p203
S'2014-01-09T04:56:18.899521+00:00'
p204
sS'exp'
p205
I0
sS'gmail'
p206
Vexample@gmail.com
p207
sS'id'
p208
I1
sS'date_joined'
p209
S'2014-01-09T04:53:26.775143+00:00'
p210
ssba(iutil.request_logging
SimpleRequest
p211
(dp212
g3
g4
(g5
g6
Ntp213
Rp214
(dp215
g10
(g4
(g11
g12
(dp216
Vtid
p217
(lp218
V14
p219
asVtest
p220
(lp221
VTrue
p222
asVhasnum
p223
(lp224
V10000
p225
astp226
Rp227
(dp228
g26
S'utf-8'
p229
sg28
(dp230
g217
g218
sg220
g221
sg223
g224
ssS'_mutable'
p231
I01
sbg4
(g11
g12
(dp232
tp233
Rp234
(dp235
S'_encoding'
p236
g229
sg28
(dp237
sg231
I00
sbtp238
sbsg38
(dp239
S'screen_name'
p240
VSample user
p241
sS'money'
p242
I50
sS'last_login'
p243
S'2014-01-09T04:56:18.899521+00:00'
p244
sS'exp'
p245
I0
sS'date_joined'
p246
S'2014-01-09T04:53:26.775143+00:00'
p247
sS'id'
p248
I1
sS'gmail'
p249
Vexample@gmail.com
p250
ssba(iutil.request_logging
SimpleRequest
p251
(dp252
g3
g4
(g5
g6
Ntp253
Rp254
(dp255
g10
(g4
(g11
g12
(dp256
Vtid
p257
(lp258
V28
p259
asVtest
p260
(lp261
VTrue
p262
asVhasnum
p263
(lp264
V1
p265
astp266
Rp267
(dp268
g26
S'utf-8'
p269
sg28
(dp270
g257
g258
sg260
g261
sg263
g264
ssS'_mutable'
p271
I01
sbg4
(g11
g12
(dp272
tp273
Rp274
(dp275
S'_encoding'
p276
g269
sg28
(dp277
sg271
I00
sbtp278
sbsg38
(dp279
S'screen_name'
p280
VSample user
p281
sS'money'
p282
I50
sS'last_login'
p283
S'2014-01-09T04:56:18.899521+00:00'
p284
sS'exp'
p285
I0
sS'gmail'
p286
Vexample@gmail.com
p287
sS'id'
p288
I1
sS'date_joined'
p289
S'2014-01-09T04:53:26.775143+00:00'
p290
ssba(iutil.request_logging
SimpleRequest
p291
(dp292
g3
g4
(g5
g6
Ntp293
Rp294
(dp295
g10
(g4
(g11
g12
(dp296
Vtid
p297
(lp298
V28
p299
asVtest
p300
(lp301
VTrue
p302
asVhasnum
p303
(lp304
V5000
p305
astp306
Rp307
(dp308
g26
S'utf-8'
p309
sg28
(dp310
g297
g298
sg300
g301
sg303
g304
ssS'_mutable'
p311
I01
sbg4
(g11
g12
(dp312
tp313
Rp314
(dp315
S'_encoding'
p316
g309
sg28
(dp317
sg311
I00
sbtp318
sbsg38
(dp319
S'screen_name'
p320
VSample user
p321
sS'money'
p322
I50
sS'last_login'
p323
S'2014-01-09T04:56:18.899521+00:00'
p324
sS'exp'
p325
I0
sS'date_joined'
p326
S'2014-01-09T04:53:26.775143+00:00'
p327
sS'id'
p328
I1
sS'gmail'
p329
Vexample@gmail.com
p330
ssba(iutil.request_logging
SimpleRequest
p331
(dp332
g3
g4
(g5
g6
Ntp333
Rp334
(dp335
g10
(g4
(g11
g12
(dp336
Vtid
p337
(lp338
V28
p339
asVtest
p340
(lp341
VTrue
p342
asVhasnum
p343
(lp344
V10000
p345
astp346
Rp347
(dp348
g26
S'utf-8'
p349
sg28
(dp350
g337
g338
sg340
g341
sg343
g344
ssS'_mutable'
p351
I01
sbg4
(g11
g12
(dp352
tp353
Rp354
(dp355
S'_encoding'
p356
g349
sg28
(dp357
sg351
I00
sbtp358
sbsg38
(dp359
S'screen_name'
p360
VSample user
p361
sS'money'
p362
I50
sS'last_login'
p363
S'2014-01-09T04:56:18.899521+00:00'
p364
sS'exp'
p365
I0
sS'gmail'
p366
Vexample@gmail.com
p367
sS'id'
p368
I1
sS'date_joined'
p369
S'2014-01-09T04:53:26.775143+00:00'
p370
ssba(iutil.request_logging
SimpleRequest
p371
(dp372
g3
g4
(g5
g6
Ntp373
Rp374
(dp375
g10
(g4
(g11
g12
(dp376
Vtid
p377
(lp378
V42
p379
asVtest
p380
(lp381
VTrue
p382
asVhasnum
p383
(lp384
V1
p385
astp386
Rp387
(dp388
g26
S'utf-8'
p389
sg28
(dp390
g377
g378
sg380
g381
sg383
g384
ssS'_mutable'
p391
I01
sbg4
(g11
g12
(dp392
tp393
Rp394
(dp395
S'_encoding'
p396
g389
sg28
(dp397
sg391
I00
sbtp398
sbsg38
(dp399
S'screen_name'
p400
VSample user
p401
sS'money'
p402
I50
sS'last_login'
p403
S'2014-01-09T04:56:18.899521+00:00'
p404
sS'exp'
p405
I0
sS'date_joined'
p406
S'2014-01-09T04:53:26.775143+00:00'
p407
sS'id'
p408
I1
sS'gmail'
p409
Vexample@gmail.com
p410
ssba(iutil.request_logging
SimpleRequest
p411
(dp412
g3
g4
(g5
g6
Ntp413
Rp414
(dp415
g10
(g4
(g11
g12
(dp416
Vtid
p417
(lp418
V42
p419
asVtest
p420
(lp421
VTrue
p422
asVhasnum
p423
(lp424
V5000
p425
astp426
Rp427
(dp428
g26
S'utf-8'
p429
sg28
(dp430
g417
g418
sg420
g421
sg423
g424
ssS'_mutable'
p431
I01
sbg4
(g11
g12
(dp432
tp433
Rp434
(dp435
S'_encoding'
p436
g429
sg28
(dp437
sg431
I00
sbtp438
sbsg38
(dp439
S'screen_name'
p440
VSample user
p441
sS'money'
p442
I50
sS'last_login'
p443
S'2014-01-09T04:56:18.899521+00:00'
p444
sS'exp'
p445
I0
sS'gmail'
p446
Vexample@gmail.com
p447
sS'id'
p448
I1
sS'date_joined'
p449
S'2014-01-09T04:53:26.775143+00:00'
p450
ssba(iutil.request_logging
SimpleRequest
p451
(dp452
g3
g4
(g5
g6
Ntp453
Rp454
(dp455
g10
(g4
(g11
g12
(dp456
Vtid
p457
(lp458
V42
p459
asVtest
p460
(lp461
VTrue
p462
asVhasnum
p463
(lp464
V10000
p465
astp466
Rp467
(dp468
g26
S'utf-8'
p469
sg28
(dp470
g457
g458
sg460
g461
sg463
g464
ssS'_mutable'
p471
I01
sbg4
(g11
g12
(dp472
tp473
Rp474
(dp475
S'_encoding'
p476
g469
sg28
(dp477
sg471
I00
sbtp478
sbsg38
(dp479
S'screen_name'
p480
VSample user
p481
sS'money'
p482
I50
sS'last_login'
p483
S'2014-01-09T04:56:18.899521+00:00'
p484
sS'exp'
p485
I0
sS'date_joined'
p486
S'2014-01-09T04:53:26.775143+00:00'
p487
sS'id'
p488
I1
sS'gmail'
p489
Vexample@gmail.com
p490
ssba(iutil.request_logging
SimpleRequest
p491
(dp492
g3
g4
(g5
g6
Ntp493
Rp494
(dp495
g10
(g4
(g11
g12
(dp496
Vtid
p497
(lp498
V56
p499
asVtest
p500
(lp501
VTrue
p502
asVhasnum
p503
(lp504
V1
p505
astp506
Rp507
(dp508
g26
S'utf-8'
p509
sg28
(dp510
g497
g498
sg500
g501
sg503
g504
ssS'_mutable'
p511
I01
sbg4
(g11
g12
(dp512
tp513
Rp514
(dp515
S'_encoding'
p516
g509
sg28
(dp517
sg511
I00
sbtp518
sbsg38
(dp519
S'screen_name'
p520
VSample user
p521
sS'money'
p522
I50
sS'last_login'
p523
S'2014-01-09T04:56:18.899521+00:00'
p524
sS'exp'
p525
I0
sS'gmail'
p526
Vexample@gmail.com
p527
sS'id'
p528
I1
sS'date_joined'
p529
S'2014-01-09T04:53:26.775143+00:00'
p530
ssba(iutil.request_logging
SimpleRequest
p531
(dp532
g3
g4
(g5
g6
Ntp533
Rp534
(dp535
g10
(g4
(g11
g12
(dp536
Vtid
p537
(lp538
V56
p539
asVtest
p540
(lp541
VTrue
p542
asVhasnum
p543
(lp544
V5000
p545
astp546
Rp547
(dp548
g26
S'utf-8'
p549
sg28
(dp550
g537
g538
sg540
g541
sg543
g544
ssS'_mutable'
p551
I01
sbg4
(g11
g12
(dp552
tp553
Rp554
(dp555
S'_encoding'
p556
g549
sg28
(dp557
sg551
I00
sbtp558
sbsg38
(dp559
S'screen_name'
p560
VSample user
p561
sS'money'
p562
I50
sS'last_login'
p563
S'2014-01-09T04:56:18.899521+00:00'
p564
sS'exp'
p565
I0
sS'date_joined'
p566
S'2014-01-09T04:53:26.775143+00:00'
p567
sS'id'
p568
I1
sS'gmail'
p569
Vexample@gmail.com
p570
ssba(iutil.request_logging
SimpleRequest
p571
(dp572
g3
g4
(g5
g6
Ntp573
Rp574
(dp575
g10
(g4
(g11
g12
(dp576
Vtid
p577
(lp578
V56
p579
asVtest
p580
(lp581
VTrue
p582
asVhasnum
p583
(lp584
V10000
p585
astp586
Rp587
(dp588
g26
S'utf-8'
p589
sg28
(dp590
g577
g578
sg580
g581
sg583
g584
ssS'_mutable'
p591
I01
sbg4
(g11
g12
(dp592
tp593
Rp594
(dp595
g26
g589
sg28
(dp596
sg591
I00
sbtp597
sbsg38
(dp598
S'last_login'
p599
S'2014-01-09T04:56:18.899521+00:00'
p600
sS'screen_name'
p601
VSample user
p602
sS'exp'
p603
I0
sS'money'
p604
I50
sS'gmail'
p605
Vexample@gmail.com
p606
sS'id'
p607
I1
sS'date_joined'
p608
S'2014-01-09T04:53:26.775143+00:00'
p609
ssba.