(lp0
(iutil.request_logging
SimpleRequest
p1
(dp2
S'REQUEST'
p3
ccopy_reg
_reconstructor
p4
(cdjango.utils.datastructures
MergeDict
p5
c__builtin__
object
p6
Ntp7
Rp8
(dp9
S'dicts'
p10
(g4
(cdjango.http.request
QueryDict
p11
c__builtin__
dict
p12
(dp13
Vtid
p14
(lp15
V0
p16
asVhasnum
p17
(lp18
V11
p19
astp20
Rp21
(dp22
S'_encoding'
p23
S'utf-8'
p24
sS'_data'
p25
(dp26
g14
g15
sg17
g18
ssS'_mutable'
p27
I00
sbg4
(g11
g12
(dp28
tp29
Rp30
(dp31
S'_encoding'
p32
g24
sg25
(dp33
sg27
I00
sbtp34
sbsS'user'
p35
(dp36
S'screen_name'
p37
V\u9234\u6728\u7adc\u592a
p38
sS'money'
p39
I0
sS'last_login'
p40
S'2013-12-23T09:04:59.154272+00:00'
p41
sS'exp'
p42
I0
sS'date_joined'
p43
S'2013-12-23T09:04:59.046064+00:00'
p44
sS'id'
p45
I2
sS'gmail'
p46
Vadvanced.r.suzuki@gmail.com
p47
ssba(iutil.request_logging
SimpleRequest
p48
(dp49
g3
g4
(g5
g6
Ntp50
Rp51
(dp52
g10
(g4
(g11
g12
(dp53
Vtid
p54
(lp55
V3
p56
asVhasnum
p57
(lp58
V1
p59
astp60
Rp61
(dp62
g23
S'utf-8'
p63
sg25
(dp64
g54
g55
sg57
g58
ssS'_mutable'
p65
I00
sbg4
(g11
g12
(dp66
tp67
Rp68
(dp69
g23
g63
sg25
(dp70
sg65
I00
sbtp71
sbsg35
(dp72
S'last_login'
p73
S'2013-12-23T09:04:59.154272+00:00'
p74
sS'screen_name'
p75
V\u9234\u6728\u7adc\u592a
p76
sS'exp'
p77
I0
sS'money'
p78
I0
sS'gmail'
p79
Vadvanced.r.suzuki@gmail.com
p80
sS'id'
p81
I2
sS'date_joined'
p82
S'2013-12-23T09:04:59.046064+00:00'
p83
ssba.(lp0
(iutil.request_logging
SimpleRequest
p1
(dp2
S'REQUEST'
p3
ccopy_reg
_reconstructor
p4
(cdjango.utils.datastructures
MergeDict
p5
c__builtin__
object
p6
Ntp7
Rp8
(dp9
S'dicts'
p10
(g4
(cdjango.http.request
QueryDict
p11
c__builtin__
dict
p12
(dp13
Vtid
p14
(lp15
V0
p16
asVhasnum
p17
(lp18
V11
p19
astp20
Rp21
(dp22
S'_encoding'
p23
S'utf-8'
p24
sS'_data'
p25
(dp26
g14
g15
sg17
g18
ssS'_mutable'
p27
I00
sbg4
(g11
g12
(dp28
tp29
Rp30
(dp31
S'_encoding'
p32
g24
sg25
(dp33
sg27
I00
sbtp34
sbsS'user'
p35
(dp36
S'screen_name'
p37
V\u9234\u6728\u7adc\u592a
p38
sS'money'
p39
I0
sS'last_login'
p40
S'2013-12-23T09:04:59.154272+00:00'
p41
sS'exp'
p42
I0
sS'date_joined'
p43
S'2013-12-23T09:04:59.046064+00:00'
p44
sS'id'
p45
I2
sS'gmail'
p46
Vadvanced.r.suzuki@gmail.com
p47
ssba(iutil.request_logging
SimpleRequest
p48
(dp49
g3
g4
(g5
g6
Ntp50
Rp51
(dp52
g10
(g4
(g11
g12
(dp53
Vtid
p54
(lp55
V1
p56
asVhasnum
p57
(lp58
V20
p59
astp60
Rp61
(dp62
g23
S'utf-8'
p63
sg25
(dp64
g54
g55
sg57
g58
ssS'_mutable'
p65
I00
sbg4
(g11
g12
(dp66
tp67
Rp68
(dp69
g23
g63
sg25
(dp70
sg65
I00
sbtp71
sbsg35
(dp72
S'last_login'
p73
S'2013-12-23T12:48:49.154207+00:00'
p74
sS'screen_name'
p75
V\u9234\u6728\u7adc\u592a
p76
sS'exp'
p77
I0
sS'money'
p78
I0
sS'gmail'
p79
Vadvanced.r.suzuki@gmail.com
p80
sS'id'
p81
I2
sS'date_joined'
p82
S'2013-12-23T09:04:59.046064+00:00'
p83
ssba.(lp0
(iutil.request_logging
SimpleRequest
p1
(dp2
S'REQUEST'
p3
ccopy_reg
_reconstructor
p4
(cdjango.utils.datastructures
MergeDict
p5
c__builtin__
object
p6
Ntp7
Rp8
(dp9
S'dicts'
p10
(g4
(cdjango.http.request
QueryDict
p11
c__builtin__
dict
p12
(dp13
Vtid
p14
(lp15
V0
p16
asVhasnum
p17
(lp18
V11
p19
astp20
Rp21
(dp22
S'_encoding'
p23
S'utf-8'
p24
sS'_data'
p25
(dp26
g14
g15
sg17
g18
ssS'_mutable'
p27
I00
sbg4
(g11
g12
(dp28
tp29
Rp30
(dp31
S'_encoding'
p32
g24
sg25
(dp33
sg27
I00
sbtp34
sbsS'user'
p35
(dp36
S'screen_name'
p37
V\u9234\u6728\u7adc\u592a
p38
sS'money'
p39
I0
sS'last_login'
p40
S'2013-12-23T09:04:59.154272+00:00'
p41
sS'exp'
p42
I0
sS'date_joined'
p43
S'2013-12-23T09:04:59.046064+00:00'
p44
sS'id'
p45
I2
sS'gmail'
p46
Vadvanced.r.suzuki@gmail.com
p47
ssba(iutil.request_logging
SimpleRequest
p48
(dp49
g3
g4
(g5
g6
Ntp50
Rp51
(dp52
g10
(g4
(g11
g12
(dp53
Vtid
p54
(lp55
V0
p56
asVhasnum
p57
(lp58
V27
p59
astp60
Rp61
(dp62
g23
S'utf-8'
p63
sg25
(dp64
g54
g55
sg57
g58
ssS'_mutable'
p65
I00
sbg4
(g11
g12
(dp66
tp67
Rp68
(dp69
g23
g63
sg25
(dp70
sg65
I00
sbtp71
sbsg35
(dp72
S'last_login'
p73
S'2013-12-23T12:48:49.154207+00:00'
p74
sS'screen_name'
p75
V\u9234\u6728\u7adc\u592a
p76
sS'exp'
p77
I0
sS'money'
p78
I0
sS'gmail'
p79
Vadvanced.r.suzuki@gmail.com
p80
sS'id'
p81
I2
sS'date_joined'
p82
S'2013-12-23T09:04:59.046064+00:00'
p83
ssba.(lp0
(iutil.request_logging
SimpleRequest
p1
(dp2
S'REQUEST'
p3
ccopy_reg
_reconstructor
p4
(cdjango.utils.datastructures
MergeDict
p5
c__builtin__
object
p6
Ntp7
Rp8
(dp9
S'dicts'
p10
(g4
(cdjango.http.request
QueryDict
p11
c__builtin__
dict
p12
(dp13
Vtid
p14
(lp15
V0
p16
asVhasnum
p17
(lp18
V11
p19
astp20
Rp21
(dp22
S'_encoding'
p23
S'utf-8'
p24
sS'_data'
p25
(dp26
g14
g15
sg17
g18
ssS'_mutable'
p27
I00
sbg4
(g11
g12
(dp28
tp29
Rp30
(dp31
S'_encoding'
p32
g24
sg25
(dp33
sg27
I00
sbtp34
sbsS'user'
p35
(dp36
S'screen_name'
p37
V\u9234\u6728\u7adc\u592a
p38
sS'money'
p39
I0
sS'last_login'
p40
S'2013-12-23T09:04:59.154272+00:00'
p41
sS'exp'
p42
I0
sS'date_joined'
p43
S'2013-12-23T09:04:59.046064+00:00'
p44
sS'id'
p45
I2
sS'gmail'
p46
Vadvanced.r.suzuki@gmail.com
p47
ssba(iutil.request_logging
SimpleRequest
p48
(dp49
g3
g4
(g5
g6
Ntp50
Rp51
(dp52
g10
(g4
(g11
g12
(dp53
Vtid
p54
(lp55
V2
p56
asVhasnum
p57
(lp58
V2
p59
astp60
Rp61
(dp62
g23
S'utf-8'
p63
sg25
(dp64
g54
g55
sg57
g58
ssS'_mutable'
p65
I00
sbg4
(g11
g12
(dp66
tp67
Rp68
(dp69
g23
g63
sg25
(dp70
sg65
I00
sbtp71
sbsg35
(dp72
S'last_login'
p73
S'2013-12-23T12:48:49.154207+00:00'
p74
sS'screen_name'
p75
V\u9234\u6728\u7adc\u592a
p76
sS'exp'
p77
I0
sS'money'
p78
I0
sS'gmail'
p79
Vadvanced.r.suzuki@gmail.com
p80
sS'id'
p81
I2
sS'date_joined'
p82
S'2013-12-23T09:04:59.046064+00:00'
p83
ssba.