(lp0
(iutil.request_logging
SimpleRequest
p1
(dp2
S'REQUEST'
p3
ccopy_reg
_reconstructor
p4
(cdjango.utils.datastructures
MergeDict
p5
c__builtin__
object
p6
Ntp7
Rp8
(dp9
S'dicts'
p10
(g4
(cdjango.http.request
QueryDict
p11
c__builtin__
dict
p12
(dp13
Vtid
p14
(lp15
V0
p16
asVtest
p17
(lp18
VTrue
p19
asVhasnum
p20
(lp21
V99999
p22
astp23
Rp24
(dp25
S'_encoding'
p26
S'utf-8'
p27
sS'_data'
p28
(dp29
g14
g15
sg17
g18
sg20
g21
ssS'_mutable'
p30
I00
sbg4
(g11
g12
(dp31
tp32
Rp33
(dp34
S'_encoding'
p35
g27
sg28
(dp36
sg30
I00
sbtp37
sbsS'user'
p38
(dp39
S'screen_name'
p40
V\u9234\u6728\u7adc\u592a
p41
sS'money'
p42
I0
sS'last_login'
p43
S'2013-12-26T08:18:04.965244+00:00'
p44
sS'exp'
p45
I0
sS'date_joined'
p46
S'2013-12-26T08:01:31.799730+00:00'
p47
sS'id'
p48
I2
sS'gmail'
p49
Vadvanced.r.suzuki@gmail.com
p50
ssba(iutil.request_logging
SimpleRequest
p51
(dp52
g3
g4
(g5
g6
Ntp53
Rp54
(dp55
g10
(g4
(g11
g12
(dp56
Vtid
p57
(lp58
V0
p59
asVtest
p60
(lp61
VTrue
p62
asVhasnum
p63
(lp64
V99999
p65
astp66
Rp67
(dp68
g26
S'utf-8'
p69
sg28
(dp70
g57
g58
sg60
g61
sg63
g64
ssS'_mutable'
p71
I00
sbg4
(g11
g12
(dp72
tp73
Rp74
(dp75
S'_encoding'
p76
g69
sg28
(dp77
sg71
I00
sbtp78
sbsg38
(dp79
S'screen_name'
p80
V\u9234\u6728\u7adc\u592a
p81
sS'money'
p82
I0
sS'last_login'
p83
S'2013-12-26T08:18:04.965244+00:00'
p84
sS'exp'
p85
I0
sS'gmail'
p86
Vadvanced.r.suzuki@gmail.com
p87
sS'id'
p88
I2
sS'date_joined'
p89
S'2013-12-26T08:01:31.799730+00:00'
p90
ssba(iutil.request_logging
SimpleRequest
p91
(dp92
g3
g4
(g5
g6
Ntp93
Rp94
(dp95
g10
(g4
(g11
g12
(dp96
Vtid
p97
(lp98
V0
p99
asVtest
p100
(lp101
VTrue
p102
asVhasnum
p103
(lp104
V99999
p105
astp106
Rp107
(dp108
g26
S'utf-8'
p109
sg28
(dp110
g97
g98
sg100
g101
sg103
g104
ssS'_mutable'
p111
I00
sbg4
(g11
g12
(dp112
tp113
Rp114
(dp115
S'_encoding'
p116
g109
sg28
(dp117
sg111
I00
sbtp118
sbsg38
(dp119
S'screen_name'
p120
V\u9234\u6728\u7adc\u592a
p121
sS'money'
p122
I0
sS'last_login'
p123
S'2013-12-26T08:18:04.965244+00:00'
p124
sS'exp'
p125
I0
sS'date_joined'
p126
S'2013-12-26T08:01:31.799730+00:00'
p127
sS'id'
p128
I2
sS'gmail'
p129
Vadvanced.r.suzuki@gmail.com
p130
ssba(iutil.request_logging
SimpleRequest
p131
(dp132
g3
g4
(g5
g6
Ntp133
Rp134
(dp135
g10
(g4
(g11
g12
(dp136
Vtid
p137
(lp138
V0
p139
asVtest
p140
(lp141
VTrue
p142
asVhasnum
p143
(lp144
V99999
p145
astp146
Rp147
(dp148
g26
S'utf-8'
p149
sg28
(dp150
g137
g138
sg140
g141
sg143
g144
ssS'_mutable'
p151
I00
sbg4
(g11
g12
(dp152
tp153
Rp154
(dp155
S'_encoding'
p156
g149
sg28
(dp157
sg151
I00
sbtp158
sbsg38
(dp159
S'screen_name'
p160
V\u9234\u6728\u7adc\u592a
p161
sS'money'
p162
I0
sS'last_login'
p163
S'2013-12-26T08:18:04.965244+00:00'
p164
sS'exp'
p165
I0
sS'gmail'
p166
Vadvanced.r.suzuki@gmail.com
p167
sS'id'
p168
I2
sS'date_joined'
p169
S'2013-12-26T08:01:31.799730+00:00'
p170
ssba(iutil.request_logging
SimpleRequest
p171
(dp172
g3
g4
(g5
g6
Ntp173
Rp174
(dp175
g10
(g4
(g11
g12
(dp176
Vtid
p177
(lp178
V0
p179
asVtest
p180
(lp181
VTrue
p182
asVhasnum
p183
(lp184
V99999
p185
astp186
Rp187
(dp188
g26
S'utf-8'
p189
sg28
(dp190
g177
g178
sg180
g181
sg183
g184
ssS'_mutable'
p191
I00
sbg4
(g11
g12
(dp192
tp193
Rp194
(dp195
S'_encoding'
p196
g189
sg28
(dp197
sg191
I00
sbtp198
sbsg38
(dp199
S'screen_name'
p200
V\u9234\u6728\u7adc\u592a
p201
sS'money'
p202
I0
sS'last_login'
p203
S'2013-12-26T08:18:04.965244+00:00'
p204
sS'exp'
p205
I0
sS'date_joined'
p206
S'2013-12-26T08:01:31.799730+00:00'
p207
sS'id'
p208
I2
sS'gmail'
p209
Vadvanced.r.suzuki@gmail.com
p210
ssba(iutil.request_logging
SimpleRequest
p211
(dp212
g3
g4
(g5
g6
Ntp213
Rp214
(dp215
g10
(g4
(g11
g12
(dp216
Vtid
p217
(lp218
V0
p219
asVtest
p220
(lp221
VTrue
p222
asVhasnum
p223
(lp224
V99999
p225
astp226
Rp227
(dp228
g26
S'utf-8'
p229
sg28
(dp230
g217
g218
sg220
g221
sg223
g224
ssS'_mutable'
p231
I00
sbg4
(g11
g12
(dp232
tp233
Rp234
(dp235
S'_encoding'
p236
g229
sg28
(dp237
sg231
I00
sbtp238
sbsg38
(dp239
S'screen_name'
p240
V\u9234\u6728\u7adc\u592a
p241
sS'money'
p242
I0
sS'last_login'
p243
S'2013-12-26T08:18:04.965244+00:00'
p244
sS'exp'
p245
I0
sS'gmail'
p246
Vadvanced.r.suzuki@gmail.com
p247
sS'id'
p248
I2
sS'date_joined'
p249
S'2013-12-26T08:01:31.799730+00:00'
p250
ssba(iutil.request_logging
SimpleRequest
p251
(dp252
g3
g4
(g5
g6
Ntp253
Rp254
(dp255
g10
(g4
(g11
g12
(dp256
Vtid
p257
(lp258
V0
p259
asVtest
p260
(lp261
VTrue
p262
asVhasnum
p263
(lp264
V99999
p265
astp266
Rp267
(dp268
g26
S'utf-8'
p269
sg28
(dp270
g257
g258
sg260
g261
sg263
g264
ssS'_mutable'
p271
I00
sbg4
(g11
g12
(dp272
tp273
Rp274
(dp275
S'_encoding'
p276
g269
sg28
(dp277
sg271
I00
sbtp278
sbsg38
(dp279
S'screen_name'
p280
V\u9234\u6728\u7adc\u592a
p281
sS'money'
p282
I0
sS'last_login'
p283
S'2013-12-26T08:18:04.965244+00:00'
p284
sS'exp'
p285
I0
sS'date_joined'
p286
S'2013-12-26T08:01:31.799730+00:00'
p287
sS'id'
p288
I2
sS'gmail'
p289
Vadvanced.r.suzuki@gmail.com
p290
ssba(iutil.request_logging
SimpleRequest
p291
(dp292
g3
g4
(g5
g6
Ntp293
Rp294
(dp295
g10
(g4
(g11
g12
(dp296
Vtid
p297
(lp298
V0
p299
asVtest
p300
(lp301
VTrue
p302
asVhasnum
p303
(lp304
V99999
p305
astp306
Rp307
(dp308
g26
S'utf-8'
p309
sg28
(dp310
g297
g298
sg300
g301
sg303
g304
ssS'_mutable'
p311
I00
sbg4
(g11
g12
(dp312
tp313
Rp314
(dp315
S'_encoding'
p316
g309
sg28
(dp317
sg311
I00
sbtp318
sbsg38
(dp319
S'screen_name'
p320
V\u9234\u6728\u7adc\u592a
p321
sS'money'
p322
I0
sS'last_login'
p323
S'2013-12-26T08:18:04.965244+00:00'
p324
sS'exp'
p325
I0
sS'gmail'
p326
Vadvanced.r.suzuki@gmail.com
p327
sS'id'
p328
I2
sS'date_joined'
p329
S'2013-12-26T08:01:31.799730+00:00'
p330
ssba(iutil.request_logging
SimpleRequest
p331
(dp332
g3
g4
(g5
g6
Ntp333
Rp334
(dp335
g10
(g4
(g11
g12
(dp336
Vtid
p337
(lp338
V0
p339
asVtest
p340
(lp341
VTrue
p342
asVhasnum
p343
(lp344
V99999
p345
astp346
Rp347
(dp348
g26
S'utf-8'
p349
sg28
(dp350
g337
g338
sg340
g341
sg343
g344
ssS'_mutable'
p351
I00
sbg4
(g11
g12
(dp352
tp353
Rp354
(dp355
S'_encoding'
p356
g349
sg28
(dp357
sg351
I00
sbtp358
sbsg38
(dp359
S'screen_name'
p360
V\u9234\u6728\u7adc\u592a
p361
sS'money'
p362
I0
sS'last_login'
p363
S'2013-12-26T08:18:04.965244+00:00'
p364
sS'exp'
p365
I0
sS'date_joined'
p366
S'2013-12-26T08:01:31.799730+00:00'
p367
sS'id'
p368
I2
sS'gmail'
p369
Vadvanced.r.suzuki@gmail.com
p370
ssba(iutil.request_logging
SimpleRequest
p371
(dp372
g3
g4
(g5
g6
Ntp373
Rp374
(dp375
g10
(g4
(g11
g12
(dp376
Vtid
p377
(lp378
V0
p379
asVtest
p380
(lp381
VTrue
p382
asVhasnum
p383
(lp384
V99999
p385
astp386
Rp387
(dp388
g26
S'utf-8'
p389
sg28
(dp390
g377
g378
sg380
g381
sg383
g384
ssS'_mutable'
p391
I00
sbg4
(g11
g12
(dp392
tp393
Rp394
(dp395
S'_encoding'
p396
g389
sg28
(dp397
sg391
I00
sbtp398
sbsg38
(dp399
S'screen_name'
p400
V\u9234\u6728\u7adc\u592a
p401
sS'money'
p402
I0
sS'last_login'
p403
S'2013-12-26T08:18:04.965244+00:00'
p404
sS'exp'
p405
I0
sS'gmail'
p406
Vadvanced.r.suzuki@gmail.com
p407
sS'id'
p408
I2
sS'date_joined'
p409
S'2013-12-26T08:01:31.799730+00:00'
p410
ssba(iutil.request_logging
SimpleRequest
p411
(dp412
g3
g4
(g5
g6
Ntp413
Rp414
(dp415
g10
(g4
(g11
g12
(dp416
Vtid
p417
(lp418
V0
p419
asVtest
p420
(lp421
VTrue
p422
asVhasnum
p423
(lp424
V99999
p425
astp426
Rp427
(dp428
g26
S'utf-8'
p429
sg28
(dp430
g417
g418
sg420
g421
sg423
g424
ssS'_mutable'
p431
I00
sbg4
(g11
g12
(dp432
tp433
Rp434
(dp435
S'_encoding'
p436
g429
sg28
(dp437
sg431
I00
sbtp438
sbsg38
(dp439
S'screen_name'
p440
V\u9234\u6728\u7adc\u592a
p441
sS'money'
p442
I0
sS'last_login'
p443
S'2013-12-26T08:18:04.965244+00:00'
p444
sS'exp'
p445
I0
sS'date_joined'
p446
S'2013-12-26T08:01:31.799730+00:00'
p447
sS'id'
p448
I2
sS'gmail'
p449
Vadvanced.r.suzuki@gmail.com
p450
ssba(iutil.request_logging
SimpleRequest
p451
(dp452
g3
g4
(g5
g6
Ntp453
Rp454
(dp455
g10
(g4
(g11
g12
(dp456
Vtid
p457
(lp458
V0
p459
asVtest
p460
(lp461
VTrue
p462
asVhasnum
p463
(lp464
V99999
p465
astp466
Rp467
(dp468
g26
S'utf-8'
p469
sg28
(dp470
g457
g458
sg460
g461
sg463
g464
ssS'_mutable'
p471
I00
sbg4
(g11
g12
(dp472
tp473
Rp474
(dp475
S'_encoding'
p476
g469
sg28
(dp477
sg471
I00
sbtp478
sbsg38
(dp479
S'screen_name'
p480
V\u9234\u6728\u7adc\u592a
p481
sS'money'
p482
I0
sS'last_login'
p483
S'2013-12-26T08:18:04.965244+00:00'
p484
sS'exp'
p485
I0
sS'gmail'
p486
Vadvanced.r.suzuki@gmail.com
p487
sS'id'
p488
I2
sS'date_joined'
p489
S'2013-12-26T08:01:31.799730+00:00'
p490
ssba(iutil.request_logging
SimpleRequest
p491
(dp492
g3
g4
(g5
g6
Ntp493
Rp494
(dp495
g10
(g4
(g11
g12
(dp496
Vtid
p497
(lp498
V0
p499
asVtest
p500
(lp501
VTrue
p502
asVhasnum
p503
(lp504
V9999
p505
astp506
Rp507
(dp508
g26
S'utf-8'
p509
sg28
(dp510
g497
g498
sg500
g501
sg503
g504
ssS'_mutable'
p511
I00
sbg4
(g11
g12
(dp512
tp513
Rp514
(dp515
S'_encoding'
p516
g509
sg28
(dp517
sg511
I00
sbtp518
sbsg38
(dp519
S'screen_name'
p520
V\u9234\u6728\u7adc\u592a
p521
sS'money'
p522
I0
sS'last_login'
p523
S'2013-12-27T04:59:03.278066+00:00'
p524
sS'exp'
p525
I0
sS'date_joined'
p526
S'2013-12-26T08:01:31.799730+00:00'
p527
sS'id'
p528
I2
sS'gmail'
p529
Vadvanced.r.suzuki@gmail.com
p530
ssba(iutil.request_logging
SimpleRequest
p531
(dp532
g3
g4
(g5
g6
Ntp533
Rp534
(dp535
g10
(g4
(g11
g12
(dp536
Vtid
p537
(lp538
V0
p539
asVtest
p540
(lp541
VTrue
p542
asVhasnum
p543
(lp544
V9999
p545
astp546
Rp547
(dp548
g26
S'utf-8'
p549
sg28
(dp550
g537
g538
sg540
g541
sg543
g544
ssS'_mutable'
p551
I00
sbg4
(g11
g12
(dp552
tp553
Rp554
(dp555
S'_encoding'
p556
g549
sg28
(dp557
sg551
I00
sbtp558
sbsg38
(dp559
S'screen_name'
p560
V\u9234\u6728\u7adc\u592a
p561
sS'money'
p562
I0
sS'last_login'
p563
S'2013-12-27T04:59:03.278066+00:00'
p564
sS'exp'
p565
I0
sS'gmail'
p566
Vadvanced.r.suzuki@gmail.com
p567
sS'id'
p568
I2
sS'date_joined'
p569
S'2013-12-26T08:01:31.799730+00:00'
p570
ssba(iutil.request_logging
SimpleRequest
p571
(dp572
g3
g4
(g5
g6
Ntp573
Rp574
(dp575
g10
(g4
(g11
g12
(dp576
Vtid
p577
(lp578
V0
p579
asVtest
p580
(lp581
VTrue
p582
asVhasnum
p583
(lp584
V9999
p585
astp586
Rp587
(dp588
g26
S'utf-8'
p589
sg28
(dp590
g577
g578
sg580
g581
sg583
g584
ssS'_mutable'
p591
I00
sbg4
(g11
g12
(dp592
tp593
Rp594
(dp595
S'_encoding'
p596
g589
sg28
(dp597
sg591
I00
sbtp598
sbsg38
(dp599
S'screen_name'
p600
V\u9234\u6728\u7adc\u592a
p601
sS'money'
p602
I0
sS'last_login'
p603
S'2013-12-27T04:59:03.278066+00:00'
p604
sS'exp'
p605
I0
sS'date_joined'
p606
S'2013-12-26T08:01:31.799730+00:00'
p607
sS'id'
p608
I2
sS'gmail'
p609
Vadvanced.r.suzuki@gmail.com
p610
ssba(iutil.request_logging
SimpleRequest
p611
(dp612
g3
g4
(g5
g6
Ntp613
Rp614
(dp615
g10
(g4
(g11
g12
(dp616
Vtid
p617
(lp618
V0
p619
asVtest
p620
(lp621
VTrue
p622
asVhasnum
p623
(lp624
V9999
p625
astp626
Rp627
(dp628
g26
S'utf-8'
p629
sg28
(dp630
g617
g618
sg620
g621
sg623
g624
ssS'_mutable'
p631
I00
sbg4
(g11
g12
(dp632
tp633
Rp634
(dp635
S'_encoding'
p636
g629
sg28
(dp637
sg631
I00
sbtp638
sbsg38
(dp639
S'screen_name'
p640
V\u9234\u6728\u7adc\u592a
p641
sS'money'
p642
I0
sS'last_login'
p643
S'2013-12-27T04:59:03.278066+00:00'
p644
sS'exp'
p645
I0
sS'gmail'
p646
Vadvanced.r.suzuki@gmail.com
p647
sS'id'
p648
I2
sS'date_joined'
p649
S'2013-12-26T08:01:31.799730+00:00'
p650
ssba(iutil.request_logging
SimpleRequest
p651
(dp652
g3
g4
(g5
g6
Ntp653
Rp654
(dp655
g10
(g4
(g11
g12
(dp656
Vtid
p657
(lp658
V40
p659
asVtest
p660
(lp661
VTrue
p662
asVhasnum
p663
(lp664
V2
p665
astp666
Rp667
(dp668
g26
S'utf-8'
p669
sg28
(dp670
g657
g658
sg660
g661
sg663
g664
ssS'_mutable'
p671
I00
sbg4
(g11
g12
(dp672
tp673
Rp674
(dp675
S'_encoding'
p676
g669
sg28
(dp677
sg671
I00
sbtp678
sbsg38
(dp679
S'screen_name'
p680
V\u9234\u6728\u7adc\u592a
p681
sS'money'
p682
I0
sS'last_login'
p683
S'2013-12-27T05:09:38.347919+00:00'
p684
sS'exp'
p685
I0
sS'date_joined'
p686
S'2013-12-26T08:01:31.799730+00:00'
p687
sS'id'
p688
I2
sS'gmail'
p689
Vadvanced.r.suzuki@gmail.com
p690
ssba(iutil.request_logging
SimpleRequest
p691
(dp692
g3
g4
(g5
g6
Ntp693
Rp694
(dp695
g10
(g4
(g11
g12
(dp696
Vtid
p697
(lp698
V40
p699
asVtest
p700
(lp701
VTrue
p702
asVhasnum
p703
(lp704
V2
p705
astp706
Rp707
(dp708
g26
S'utf-8'
p709
sg28
(dp710
g697
g698
sg700
g701
sg703
g704
ssS'_mutable'
p711
I00
sbg4
(g11
g12
(dp712
tp713
Rp714
(dp715
S'_encoding'
p716
g709
sg28
(dp717
sg711
I00
sbtp718
sbsg38
(dp719
S'screen_name'
p720
V\u9234\u6728\u7adc\u592a
p721
sS'money'
p722
I0
sS'last_login'
p723
S'2013-12-27T05:09:38.347919+00:00'
p724
sS'exp'
p725
I0
sS'gmail'
p726
Vadvanced.r.suzuki@gmail.com
p727
sS'id'
p728
I2
sS'date_joined'
p729
S'2013-12-26T08:01:31.799730+00:00'
p730
ssba(iutil.request_logging
SimpleRequest
p731
(dp732
g3
g4
(g5
g6
Ntp733
Rp734
(dp735
g10
(g4
(g11
g12
(dp736
Vtid
p737
(lp738
V40
p739
asVtest
p740
(lp741
VTrue
p742
asVhasnum
p743
(lp744
V2
p745
astp746
Rp747
(dp748
g26
S'utf-8'
p749
sg28
(dp750
g737
g738
sg740
g741
sg743
g744
ssS'_mutable'
p751
I00
sbg4
(g11
g12
(dp752
tp753
Rp754
(dp755
S'_encoding'
p756
g749
sg28
(dp757
sg751
I00
sbtp758
sbsg38
(dp759
S'screen_name'
p760
V\u9234\u6728\u7adc\u592a
p761
sS'money'
p762
I0
sS'last_login'
p763
S'2013-12-27T05:09:38.347919+00:00'
p764
sS'exp'
p765
I0
sS'date_joined'
p766
S'2013-12-26T08:01:31.799730+00:00'
p767
sS'id'
p768
I2
sS'gmail'
p769
Vadvanced.r.suzuki@gmail.com
p770
ssba(iutil.request_logging
SimpleRequest
p771
(dp772
g3
g4
(g5
g6
Ntp773
Rp774
(dp775
g10
(g4
(g11
g12
(dp776
Vtid
p777
(lp778
V21
p779
asVtest
p780
(lp781
VTrue
p782
asVhasnum
p783
(lp784
V13
p785
astp786
Rp787
(dp788
g26
S'utf-8'
p789
sg28
(dp790
g777
g778
sg780
g781
sg783
g784
ssS'_mutable'
p791
I00
sbg4
(g11
g12
(dp792
tp793
Rp794
(dp795
S'_encoding'
p796
g789
sg28
(dp797
sg791
I00
sbtp798
sbsg38
(dp799
S'screen_name'
p800
V\u9234\u6728\u7adc\u592a
p801
sS'money'
p802
I0
sS'last_login'
p803
S'2013-12-27T05:21:07.240554+00:00'
p804
sS'exp'
p805
I0
sS'gmail'
p806
Vadvanced.r.suzuki@gmail.com
p807
sS'id'
p808
I2
sS'date_joined'
p809
S'2013-12-26T08:01:31.799730+00:00'
p810
ssba(iutil.request_logging
SimpleRequest
p811
(dp812
g3
g4
(g5
g6
Ntp813
Rp814
(dp815
g10
(g4
(g11
g12
(dp816
Vtid
p817
(lp818
V52
p819
asVtest
p820
(lp821
VTrue
p822
asVhasnum
p823
(lp824
V14
p825
astp826
Rp827
(dp828
g26
S'utf-8'
p829
sg28
(dp830
g817
g818
sg820
g821
sg823
g824
ssS'_mutable'
p831
I00
sbg4
(g11
g12
(dp832
tp833
Rp834
(dp835
S'_encoding'
p836
g829
sg28
(dp837
sg831
I00
sbtp838
sbsg38
(dp839
S'screen_name'
p840
V\u9234\u6728\u7adc\u592a
p841
sS'money'
p842
I0
sS'last_login'
p843
S'2013-12-27T05:40:54.773723+00:00'
p844
sS'exp'
p845
I0
sS'date_joined'
p846
S'2013-12-26T08:01:31.799730+00:00'
p847
sS'id'
p848
I2
sS'gmail'
p849
Vadvanced.r.suzuki@gmail.com
p850
ssba(iutil.request_logging
SimpleRequest
p851
(dp852
g3
g4
(g5
g6
Ntp853
Rp854
(dp855
g10
(g4
(g11
g12
(dp856
Vtid
p857
(lp858
V52
p859
asVtest
p860
(lp861
VTrue
p862
asVhasnum
p863
(lp864
V14
p865
astp866
Rp867
(dp868
g26
S'utf-8'
p869
sg28
(dp870
g857
g858
sg860
g861
sg863
g864
ssS'_mutable'
p871
I00
sbg4
(g11
g12
(dp872
tp873
Rp874
(dp875
g26
g869
sg28
(dp876
sg871
I00
sbtp877
sbsg38
(dp878
S'last_login'
p879
S'2013-12-27T05:40:54.773723+00:00'
p880
sS'screen_name'
p881
V\u9234\u6728\u7adc\u592a
p882
sS'exp'
p883
I0
sS'money'
p884
I0
sS'gmail'
p885
Vadvanced.r.suzuki@gmail.com
p886
sS'id'
p887
I2
sS'date_joined'
p888
S'2013-12-26T08:01:31.799730+00:00'
p889
ssba.