(lp0
(iutil.request_logging
SimpleRequest
p1
(dp2
S'REQUEST'
p3
ccopy_reg
_reconstructor
p4
(cdjango.utils.datastructures
MergeDict
p5
c__builtin__
object
p6
Ntp7
Rp8
(dp9
S'dicts'
p10
(g4
(cdjango.http.request
QueryDict
p11
c__builtin__
dict
p12
(dp13
Vtid
p14
(lp15
V64
p16
asVhasnum
p17
(lp18
V400
p19
astp20
Rp21
(dp22
S'_encoding'
p23
S'utf-8'
p24
sS'_data'
p25
(dp26
g14
g15
sg17
g18
ssS'_mutable'
p27
I01
sbg4
(g11
g12
(dp28
tp29
Rp30
(dp31
g23
g24
sg25
(dp32
sg27
I00
sbtp33
sbsS'user'
p34
g4
(cmyauth.models
TikuwaUser
p35
g6
Ntp36
Rp37
(dp38
S'screen_name'
p39
VSample user
p40
sS'money'
p41
L50L
sS'_state'
p42
g4
(cdjango.db.models.base
ModelState
p43
g6
Ntp44
Rp45
(dp46
S'adding'
p47
I00
sS'db'
p48
S'default'
p49
sbsS'is_active'
p50
I01
sS'is_staff'
p51
I00
sS'last_login'
p52
cdatetime
datetime
p53
(S'\x07\xdd\x0c\x12\x08\x1e\x0c\x00\x00\x00'
p54
cdjango.utils.timezone
UTC
p55
(tRp56
tp57
Rp58
sS'exp'
p59
L0L
sS'password'
p60
Vpbkdf2_sha256$12000$hjS5gaY8zNJ6$CzBDuNs+9pbXfLuSdSi7kTxBH5iAU31ejwlJtQnTR7Y=
p61
sS'id'
p62
L1L
sS'gmail'
p63
Vexample@gmail.com
p64
sbsba.(lp0
(iutil.request_logging
SimpleRequest
p1
(dp2
S'REQUEST'
p3
ccopy_reg
_reconstructor
p4
(cdjango.utils.datastructures
MergeDict
p5
c__builtin__
object
p6
Ntp7
Rp8
(dp9
S'dicts'
p10
(g4
(cdjango.http.request
QueryDict
p11
c__builtin__
dict
p12
(dp13
Vtid
p14
(lp15
V64
p16
asVhasnum
p17
(lp18
V400
p19
astp20
Rp21
(dp22
S'_encoding'
p23
S'utf-8'
p24
sS'_data'
p25
(dp26
g14
g15
sg17
g18
ssS'_mutable'
p27
I01
sbg4
(g11
g12
(dp28
tp29
Rp30
(dp31
S'_encoding'
p32
g24
sg25
(dp33
sg27
I00
sbtp34
sbsS'user'
p35
cdjango.db.models.base
model_unpickle
p36
((Vmyauth
p37
S'TikuwaUser'
p38
tp39
(lp40
cdjango.db.models.base
simple_class_factory
p41
tp42
Rp43
(dp44
S'screen_name'
p45
VSample user
p46
sS'money'
p47
L50L
sS'is_active'
p48
I01
sS'is_staff'
p49
I00
sS'last_login'
p50
cdatetime
datetime
p51
(S'\x07\xdd\x0c\x12\x08\x1e\x0c\x00\x00\x00'
p52
cdjango.utils.timezone
UTC
p53
(tRp54
tp55
Rp56
sS'exp'
p57
L0L
sS'_state'
p58
g4
(cdjango.db.models.base
ModelState
p59
g6
Ntp60
Rp61
(dp62
S'adding'
p63
I00
sS'db'
p64
S'default'
p65
sbsS'password'
p66
Vpbkdf2_sha256$12000$hjS5gaY8zNJ6$CzBDuNs+9pbXfLuSdSi7kTxBH5iAU31ejwlJtQnTR7Y=
p67
sS'id'
p68
L1L
sS'gmail'
p69
Vexample@gmail.com
p70
sbsba(iutil.request_logging
SimpleRequest
p71
(dp72
g3
g4
(g5
g6
Ntp73
Rp74
(dp75
g10
(g4
(g11
g12
(dp76
Vtid
p77
(lp78
V42
p79
asVhasnum
p80
(lp81
V100
p82
astp83
Rp84
(dp85
g23
S'utf-8'
p86
sg25
(dp87
g77
g78
sg80
g81
ssS'_mutable'
p88
I01
sbg4
(g11
g12
(dp89
tp90
Rp91
(dp92
g23
g86
sg25
(dp93
sg88
I00
sbtp94
sbsg35
g4
(cmyauth.models
TikuwaUser
p95
g6
Ntp96
Rp97
(dp98
g45
VSample user
p99
sg47
L50L
sg58
g4
(g59
g6
Ntp100
Rp101
(dp102
g63
I00
sg64
S'default'
p103
sbsg48
I01
sg49
I00
sg50
g51
(S'\x07\xdd\x0c\x12\x08\x1e\r\x00\x00\x00'
p104
g53
(tRp105
tp106
Rp107
sg57
L0L
sg66
Vpbkdf2_sha256$12000$EnNFMFD6MVqr$UWr+DNbrmUWkbdzW39IwqKhiEvBvEIiutAIcBbOipzo=
p108
sg68
L1L
sg69
Vexample@gmail.com
p109
sbsba.(lp0
(iutil.request_logging
SimpleRequest
p1
(dp2
S'REQUEST'
p3
ccopy_reg
_reconstructor
p4
(cdjango.utils.datastructures
MergeDict
p5
c__builtin__
object
p6
Ntp7
Rp8
(dp9
S'dicts'
p10
(g4
(cdjango.http.request
QueryDict
p11
c__builtin__
dict
p12
(dp13
Vtid
p14
(lp15
V64
p16
asVhasnum
p17
(lp18
V400
p19
astp20
Rp21
(dp22
S'_encoding'
p23
S'utf-8'
p24
sS'_data'
p25
(dp26
g14
g15
sg17
g18
ssS'_mutable'
p27
I01
sbg4
(g11
g12
(dp28
tp29
Rp30
(dp31
S'_encoding'
p32
g24
sg25
(dp33
sg27
I00
sbtp34
sbsS'user'
p35
cdjango.db.models.base
model_unpickle
p36
((Vmyauth
p37
S'TikuwaUser'
p38
tp39
(lp40
cdjango.db.models.base
simple_class_factory
p41
tp42
Rp43
(dp44
S'screen_name'
p45
VSample user
p46
sS'money'
p47
L50L
sS'is_active'
p48
I01
sS'is_staff'
p49
I00
sS'last_login'
p50
cdatetime
datetime
p51
(S'\x07\xdd\x0c\x12\x08\x1e\x0c\x00\x00\x00'
p52
cdjango.utils.timezone
UTC
p53
(tRp54
tp55
Rp56
sS'exp'
p57
L0L
sS'_state'
p58
g4
(cdjango.db.models.base
ModelState
p59
g6
Ntp60
Rp61
(dp62
S'adding'
p63
I00
sS'db'
p64
S'default'
p65
sbsS'password'
p66
Vpbkdf2_sha256$12000$hjS5gaY8zNJ6$CzBDuNs+9pbXfLuSdSi7kTxBH5iAU31ejwlJtQnTR7Y=
p67
sS'id'
p68
L1L
sS'gmail'
p69
Vexample@gmail.com
p70
sbsba(iutil.request_logging
SimpleRequest
p71
(dp72
g3
g4
(g5
g6
Ntp73
Rp74
(dp75
g10
(g4
(g11
g12
(dp76
Vtid
p77
(lp78
V64
p79
asVhasnum
p80
(lp81
V400
p82
astp83
Rp84
(dp85
g23
S'utf-8'
p86
sg25
(dp87
g77
g78
sg80
g81
ssS'_mutable'
p88
I01
sbg4
(g11
g12
(dp89
tp90
Rp91
(dp92
g23
g86
sg25
(dp93
sg88
I00
sbtp94
sbsg35
(dp95
g50
S'2013-12-19T07:21:51+00:00'
p96
sg45
VSample user
p97
sg57
L0L
sg47
L50L
sg69
Vexample@gmail.com
p98
sg68
L1L
sS'date_joined'
p99
S'2013-12-19T07:21:49+00:00'
p100
ssba.(lp0
(iutil.request_logging
SimpleRequest
p1
(dp2
S'REQUEST'
p3
ccopy_reg
_reconstructor
p4
(cdjango.utils.datastructures
MergeDict
p5
c__builtin__
object
p6
Ntp7
Rp8
(dp9
S'dicts'
p10
(g4
(cdjango.http.request
QueryDict
p11
c__builtin__
dict
p12
(dp13
Vtid
p14
(lp15
V64
p16
asVhasnum
p17
(lp18
V400
p19
astp20
Rp21
(dp22
S'_encoding'
p23
S'utf-8'
p24
sS'_data'
p25
(dp26
g14
g15
sg17
g18
ssS'_mutable'
p27
I01
sbg4
(g11
g12
(dp28
tp29
Rp30
(dp31
S'_encoding'
p32
g24
sg25
(dp33
sg27
I00
sbtp34
sbsS'user'
p35
cdjango.db.models.base
model_unpickle
p36
((Vmyauth
p37
S'TikuwaUser'
p38
tp39
(lp40
cdjango.db.models.base
simple_class_factory
p41
tp42
Rp43
(dp44
S'screen_name'
p45
VSample user
p46
sS'money'
p47
L50L
sS'is_active'
p48
I01
sS'is_staff'
p49
I00
sS'last_login'
p50
cdatetime
datetime
p51
(S'\x07\xdd\x0c\x12\x08\x1e\x0c\x00\x00\x00'
p52
cdjango.utils.timezone
UTC
p53
(tRp54
tp55
Rp56
sS'exp'
p57
L0L
sS'_state'
p58
g4
(cdjango.db.models.base
ModelState
p59
g6
Ntp60
Rp61
(dp62
S'adding'
p63
I00
sS'db'
p64
S'default'
p65
sbsS'password'
p66
Vpbkdf2_sha256$12000$hjS5gaY8zNJ6$CzBDuNs+9pbXfLuSdSi7kTxBH5iAU31ejwlJtQnTR7Y=
p67
sS'id'
p68
L1L
sS'gmail'
p69
Vexample@gmail.com
p70
sbsba(iutil.request_logging
SimpleRequest
p71
(dp72
g3
g4
(g5
g6
Ntp73
Rp74
(dp75
g10
(g4
(g11
g12
(dp76
Vtid
p77
(lp78
V42
p79
asVhasnum
p80
(lp81
V100
p82
astp83
Rp84
(dp85
g23
S'utf-8'
p86
sg25
(dp87
g77
g78
sg80
g81
ssS'_mutable'
p88
I01
sbg4
(g11
g12
(dp89
tp90
Rp91
(dp92
g23
g86
sg25
(dp93
sg88
I00
sbtp94
sbsg35
(dp95
g50
S'2013-12-19T07:21:51+00:00'
p96
sg45
VSample user
p97
sg57
L0L
sg47
L50L
sg69
Vexample@gmail.com
p98
sg68
L1L
sS'date_joined'
p99
S'2013-12-19T07:21:49+00:00'
p100
ssba.(lp0
(iutil.request_logging
SimpleRequest
p1
(dp2
S'REQUEST'
p3
ccopy_reg
_reconstructor
p4
(cdjango.utils.datastructures
MergeDict
p5
c__builtin__
object
p6
Ntp7
Rp8
(dp9
S'dicts'
p10
(g4
(cdjango.http.request
QueryDict
p11
c__builtin__
dict
p12
(dp13
Vtid
p14
(lp15
V64
p16
asVhasnum
p17
(lp18
V400
p19
astp20
Rp21
(dp22
S'_encoding'
p23
S'utf-8'
p24
sS'_data'
p25
(dp26
g14
g15
sg17
g18
ssS'_mutable'
p27
I01
sbg4
(g11
g12
(dp28
tp29
Rp30
(dp31
S'_encoding'
p32
g24
sg25
(dp33
sg27
I00
sbtp34
sbsS'user'
p35
cdjango.db.models.base
model_unpickle
p36
((Vmyauth
p37
S'TikuwaUser'
p38
tp39
(lp40
cdjango.db.models.base
simple_class_factory
p41
tp42
Rp43
(dp44
S'screen_name'
p45
VSample user
p46
sS'money'
p47
L50L
sS'is_active'
p48
I01
sS'is_staff'
p49
I00
sS'last_login'
p50
cdatetime
datetime
p51
(S'\x07\xdd\x0c\x12\x08\x1e\x0c\x00\x00\x00'
p52
cdjango.utils.timezone
UTC
p53
(tRp54
tp55
Rp56
sS'exp'
p57
L0L
sS'_state'
p58
g4
(cdjango.db.models.base
ModelState
p59
g6
Ntp60
Rp61
(dp62
S'adding'
p63
I00
sS'db'
p64
S'default'
p65
sbsS'password'
p66
Vpbkdf2_sha256$12000$hjS5gaY8zNJ6$CzBDuNs+9pbXfLuSdSi7kTxBH5iAU31ejwlJtQnTR7Y=
p67
sS'id'
p68
L1L
sS'gmail'
p69
Vexample@gmail.com
p70
sbsba(iutil.request_logging
SimpleRequest
p71
(dp72
g3
g4
(g5
g6
Ntp73
Rp74
(dp75
g10
(g4
(g11
g12
(dp76
Vtid
p77
(lp78
V64
p79
asVhasnum
p80
(lp81
V400
p82
astp83
Rp84
(dp85
g23
S'utf-8'
p86
sg25
(dp87
g77
g78
sg80
g81
ssS'_mutable'
p88
I01
sbg4
(g11
g12
(dp89
tp90
Rp91
(dp92
g23
g86
sg25
(dp93
sg88
I00
sbtp94
sbsg35
(dp95
g50
S'2013-12-19T07:31:45+00:00'
p96
sg45
VSample user
p97
sg57
L0L
sg47
L50L
sg69
Vexample@gmail.com
p98
sg68
L1L
sS'date_joined'
p99
S'2013-12-19T07:31:44+00:00'
p100
ssba.(lp0
(iutil.request_logging
SimpleRequest
p1
(dp2
S'REQUEST'
p3
ccopy_reg
_reconstructor
p4
(cdjango.utils.datastructures
MergeDict
p5
c__builtin__
object
p6
Ntp7
Rp8
(dp9
S'dicts'
p10
(g4
(cdjango.http.request
QueryDict
p11
c__builtin__
dict
p12
(dp13
Vtid
p14
(lp15
V64
p16
asVhasnum
p17
(lp18
V400
p19
astp20
Rp21
(dp22
S'_encoding'
p23
S'utf-8'
p24
sS'_data'
p25
(dp26
g14
g15
sg17
g18
ssS'_mutable'
p27
I01
sbg4
(g11
g12
(dp28
tp29
Rp30
(dp31
S'_encoding'
p32
g24
sg25
(dp33
sg27
I00
sbtp34
sbsS'user'
p35
cdjango.db.models.base
model_unpickle
p36
((Vmyauth
p37
S'TikuwaUser'
p38
tp39
(lp40
cdjango.db.models.base
simple_class_factory
p41
tp42
Rp43
(dp44
S'screen_name'
p45
VSample user
p46
sS'money'
p47
L50L
sS'is_active'
p48
I01
sS'is_staff'
p49
I00
sS'last_login'
p50
cdatetime
datetime
p51
(S'\x07\xdd\x0c\x12\x08\x1e\x0c\x00\x00\x00'
p52
cdjango.utils.timezone
UTC
p53
(tRp54
tp55
Rp56
sS'exp'
p57
L0L
sS'_state'
p58
g4
(cdjango.db.models.base
ModelState
p59
g6
Ntp60
Rp61
(dp62
S'adding'
p63
I00
sS'db'
p64
S'default'
p65
sbsS'password'
p66
Vpbkdf2_sha256$12000$hjS5gaY8zNJ6$CzBDuNs+9pbXfLuSdSi7kTxBH5iAU31ejwlJtQnTR7Y=
p67
sS'id'
p68
L1L
sS'gmail'
p69
Vexample@gmail.com
p70
sbsba(iutil.request_logging
SimpleRequest
p71
(dp72
g3
g4
(g5
g6
Ntp73
Rp74
(dp75
g10
(g4
(g11
g12
(dp76
Vtid
p77
(lp78
V42
p79
asVhasnum
p80
(lp81
V100
p82
astp83
Rp84
(dp85
g23
S'utf-8'
p86
sg25
(dp87
g77
g78
sg80
g81
ssS'_mutable'
p88
I01
sbg4
(g11
g12
(dp89
tp90
Rp91
(dp92
g23
g86
sg25
(dp93
sg88
I00
sbtp94
sbsg35
(dp95
g50
S'2013-12-19T07:31:45+00:00'
p96
sg45
VSample user
p97
sg57
L0L
sg47
L50L
sg69
Vexample@gmail.com
p98
sg68
L1L
sS'date_joined'
p99
S'2013-12-19T07:31:44+00:00'
p100
ssba.